
wifi_test.elf:     file format elf32-littlenios2
wifi_test.elf
architecture: nios2:r1, flags 0x00000112:
EXEC_P, HAS_SYMS, D_PAGED
start address 0x04000000

Program Header:
    LOAD off    0x00001000 vaddr 0x04000000 paddr 0x04000000 align 2**12
         filesz 0x00013ac0 memsz 0x00013ac0 flags r-x
    LOAD off    0x00014ac0 vaddr 0x04013ac0 paddr 0x040158bc align 2**12
         filesz 0x00001dfc memsz 0x00001dfc flags rw-
    LOAD off    0x000176b8 vaddr 0x040176b8 paddr 0x040176b8 align 2**12
         filesz 0x00000000 memsz 0x00000178 flags rw-
    LOAD off    0x00017000 vaddr 0x08020000 paddr 0x08020000 align 2**12
         filesz 0x00000020 memsz 0x00000020 flags r-x
    LOAD off    0x00017020 vaddr 0x08020020 paddr 0x08020020 align 2**12
         filesz 0x00000228 memsz 0x00000228 flags r-x

Sections:
Idx Name          Size      VMA       LMA       File off  Algn
  0 .entry        00000020  08020000  08020000  00017000  2**5
                  CONTENTS, ALLOC, LOAD, READONLY, CODE
  1 .exceptions   00000228  08020020  08020020  00017020  2**2
                  CONTENTS, ALLOC, LOAD, READONLY, CODE
  2 .text         00013614  04000000  04000000  00001000  2**2
                  CONTENTS, ALLOC, LOAD, READONLY, CODE
  3 .rodata       000004ac  04013614  04013614  00014614  2**2
                  CONTENTS, ALLOC, LOAD, READONLY, DATA
  4 .rwdata       00001dfc  04013ac0  040158bc  00014ac0  2**2
                  CONTENTS, ALLOC, LOAD, DATA, SMALL_DATA
  5 .bss          00000178  040176b8  040176b8  000176b8  2**2
                  ALLOC, SMALL_DATA
  6 .SDRAM        00000000  04017830  04017830  00017248  2**0
                  CONTENTS
  7 .Onchip_Memory 00000000  08020248  08020248  00017248  2**0
                  CONTENTS
  8 .comment      00000023  00000000  00000000  00017248  2**0
                  CONTENTS, READONLY
  9 .debug_aranges 00000fd8  00000000  00000000  00017270  2**3
                  CONTENTS, READONLY, DEBUGGING
 10 .debug_info   000286b8  00000000  00000000  00018248  2**0
                  CONTENTS, READONLY, DEBUGGING
 11 .debug_abbrev 00009fb5  00000000  00000000  00040900  2**0
                  CONTENTS, READONLY, DEBUGGING
 12 .debug_line   0000d599  00000000  00000000  0004a8b5  2**0
                  CONTENTS, READONLY, DEBUGGING
 13 .debug_frame  0000250c  00000000  00000000  00057e50  2**2
                  CONTENTS, READONLY, DEBUGGING
 14 .debug_str    00003c62  00000000  00000000  0005a35c  2**0
                  CONTENTS, READONLY, DEBUGGING
 15 .debug_loc    0001c7e4  00000000  00000000  0005dfbe  2**0
                  CONTENTS, READONLY, DEBUGGING
 16 .debug_alt_sim_info 00000060  00000000  00000000  0007a7a4  2**2
                  CONTENTS, READONLY, DEBUGGING
 17 .debug_ranges 00001ae8  00000000  00000000  0007a808  2**3
                  CONTENTS, READONLY, DEBUGGING
 18 .thread_model 00000003  00000000  00000000  0007fa3a  2**0
                  CONTENTS, READONLY
 19 .cpu          00000003  00000000  00000000  0007fa3d  2**0
                  CONTENTS, READONLY
 20 .qsys         00000001  00000000  00000000  0007fa40  2**0
                  CONTENTS, READONLY
 21 .simulation_enabled 00000001  00000000  00000000  0007fa41  2**0
                  CONTENTS, READONLY
 22 .stderr_dev   00000004  00000000  00000000  0007fa42  2**0
                  CONTENTS, READONLY
 23 .stdin_dev    00000004  00000000  00000000  0007fa46  2**0
                  CONTENTS, READONLY
 24 .stdout_dev   00000004  00000000  00000000  0007fa4a  2**0
                  CONTENTS, READONLY
 25 .sopc_system_name 00000004  00000000  00000000  0007fa4e  2**0
                  CONTENTS, READONLY
 26 .quartus_project_dir 0000003b  00000000  00000000  0007fa52  2**0
                  CONTENTS, READONLY
 27 .jdi          0000448d  00000000  00000000  0007fa8d  2**0
                  CONTENTS, READONLY
 28 .sopcinfo     000772fc  00000000  00000000  00083f1a  2**0
                  CONTENTS, READONLY
SYMBOL TABLE:
08020000 l    d  .entry	00000000 .entry
08020020 l    d  .exceptions	00000000 .exceptions
04000000 l    d  .text	00000000 .text
04013614 l    d  .rodata	00000000 .rodata
04013ac0 l    d  .rwdata	00000000 .rwdata
040176b8 l    d  .bss	00000000 .bss
04017830 l    d  .SDRAM	00000000 .SDRAM
08020248 l    d  .Onchip_Memory	00000000 .Onchip_Memory
00000000 l    d  .comment	00000000 .comment
00000000 l    d  .debug_aranges	00000000 .debug_aranges
00000000 l    d  .debug_info	00000000 .debug_info
00000000 l    d  .debug_abbrev	00000000 .debug_abbrev
00000000 l    d  .debug_line	00000000 .debug_line
00000000 l    d  .debug_frame	00000000 .debug_frame
00000000 l    d  .debug_str	00000000 .debug_str
00000000 l    d  .debug_loc	00000000 .debug_loc
00000000 l    d  .debug_alt_sim_info	00000000 .debug_alt_sim_info
00000000 l    d  .debug_ranges	00000000 .debug_ranges
00000000 l    df *ABS*	00000000 ../wifi_test_bsp//obj/HAL/src/crt0.o
04000048 l       .text	00000000 alt_after_alt_main
00000000 l    df *ABS*	00000000 alt_irq_handler.c
00000000 l    df *ABS*	00000000 alt_instruction_exception_entry.c
00000000 l    df *ABS*	00000000 hello_world.c
00000000 l    df *ABS*	00000000 printf.c
00000000 l    df *ABS*	00000000 putchar.c
00000000 l    df *ABS*	00000000 puts.c
00000000 l    df *ABS*	00000000 sprintf.c
00000000 l    df *ABS*	00000000 strcmp.c
00000000 l    df *ABS*	00000000 strlen.c
00000000 l    df *ABS*	00000000 vfprintf.c
0401376a l     O .rodata	00000010 zeroes.4389
0401377a l     O .rodata	00000010 blanks.4388
00000000 l    df *ABS*	00000000 vfprintf.c
0401378a l     O .rodata	00000010 zeroes.4404
04004d00 l     F .text	000000bc __sbprintf
0401379a l     O .rodata	00000010 blanks.4403
00000000 l    df *ABS*	00000000 wsetup.c
00000000 l    df *ABS*	00000000 dtoa.c
04004f10 l     F .text	00000200 quorem
00000000 l    df *ABS*	00000000 fflush.c
00000000 l    df *ABS*	00000000 findfp.c
04006a40 l     F .text	00000008 __fp_unlock
04006a54 l     F .text	0000019c __sinit.part.1
04006bf0 l     F .text	00000008 __fp_lock
00000000 l    df *ABS*	00000000 mallocr.c
00000000 l    df *ABS*	00000000 fvwrite.c
00000000 l    df *ABS*	00000000 fwalk.c
00000000 l    df *ABS*	00000000 impure.c
04013d28 l     O .rwdata	00000424 impure_data
00000000 l    df *ABS*	00000000 locale.c
0401416c l     O .rwdata	00000020 lc_ctype_charset
0401414c l     O .rwdata	00000020 lc_message_charset
0401418c l     O .rwdata	00000038 lconv
00000000 l    df *ABS*	00000000 makebuf.c
00000000 l    df *ABS*	00000000 mallocr.c
00000000 l    df *ABS*	00000000 memchr.c
00000000 l    df *ABS*	00000000 memcpy.c
00000000 l    df *ABS*	00000000 memmove.c
00000000 l    df *ABS*	00000000 memset.c
00000000 l    df *ABS*	00000000 mprec.c
040137cc l     O .rodata	0000000c p05.2768
00000000 l    df *ABS*	00000000 putc.c
00000000 l    df *ABS*	00000000 mallocr.c
00000000 l    df *ABS*	00000000 s_fpclassify.c
00000000 l    df *ABS*	00000000 sbrkr.c
00000000 l    df *ABS*	00000000 stdio.c
00000000 l    df *ABS*	00000000 vfprintf.c
04013900 l     O .rodata	00000010 blanks.4332
040138f0 l     O .rodata	00000010 zeroes.4333
00000000 l    df *ABS*	00000000 vfprintf.c
0400b484 l     F .text	000000fc __sprint_r.part.0
04013920 l     O .rodata	00000010 blanks.4348
04013910 l     O .rodata	00000010 zeroes.4349
0400ca10 l     F .text	000000bc __sbprintf
00000000 l    df *ABS*	00000000 wbuf.c
00000000 l    df *ABS*	00000000 writer.c
00000000 l    df *ABS*	00000000 closer.c
00000000 l    df *ABS*	00000000 mallocr.c
00000000 l    df *ABS*	00000000 fclose.c
00000000 l    df *ABS*	00000000 fputwc.c
00000000 l    df *ABS*	00000000 fstatr.c
00000000 l    df *ABS*	00000000 int_errno.c
00000000 l    df *ABS*	00000000 isattyr.c
00000000 l    df *ABS*	00000000 lseekr.c
00000000 l    df *ABS*	00000000 readr.c
00000000 l    df *ABS*	00000000 wcrtomb.c
00000000 l    df *ABS*	00000000 wctomb_r.c
00000000 l    df *ABS*	00000000 libgcc2.c
00000000 l    df *ABS*	00000000 libgcc2.c
00000000 l    df *ABS*	00000000 lib2-divmod.c
00000000 l    df *ABS*	00000000 adddf3.c
00000000 l    df *ABS*	00000000 divdf3.c
00000000 l    df *ABS*	00000000 eqdf2.c
00000000 l    df *ABS*	00000000 gedf2.c
00000000 l    df *ABS*	00000000 ledf2.c
00000000 l    df *ABS*	00000000 muldf3.c
00000000 l    df *ABS*	00000000 subdf3.c
00000000 l    df *ABS*	00000000 fixdfsi.c
00000000 l    df *ABS*	00000000 floatsidf.c
00000000 l    df *ABS*	00000000 floatunsidf.c
00000000 l    df *ABS*	00000000 libgcc2.c
00000000 l    df *ABS*	00000000 libgcc2.c
00000000 l    df *ABS*	00000000 alt_close.c
040106cc l     F .text	0000003c alt_get_errno
00000000 l    df *ABS*	00000000 alt_dev.c
040107d8 l     F .text	0000002c alt_dev_null_write
00000000 l    df *ABS*	00000000 alt_errno.c
00000000 l    df *ABS*	00000000 alt_fstat.c
04010804 l     F .text	0000003c alt_get_errno
00000000 l    df *ABS*	00000000 alt_isatty.c
040108f0 l     F .text	0000003c alt_get_errno
00000000 l    df *ABS*	00000000 alt_load.c
040109d0 l     F .text	00000068 alt_load_section
00000000 l    df *ABS*	00000000 alt_lseek.c
04010abc l     F .text	0000003c alt_get_errno
00000000 l    df *ABS*	00000000 alt_main.c
00000000 l    df *ABS*	00000000 alt_malloc_lock.c
00000000 l    df *ABS*	00000000 alt_read.c
04010c90 l     F .text	0000003c alt_get_errno
00000000 l    df *ABS*	00000000 alt_release_fd.c
00000000 l    df *ABS*	00000000 alt_sbrk.c
040158ac l     O .rwdata	00000004 heap_end
00000000 l    df *ABS*	00000000 alt_usleep.c
00000000 l    df *ABS*	00000000 alt_write.c
04010f0c l     F .text	0000003c alt_get_errno
00000000 l    df *ABS*	00000000 alt_sys_init.c
04011040 l     F .text	00000034 alt_dev_reg
04014774 l     O .rwdata	00001060 JTAG
040157d4 l     O .rwdata	00000030 Audio
04015804 l     O .rwdata	0000002c WIFI_Serial_Port
04015830 l     O .rwdata	00000048 Char_Buffer
00000000 l    df *ABS*	00000000 altera_avalon_jtag_uart_fd.c
00000000 l    df *ABS*	00000000 altera_avalon_jtag_uart_init.c
040113f4 l     F .text	00000210 altera_avalon_jtag_uart_irq
04011604 l     F .text	000000a0 altera_avalon_jtag_uart_timeout
00000000 l    df *ABS*	00000000 altera_avalon_jtag_uart_ioctl.c
00000000 l    df *ABS*	00000000 altera_avalon_jtag_uart_read.c
00000000 l    df *ABS*	00000000 altera_avalon_jtag_uart_write.c
00000000 l    df *ABS*	00000000 altera_avalon_timer_sc.c
04011c3c l     F .text	0000007c alt_avalon_timer_sc_irq
00000000 l    df *ABS*	00000000 altera_up_avalon_rs232.c
00000000 l    df *ABS*	00000000 altera_up_avalon_video_character_buffer_with_dma.c
00000000 l    df *ABS*	00000000 alt_alarm_start.c
00000000 l    df *ABS*	00000000 alt_busy_sleep.c
00000000 l    df *ABS*	00000000 alt_dcache_flush_all.c
00000000 l    df *ABS*	00000000 alt_dev_llist_insert.c
04012668 l     F .text	0000003c alt_get_errno
00000000 l    df *ABS*	00000000 alt_do_ctors.c
00000000 l    df *ABS*	00000000 alt_do_dtors.c
00000000 l    df *ABS*	00000000 alt_find_dev.c
00000000 l    df *ABS*	00000000 alt_icache_flush_all.c
00000000 l    df *ABS*	00000000 alt_io_redirect.c
040128cc l     F .text	000000c4 alt_open_fd
00000000 l    df *ABS*	00000000 alt_irq_register.c
00000000 l    df *ABS*	00000000 alt_irq_vars.c
00000000 l    df *ABS*	00000000 alt_open.c
04012b8c l     F .text	0000003c alt_get_errno
04012bc8 l     F .text	000000c4 alt_file_locked
00000000 l    df *ABS*	00000000 alt_tick.c
00000000 l    df *ABS*	00000000 altera_nios2_gen2_irq.c
00000000 l    df *ABS*	00000000 alt_find_file.c
00000000 l    df *ABS*	00000000 alt_get_fd.c
00000000 l    df *ABS*	00000000 alt_icache_flush.c
00000000 l    df *ABS*	00000000 atexit.c
00000000 l    df *ABS*	00000000 exit.c
00000000 l    df *ABS*	00000000 memcmp.c
00000000 l    df *ABS*	00000000 __atexit.c
00000000 l    df *ABS*	00000000 __call_atexit.c
00000000 l    df *ABS*	00000000 alt_exit.c
040176b8 g     O .bss	00000001 parity
04017704 g     O .bss	00000004 alt_instruction_exception_handler
040005f0 g     F .text	00000018 putchar
04009630 g     F .text	00000074 _mprec_log10
0400971c g     F .text	0000008c __any_on
0400d104 g     F .text	00000054 _isatty_r
040137d8 g     O .rodata	00000028 __mprec_tinytens
04010bcc g     F .text	0000007c alt_main
04000608 g     F .text	000000c0 _puts_r
04017730 g     O .bss	00000100 alt_irq
0400d158 g     F .text	00000060 _lseek_r
040158bc g       *ABS*	00000000 __flash_rwdata_start
0400f1f8 g     F .text	00000088 .hidden __eqdf2
04017830 g     O *ABS*	00000000 __alt_heap_start
040176b9 g     O .bss	00000001 data_W8
040005ac g     F .text	0000003c printf
0400d218 g     F .text	0000009c _wcrtomb_r
04013ac0 g     O .rwdata	0000000d node_start
0400a014 g     F .text	0000005c __sseek
04006d90 g     F .text	00000010 __sinit
0400cacc g     F .text	00000140 __swbuf_r
04012244 g     F .text	000000fc alt_up_char_buffer_string
04007858 g     F .text	0000007c _setlocale_r
04006bf8 g     F .text	00000068 __sfmoreglue
04010c6c g     F .text	00000024 __malloc_unlock
04011f5c g     F .text	00000090 alt_up_rs232_read_fd
04012178 g     F .text	000000cc alt_up_char_buffer_draw
04008528 g     F .text	0000015c memmove
04006d78 g     F .text	00000018 _cleanup
040087ac g     F .text	000000a8 _Balloc
0400f280 g     F .text	000000dc .hidden __gtdf2
04012f84 g     F .text	00000024 altera_nios2_gen2_irq_init
08020000 g     F .entry	0000001c __reset
04000504 g     F .text	00000078 press_button
08020020 g       *ABS*	00000000 __flash_exceptions_start
0400d0a8 g     F .text	0000005c _fstat_r
040176e8 g     O .bss	00000004 errno
04009f90 g     F .text	00000008 __seofread
0400a248 g     F .text	0000123c ___svfiprintf_internal_r
040176bc g     O .bss	00000004 char_buffer
040176f0 g     O .bss	00000004 alt_argv
0401d878 g       *ABS*	00000000 _gp
04010edc g     F .text	00000030 usleep
040176c0 g     O .bss	00000001 data_R8
04013b28 g     O .rwdata	00000200 output
040145f4 g     O .rwdata	00000180 alt_fd_list
040005e8 g     F .text	00000008 _putchar_r
04012808 g     F .text	00000090 alt_find_dev
040083e0 g     F .text	00000148 memcpy
04012340 g     F .text	0000005c alt_up_char_buffer_clear
04006a48 g     F .text	0000000c _cleanup_r
040104e4 g     F .text	000000dc .hidden __floatsidf
04012990 g     F .text	0000007c alt_io_redirect
0400f35c g     F .text	000000f4 .hidden __ltdf2
04013614 g       *ABS*	00000000 __DTOR_END__
04011ee8 g     F .text	00000074 alt_up_rs232_read_data
040006c8 g     F .text	00000014 puts
040131e4 g     F .text	0000009c alt_exception_cause_generated_bad_addr
04009e74 g     F .text	00000074 __fpclassifyd
0400958c g     F .text	000000a4 __ratio
0400c9f4 g     F .text	0000001c __vfiprintf_internal
040117fc g     F .text	0000021c altera_avalon_jtag_uart_read
0400057c g     F .text	00000030 _printf_r
0400dfa8 g     F .text	00000064 .hidden __udivsi3
0401092c g     F .text	000000a4 isatty
04013828 g     O .rodata	000000c8 __mprec_tens
040078d4 g     F .text	0000000c __locale_charset
04013154 g     F .text	00000090 alt_icache_flush
040176e4 g     O .bss	00000004 __malloc_top_pad
04015884 g     O .rwdata	00000004 __mb_cur_max
04007904 g     F .text	0000000c _localeconv_r
04008bb8 g     F .text	0000003c __i2b
04007214 g     F .text	000004bc __sfvwrite_r
04009ee8 g     F .text	00000054 _sbrk_r
0400d1b8 g     F .text	00000060 _read_r
040158a4 g     O .rwdata	00000004 alt_max_fd
04011e64 g     F .text	00000044 alt_up_rs232_check_parity
0400cd9c g     F .text	000000f0 _fclose_r
04006a10 g     F .text	00000030 fflush
040176e0 g     O .bss	00000004 __malloc_max_sbrked_mem
04012a0c g     F .text	00000180 alt_irq_register
0400e064 g     F .text	000008ac .hidden __adddf3
04009334 g     F .text	0000010c __b2d
0400d978 g     F .text	00000538 .hidden __umoddi3
04010af8 g     F .text	000000d4 lseek
0401587c g     O .rwdata	00000004 _global_impure_ptr
04009910 g     F .text	00000564 _realloc_r
04017830 g       *ABS*	00000000 __bss_end
04012e7c g     F .text	00000108 alt_tick
0400d400 g     F .text	00000578 .hidden __udivdi3
0400d004 g     F .text	00000024 _fputwc_r
04013800 g     O .rodata	00000028 __mprec_bigtens
0400899c g     F .text	00000104 __s2b
04000328 g     F .text	000001dc display_question
040105c0 g     F .text	000000a8 .hidden __floatunsidf
04009074 g     F .text	00000060 __mcmp
04006db0 g     F .text	00000018 __fp_lock_all
04012de0 g     F .text	0000009c alt_alarm_stop
040176f8 g     O .bss	00000004 alt_irq_active
080200fc g     F .exceptions	000000d8 alt_irq_handler
040145cc g     O .rwdata	00000028 alt_dev_null
04012620 g     F .text	00000048 alt_dcache_flush_all
04008aa0 g     F .text	00000068 __hi0bits
04010464 g     F .text	00000080 .hidden __fixdfsi
040158bc g       *ABS*	00000000 __ram_rwdata_end
0401589c g     O .rwdata	00000008 alt_dev_list
04010f48 g     F .text	000000f8 write
040097a8 g     F .text	000000a0 _putc_r
040176c4 g     O .bss	00000004 write_FIFO_space
04013ac0 g       *ABS*	00000000 __ram_rodata_end
04010840 g     F .text	000000b0 fstat
04011fec g     F .text	00000094 alt_up_rs232_write_fd
04000000 g       *ABS*	00000000 __alt_mem_SDRAM
0400f35c g     F .text	000000f4 .hidden __ledf2
04008dec g     F .text	00000140 __pow5mult
04013b10 g     O .rwdata	00000018 led
0400b598 g     F .text	0000145c ___vfiprintf_internal_r
040176d8 g     O .bss	00000004 __nlocale_changed
0400e00c g     F .text	00000058 .hidden __umodsi3
04017830 g     O *ABS*	00000001 end
040120bc g     F .text	00000080 alt_up_char_buffer_init
04011340 g     F .text	000000b4 altera_avalon_jtag_uart_init
080201d4 g     F .exceptions	00000074 alt_instruction_exception_entry
04013614 g       *ABS*	00000000 __CTOR_LIST__
08000000 g       *ABS*	00000000 __alt_stack_pointer
04011cb8 g     F .text	00000074 alt_avalon_timer_sc_init
04010668 g     F .text	00000064 .hidden __clzsi2
04011a18 g     F .text	00000224 altera_avalon_jtag_uart_write
04006da0 g     F .text	00000004 __sfp_lock_acquire
040082fc g     F .text	000000e4 memchr
04002aec g     F .text	000021f8 ___vfprintf_internal_r
040006dc g     F .text	00000058 _sprintf_r
04006f04 g     F .text	00000310 _free_r
040078e0 g     F .text	00000010 __locale_mb_cur_max
04013460 g     F .text	00000180 __call_exitprocs
040176d4 g     O .bss	00000004 __mlocale_changed
04000134 g     F .text	000000ec write_data
04015888 g     O .rwdata	00000004 __malloc_sbrk_base
04000000 g     F .text	0000004c _start
040176fc g     O .bss	00000004 _alt_tick_rate
04008f2c g     F .text	00000148 __lshift
04017700 g     O .bss	00000004 _alt_nticks
04010ccc g     F .text	000000fc read
040110ac g     F .text	00000130 alt_sys_init
0400a078 g     F .text	000001d0 __ssprint_r
04013348 g     F .text	00000118 __register_exitproc
040176c8 g     O .bss	00000002 read_FIFO_used
04011e28 g     F .text	0000003c alt_up_rs232_get_available_space_in_write_FIFO
04008bf4 g     F .text	000001f8 __multiply
040116a4 g     F .text	00000068 altera_avalon_jtag_uart_close
04013ac0 g       *ABS*	00000000 __ram_rwdata_start
04013614 g       *ABS*	00000000 __ram_rodata_start
04000220 g     F .text	00000108 read_data
04017708 g     O .bss	00000028 __malloc_current_mallinfo
04009440 g     F .text	0000014c __d2b
040111dc g     F .text	00000060 altera_avalon_jtag_uart_read_fd
040130b0 g     F .text	000000a4 alt_get_fd
040124c8 g     F .text	00000158 alt_busy_sleep
0400cc84 g     F .text	00000054 _close_r
040132cc g     F .text	0000007c memcmp
0401129c g     F .text	00000050 altera_avalon_jtag_uart_close_fd
04017830 g       *ABS*	00000000 __alt_stack_base
040112ec g     F .text	00000054 altera_avalon_jtag_uart_ioctl_fd
04004dbc g     F .text	00000154 __swsetup_r
0400e910 g     F .text	000008e8 .hidden __divdf3
04006c60 g     F .text	00000118 __sfp
040096a4 g     F .text	00000078 __copybits
040141c4 g     O .rwdata	00000408 __malloc_av_
04006dac g     F .text	00000004 __sinit_lock_release
0400f450 g     F .text	00000718 .hidden __muldf3
04009f3c g     F .text	00000054 __sread
04011d88 g     F .text	00000060 alt_up_rs232_disable_read_interrupt
04012fa8 g     F .text	00000108 alt_find_file
040126a4 g     F .text	000000a4 alt_dev_llist_insert
04010c48 g     F .text	00000024 __malloc_lock
04010e2c g     F .text	000000b0 sbrk
04000914 g     F .text	000021d8 ___svfprintf_internal_r
040069b4 g     F .text	0000005c _fflush_r
0400ccd8 g     F .text	000000c4 _calloc_r
040176b8 g       *ABS*	00000000 __bss_start
040176ca g     O .bss	00000001 data
04008684 g     F .text	00000128 memset
0400004c g     F .text	000000e8 main
040176f4 g     O .bss	00000004 alt_envp
040176dc g     O .bss	00000004 __malloc_max_total_mem
0401213c g     F .text	0000003c alt_up_char_buffer_open_dev
0401123c g     F .text	00000060 altera_avalon_jtag_uart_write_fd
0400cc0c g     F .text	00000018 __swbuf
0400a070 g     F .text	00000008 __sclose
08000000 g       *ABS*	00000000 __alt_heap_limit
0400ce8c g     F .text	00000014 fclose
04005110 g     F .text	00001688 _dtoa_r
04007af0 g     F .text	0000080c _malloc_r
0400d374 g     F .text	00000030 __ascii_wctomb
040158a8 g     O .rwdata	00000004 alt_errno
040076d0 g     F .text	000000c4 _fwalk
04009848 g     F .text	000000c8 putc
0400deb0 g     F .text	00000084 .hidden __divsi3
04006de0 g     F .text	00000124 _malloc_trim_r
04013614 g       *ABS*	00000000 __CTOR_END__
040007a0 g     F .text	000000dc strcmp
04013614 g       *ABS*	00000000 __flash_rodata_start
04013614 g       *ABS*	00000000 __DTOR_LIST__
04013ad0 g     O .rwdata	0000001a dofile
04013b00 g     O .rwdata	0000000d check_wifi
04012080 g     F .text	0000003c alt_up_rs232_open_dev
0400f1f8 g     F .text	00000088 .hidden __nedf2
04011074 g     F .text	00000038 alt_irq_init
04010dc8 g     F .text	00000064 alt_release_fd
04000734 g     F .text	0000006c sprintf
04013930 g     O .rodata	00000100 .hidden __clz_tab
040176d0 g     O .bss	00000004 _PathLocale
04013280 g     F .text	00000014 atexit
0400cc24 g     F .text	00000060 _write_r
04007910 g     F .text	00000018 setlocale
04015880 g     O .rwdata	00000004 _impure_ptr
040176ec g     O .bss	00000004 alt_argc
04006798 g     F .text	0000021c __sflush_r
040127a8 g     F .text	00000060 _do_dtors
040078fc g     F .text	00000008 __locale_cjk_lang
040176cc g     O .bss	00000004 rs232_dev
08020020 g       .exceptions	00000000 alt_irq_entry
040092d0 g     F .text	00000064 __ulp
04006dc8 g     F .text	00000018 __fp_unlock_all
04015894 g     O .rwdata	00000008 alt_fs_list
04011d2c g     F .text	0000005c alt_up_rs232_enable_read_interrupt
04013aec g     O .rwdata	00000011 check_wifi_get
04011ea8 g     F .text	00000040 alt_up_rs232_write_data
08020020 g       *ABS*	00000000 __ram_exceptions_start
04007928 g     F .text	0000000c localeconv
040158bc g       *ABS*	00000000 _edata
04017830 g       *ABS*	00000000 _end
0400cea0 g     F .text	00000164 __fputwc
08020248 g       *ABS*	00000000 __ram_exceptions_end
0401170c g     F .text	000000f0 altera_avalon_jtag_uart_ioctl
08020000 g       *ABS*	00000000 __alt_mem_Onchip_Memory
04009f98 g     F .text	0000007c __swrite
0401588c g     O .rwdata	00000004 __malloc_trim_threshold
040078f0 g     F .text	0000000c __locale_msgcharset
04013294 g     F .text	00000038 exit
04007794 g     F .text	000000c4 _fwalk_reent
040090d4 g     F .text	000001fc __mdiff
0400df34 g     F .text	00000074 .hidden __modsi3
08000000 g       *ABS*	00000000 __alt_data_end
08020020 g     F .exceptions	00000000 alt_exception
04006da4 g     F .text	00000004 __sfp_lock_release
040135e0 g     F .text	00000034 _exit
0401239c g     F .text	0000012c alt_alarm_start
04007934 g     F .text	000001bc __smakebuf_r
0400087c g     F .text	00000098 strlen
04012c8c g     F .text	00000154 open
0400f280 g     F .text	000000dc .hidden __gedf2
04015890 g     O .rwdata	00000004 __wctomb
0400b580 g     F .text	00000018 __sprint_r
04012898 g     F .text	00000034 alt_icache_flush_all
040158b0 g     O .rwdata	00000004 alt_priority_mask
04004ce4 g     F .text	0000001c __vfprintf_internal
0400d3a4 g     F .text	0000005c _wctomb_r
0400fb68 g     F .text	000008fc .hidden __subdf3
04008b08 g     F .text	000000b0 __lo0bits
040158b4 g     O .rwdata	00000008 alt_alarm_list
04012748 g     F .text	00000060 _do_ctors
04011de8 g     F .text	00000040 alt_up_rs232_get_used_space_in_read_FIFO
0400d2b4 g     F .text	000000c0 wcrtomb
04010708 g     F .text	000000d0 close
04010a38 g     F .text	00000084 alt_load
0400d028 g     F .text	00000080 fputwc
04006da8 g     F .text	00000004 __sinit_lock_acquire
0400887c g     F .text	00000120 __multadd
04008854 g     F .text	00000028 _Bfree



Disassembly of section .entry:

08020000 <__reset>:
#if NIOS2_ICACHE_SIZE > 0 && defined(ALT_ALLOW_CODE_AT_RESET) && (!defined(ALT_SIM_OPTIMIZE) || defined(NIOS2_ECC_PRESENT))
    /* Assume the instruction cache size is always a power of two. */
#if NIOS2_ICACHE_SIZE > 0x8000
    movhi r2, %hi(NIOS2_ICACHE_SIZE)
#else
    movui r2, NIOS2_ICACHE_SIZE
 8020000:	00840014 	movui	r2,4096
#endif

0:
    initi r2
 8020004:	1001483a 	initi	r2
    addi r2, r2, -NIOS2_ICACHE_LINE_SIZE
 8020008:	10bff804 	addi	r2,r2,-32
    bgt r2, zero, 0b
 802000c:	00bffd16 	blt	zero,r2,8020004 <__ram_exceptions_end+0xfffffdbc>
 * Jump to the _start entry point in the .text section if reset code
 * is allowed or if optimizing for RTL simulation.
 */
#if defined(ALT_ALLOW_CODE_AT_RESET) || defined(ALT_SIM_OPTIMIZE)
    /* Jump to the _start entry point in the .text section. */
    movhi r1, %hi(_start)
 8020010:	00410034 	movhi	at,1024
    ori r1, r1, %lo(_start)
 8020014:	08400014 	ori	at,at,0
    jmp r1
 8020018:	0800683a 	jmp	at
 802001c:	00000000 	call	0 <_start-0x4000000>

Disassembly of section .exceptions:

08020020 <alt_exception>:

#else /* ALT_EXCEPTION_STACK disabled */
        /* 
         * Reserve space on normal stack for registers about to be pushed.
         */
        addi  sp, sp, -76
 8020020:	deffed04 	addi	sp,sp,-76
         * documentation for details).
         *
         * Leave a gap in the stack frame at 4(sp) for the muldiv handler to
         * store zero into.
         */
        stw   ra,  0(sp)
 8020024:	dfc00015 	stw	ra,0(sp)
        stw   r1,   8(sp)
 8020028:	d8400215 	stw	at,8(sp)
        stw   r2,  12(sp)
 802002c:	d8800315 	stw	r2,12(sp)
        stw   r3,  16(sp)
 8020030:	d8c00415 	stw	r3,16(sp)
        stw   r4,  20(sp)
 8020034:	d9000515 	stw	r4,20(sp)
        stw   r5,  24(sp)
 8020038:	d9400615 	stw	r5,24(sp)
        stw   r6,  28(sp)
 802003c:	d9800715 	stw	r6,28(sp)
        stw   r7,  32(sp)
 8020040:	d9c00815 	stw	r7,32(sp)
        rdctl r5, estatus   /* Read early to avoid usage stall */
 8020044:	000b307a 	rdctl	r5,estatus
        stw   r8,  36(sp)
 8020048:	da000915 	stw	r8,36(sp)
        stw   r9,  40(sp)
 802004c:	da400a15 	stw	r9,40(sp)
        stw   r10, 44(sp)
 8020050:	da800b15 	stw	r10,44(sp)
        stw   r11, 48(sp)
 8020054:	dac00c15 	stw	r11,48(sp)
        stw   r12, 52(sp)
 8020058:	db000d15 	stw	r12,52(sp)
        stw   r13, 56(sp)
 802005c:	db400e15 	stw	r13,56(sp)
        stw   r14, 60(sp)
 8020060:	db800f15 	stw	r14,60(sp)
        stw   r15, 64(sp)
 8020064:	dbc01015 	stw	r15,64(sp)
        /*
         * ea-4 contains the address of the instruction being executed
         * when the exception occured. For interrupt exceptions, we will
         * will be re-issue the isntruction. Store it in 72(sp)
         */
        stw   r5,  68(sp)  /* estatus */
 8020068:	d9401115 	stw	r5,68(sp)
        addi  r15, ea, -4  /* instruction that caused exception */
 802006c:	ebffff04 	addi	r15,ea,-4
        stw   r15,  72(sp)
 8020070:	dbc01215 	stw	r15,72(sp)
#else
        /*
         * Test to see if the exception was a software exception or caused 
         * by an external interrupt, and vector accordingly.
         */
        rdctl r4, ipending
 8020074:	0009313a 	rdctl	r4,ipending
        andi  r2, r5, 1
 8020078:	2880004c 	andi	r2,r5,1
        beq   r2, zero, .Lnot_irq
 802007c:	10000326 	beq	r2,zero,802008c <alt_exception+0x6c>
        beq   r4, zero, .Lnot_irq
 8020080:	20000226 	beq	r4,zero,802008c <alt_exception+0x6c>
        /*
         * Now that all necessary registers have been preserved, call 
         * alt_irq_handler() to process the interrupts.
         */

        call alt_irq_handler
 8020084:	80200fc0 	call	80200fc <alt_irq_handler>

        .section .exceptions.irqreturn, "xa"

        br    .Lexception_exit
 8020088:	00000706 	br	80200a8 <alt_exception+0x88>
         * upon completion, so we write ea (address of instruction *after*
         * the one where the exception occured) into 72(sp). The actual
         * instruction that caused the exception is written in r2, which these
         * handlers will utilize.
         */
        stw ea, 72(sp) /* EA is PC+4 so will skip over instruction causing exception */
 802008c:	df401215 	stw	ea,72(sp)
.Lunknown_16bit:
        addi.n r4, r4, 2 /* Need PC+2 to skip over instruction causing exception */
        stw r4, 72(sp)

#else /* CDX is not Enabled and all instructions are 32bits */
        ldw r2, -4(ea) /* Instruction value that caused exception */
 8020090:	e8bfff17 	ldw	r2,-4(ea)
         * debugger is present) or go into an infinite loop since the
         * handling behavior is undefined; in that case we will not return here.
         */

        /* Load exception-causing address as first argument (r4) */
        addi   r4, ea, -4
 8020094:	e93fff04 	addi	r4,ea,-4

        /* Call the instruction-exception entry */
        call   alt_instruction_exception_entry
 8020098:	80201d40 	call	80201d4 <alt_instruction_exception_entry>
         * instruction
         *
         * Return code was 0: Skip. The instruction after the exception is
         * already stored in 72(sp).
         */
        bne   r2, r0, .Lexception_exit
 802009c:	1000021e 	bne	r2,zero,80200a8 <alt_exception+0x88>

        /*
         * Otherwise, modify 72(sp) to re-issue the instruction that caused the
         * exception.
         */
        addi  r15, ea, -4  /* instruction that caused exception */
 80200a0:	ebffff04 	addi	r15,ea,-4
        stw   r15,  72(sp)
 80200a4:	dbc01215 	stw	r15,72(sp)
        /* 
         * Restore the saved registers, so that all general purpose registers 
         * have been restored to their state at the time the interrupt occured.
         */

        ldw   r5,  68(sp)
 80200a8:	d9401117 	ldw	r5,68(sp)
        ldw   ea,  72(sp)  /* This becomes the PC once eret is executed */
 80200ac:	df401217 	ldw	ea,72(sp)
        ldw   ra,   0(sp)
 80200b0:	dfc00017 	ldw	ra,0(sp)

        wrctl estatus, r5
 80200b4:	2801707a 	wrctl	estatus,r5

        ldw   r1,   8(sp)
 80200b8:	d8400217 	ldw	at,8(sp)
        ldw   r2,  12(sp)
 80200bc:	d8800317 	ldw	r2,12(sp)
        ldw   r3,  16(sp)
 80200c0:	d8c00417 	ldw	r3,16(sp)
        ldw   r4,  20(sp)
 80200c4:	d9000517 	ldw	r4,20(sp)
        ldw   r5,  24(sp)
 80200c8:	d9400617 	ldw	r5,24(sp)
        ldw   r6,  28(sp)
 80200cc:	d9800717 	ldw	r6,28(sp)
        ldw   r7,  32(sp)
 80200d0:	d9c00817 	ldw	r7,32(sp)

#if defined(ALT_EXCEPTION_STACK) && defined(ALT_STACK_CHECK)
        ldw   et, %gprel(alt_exception_old_stack_limit)(gp)
#endif

        ldw   r8,  36(sp)
 80200d4:	da000917 	ldw	r8,36(sp)
        ldw   r9,  40(sp)
 80200d8:	da400a17 	ldw	r9,40(sp)
        ldw   r10, 44(sp)
 80200dc:	da800b17 	ldw	r10,44(sp)
        ldw   r11, 48(sp)
 80200e0:	dac00c17 	ldw	r11,48(sp)
        ldw   r12, 52(sp)
 80200e4:	db000d17 	ldw	r12,52(sp)
        ldw   r13, 56(sp)
 80200e8:	db400e17 	ldw	r13,56(sp)
        ldw   r14, 60(sp)
 80200ec:	db800f17 	ldw	r14,60(sp)
        ldw   r15, 64(sp)
 80200f0:	dbc01017 	ldw	r15,64(sp)
        stw   et, %gprel(alt_stack_limit_value)(gp)
        stw   zero, %gprel(alt_exception_old_stack_limit)(gp)
#endif /* ALT_STACK_CHECK */
        ldw   sp,  76(sp)
#else /* ALT_EXCEPTION_STACK disabled */
        addi  sp, sp, 76
 80200f4:	dec01304 	addi	sp,sp,76

        /*
         * Return to the interrupted instruction.
         */

        eret
 80200f8:	ef80083a 	eret

080200fc <alt_irq_handler>:
 * instruction is present if the macro ALT_CI_INTERRUPT_VECTOR defined.
 */

void alt_irq_handler (void) __attribute__ ((section (".exceptions")));
void alt_irq_handler (void)
{
 80200fc:	defff904 	addi	sp,sp,-28
 8020100:	dfc00615 	stw	ra,24(sp)
 8020104:	df000515 	stw	fp,20(sp)
 8020108:	df000504 	addi	fp,sp,20
  
  /*
   * Notify the operating system that we are at interrupt level.
   */ 
  
  ALT_OS_INT_ENTER();
 802010c:	0001883a 	nop
#ifndef NIOS2_EIC_PRESENT
static ALT_INLINE alt_u32 ALT_ALWAYS_INLINE alt_irq_pending (void)
{
  alt_u32 active;

  NIOS2_READ_IPENDING (active);
 8020110:	0005313a 	rdctl	r2,ipending
 8020114:	e0bffe15 	stw	r2,-8(fp)

  return active;
 8020118:	e0bffe17 	ldw	r2,-8(fp)
   * Consider the case where the high priority interupt is asserted during
   * the interrupt entry sequence for a lower priority interrupt to see why
   * this is the case.
   */

  active = alt_irq_pending ();
 802011c:	e0bffb15 	stw	r2,-20(fp)

  do
  {
    i = 0;
 8020120:	e03ffd15 	stw	zero,-12(fp)
    mask = 1;
 8020124:	00800044 	movi	r2,1
 8020128:	e0bffc15 	stw	r2,-16(fp)
     * called to clear the interrupt condition.
     */

    do
    {
      if (active & mask)
 802012c:	e0fffb17 	ldw	r3,-20(fp)
 8020130:	e0bffc17 	ldw	r2,-16(fp)
 8020134:	1884703a 	and	r2,r3,r2
 8020138:	10001526 	beq	r2,zero,8020190 <alt_irq_handler+0x94>
      { 
#ifdef ALT_ENHANCED_INTERRUPT_API_PRESENT
        alt_irq[i].handler(alt_irq[i].context); 
#else
        alt_irq[i].handler(alt_irq[i].context, i); 
 802013c:	00810074 	movhi	r2,1025
 8020140:	109dcc04 	addi	r2,r2,30512
 8020144:	e0fffd17 	ldw	r3,-12(fp)
 8020148:	180690fa 	slli	r3,r3,3
 802014c:	10c5883a 	add	r2,r2,r3
 8020150:	10c00017 	ldw	r3,0(r2)
 8020154:	00810074 	movhi	r2,1025
 8020158:	109dcc04 	addi	r2,r2,30512
 802015c:	e13ffd17 	ldw	r4,-12(fp)
 8020160:	200890fa 	slli	r4,r4,3
 8020164:	1105883a 	add	r2,r2,r4
 8020168:	10800104 	addi	r2,r2,4
 802016c:	10800017 	ldw	r2,0(r2)
 8020170:	e17ffd17 	ldw	r5,-12(fp)
 8020174:	1009883a 	mov	r4,r2
 8020178:	183ee83a 	callr	r3
#endif
        break;
 802017c:	0001883a 	nop
#ifndef NIOS2_EIC_PRESENT
static ALT_INLINE alt_u32 ALT_ALWAYS_INLINE alt_irq_pending (void)
{
  alt_u32 active;

  NIOS2_READ_IPENDING (active);
 8020180:	0005313a 	rdctl	r2,ipending
 8020184:	e0bfff15 	stw	r2,-4(fp)

  return active;
 8020188:	e0bfff17 	ldw	r2,-4(fp)
 802018c:	00000706 	br	80201ac <alt_irq_handler+0xb0>
      }
      mask <<= 1;
 8020190:	e0bffc17 	ldw	r2,-16(fp)
 8020194:	1085883a 	add	r2,r2,r2
 8020198:	e0bffc15 	stw	r2,-16(fp)
      i++;
 802019c:	e0bffd17 	ldw	r2,-12(fp)
 80201a0:	10800044 	addi	r2,r2,1
 80201a4:	e0bffd15 	stw	r2,-12(fp)

    } while (1);
 80201a8:	003fe006 	br	802012c <__ram_exceptions_end+0xfffffee4>

    active = alt_irq_pending ();
 80201ac:	e0bffb15 	stw	r2,-20(fp)
    
  } while (active);
 80201b0:	e0bffb17 	ldw	r2,-20(fp)
 80201b4:	103fda1e 	bne	r2,zero,8020120 <__ram_exceptions_end+0xfffffed8>

  /*
   * Notify the operating system that interrupt processing is complete.
   */ 

  ALT_OS_INT_EXIT();
 80201b8:	0001883a 	nop
}
 80201bc:	0001883a 	nop
 80201c0:	e037883a 	mov	sp,fp
 80201c4:	dfc00117 	ldw	ra,4(sp)
 80201c8:	df000017 	ldw	fp,0(sp)
 80201cc:	dec00204 	addi	sp,sp,8
 80201d0:	f800283a 	ret

080201d4 <alt_instruction_exception_entry>:
 * that handler if it has been registered. Absent a handler, it will
 * break break or hang as discussed below.
 */
int 
alt_instruction_exception_entry (alt_u32 exception_pc)
{
 80201d4:	defffb04 	addi	sp,sp,-20
 80201d8:	dfc00415 	stw	ra,16(sp)
 80201dc:	df000315 	stw	fp,12(sp)
 80201e0:	df000304 	addi	fp,sp,12
 80201e4:	e13fff15 	stw	r4,-4(fp)
 * NIOS2_EXCEPTION_CAUSE_NOT_PRESENT. Your handling routine should
 * check the validity of the cause argument before proceeding.
 */
#ifdef NIOS2_HAS_EXTRA_EXCEPTION_INFO
  /* Get exception cause & "badaddr" */
  NIOS2_READ_EXCEPTION(cause);
 80201e8:	000531fa 	rdctl	r2,exception
 80201ec:	e0bffd15 	stw	r2,-12(fp)
  cause = ( (cause & NIOS2_EXCEPTION_REG_CAUSE_MASK) >>
 80201f0:	e0bffd17 	ldw	r2,-12(fp)
 80201f4:	10801f0c 	andi	r2,r2,124
 80201f8:	1004d0ba 	srli	r2,r2,2
 80201fc:	e0bffd15 	stw	r2,-12(fp)
              NIOS2_EXCEPTION_REG_CAUSE_OFST );

  NIOS2_READ_BADADDR(badaddr);
 8020200:	0005333a 	rdctl	r2,badaddr
 8020204:	e0bffe15 	stw	r2,-8(fp)
#else
  cause = NIOS2_EXCEPTION_CAUSE_NOT_PRESENT;
  badaddr = 0;
#endif /* NIOS2_HAS_EXTRA_EXCEPTION_INFO */

  if(alt_instruction_exception_handler) {
 8020208:	d0a7a317 	ldw	r2,-24948(gp)
 802020c:	10000726 	beq	r2,zero,802022c <alt_instruction_exception_entry+0x58>
     * Call handler. Its return value indicates whether the exception-causing
     * instruction should be re-issued. The code that called us,
     * alt_eceptions_entry.S, will look at this value and adjust the ea
     * register as necessary
     */
    return alt_instruction_exception_handler(cause, exception_pc, badaddr);
 8020210:	d0a7a317 	ldw	r2,-24948(gp)
 8020214:	e0fffd17 	ldw	r3,-12(fp)
 8020218:	e1bffe17 	ldw	r6,-8(fp)
 802021c:	e17fff17 	ldw	r5,-4(fp)
 8020220:	1809883a 	mov	r4,r3
 8020224:	103ee83a 	callr	r2
 8020228:	00000206 	br	8020234 <alt_instruction_exception_entry+0x60>
   *    (a peripheral which negates its interrupt output before its
   *    interrupt handler has been executed will cause spurious interrupts)
   */
  else {
#ifdef NIOS2_HAS_DEBUG_STUB
    NIOS2_BREAK();
 802022c:	003da03a 	break	0
      ;
#endif /* NIOS2_HAS_DEBUG_STUB */
  }

  /* We should not get here. Remove compiler warning. */
  return NIOS2_EXCEPTION_RETURN_REISSUE_INST;
 8020230:	0005883a 	mov	r2,zero
}
 8020234:	e037883a 	mov	sp,fp
 8020238:	dfc00117 	ldw	ra,4(sp)
 802023c:	df000017 	ldw	fp,0(sp)
 8020240:	dec00204 	addi	sp,sp,8
 8020244:	f800283a 	ret

Disassembly of section .text:

04000000 <_start>:

    /* Assume the data cache size is always a power of two. */
#if NIOS2_DCACHE_SIZE > 0x8000
    movhi r2, %hi(NIOS2_DCACHE_SIZE)
#else
    movui r2, NIOS2_DCACHE_SIZE
 4000000:	00820014 	movui	r2,2048
#endif

0:
    initd 0(r2)
 4000004:	10000033 	initd	0(r2)
#ifdef NIOS2_ECC_PRESENT
    addi r2, r2, -4
#else
    addi r2, r2, -NIOS2_DCACHE_LINE_SIZE
 4000008:	10bff804 	addi	r2,r2,-32
#endif
    bgt r2, zero, 0b
 400000c:	00bffd16 	blt	zero,r2,4000004 <__ram_exceptions_end+0xfbfdfdbc>

    /*
     * Now that the caches are initialized, set up the stack pointer and global pointer.
     * The values provided by the linker are assumed to be correctly aligned.
     */
    movhi sp, %hi(__alt_stack_pointer)
 4000010:	06c20034 	movhi	sp,2048
    ori sp, sp, %lo(__alt_stack_pointer)
 4000014:	dec00014 	ori	sp,sp,0
    movhi gp, %hi(_gp)
 4000018:	06810074 	movhi	gp,1025
    ori gp, gp, %lo(_gp)
 400001c:	d6b61e14 	ori	gp,gp,55416
 */
#ifndef ALT_SIM_OPTIMIZE
    /* Log that the BSS is about to be cleared. */
    ALT_LOG_PUTS(alt_log_msg_bss)

    movhi r2, %hi(__bss_start)
 4000020:	00810074 	movhi	r2,1025
    ori r2, r2, %lo(__bss_start)
 4000024:	109dae14 	ori	r2,r2,30392

    movhi r3, %hi(__bss_end)
 4000028:	00c10074 	movhi	r3,1025
    ori r3, r3, %lo(__bss_end)
 400002c:	18de0c14 	ori	r3,r3,30768

    beq r2, r3, 1f
 4000030:	10c00326 	beq	r2,r3,4000040 <_start+0x40>

0:
    stw zero, (r2)
 4000034:	10000015 	stw	zero,0(r2)
    addi r2, r2, 4
 4000038:	10800104 	addi	r2,r2,4
    bltu r2, r3, 0b
 400003c:	10fffd36 	bltu	r2,r3,4000034 <__ram_exceptions_end+0xfbfdfdec>
     * section aren't defined until alt_load() has been called).
     */
    mov   et, zero
#endif

    call alt_load
 4000040:	4010a380 	call	4010a38 <alt_load>

    /* Log that alt_main is about to be called. */
    ALT_LOG_PUTS(alt_log_msg_alt_main)

    /* Call the C entry point. It should never return. */
    call alt_main
 4000044:	4010bcc0 	call	4010bcc <alt_main>

04000048 <alt_after_alt_main>:

    /* Wait in infinite loop in case alt_main does return. */
alt_after_alt_main:
    br alt_after_alt_main
 4000048:	003fff06 	br	4000048 <__ram_exceptions_end+0xfbfdfe00>

0400004c <main>:
alt_u8 data_R8;

alt_up_char_buffer_dev* char_buffer;


int main() {
 400004c:	defffe04 	addi	sp,sp,-8
 4000050:	dfc00115 	stw	ra,4(sp)
 4000054:	df000015 	stw	fp,0(sp)
 4000058:	d839883a 	mov	fp,sp
	printf("TESTING\n");
 400005c:	01010074 	movhi	r4,1025
 4000060:	210d8504 	addi	r4,r4,13844
 4000064:	40006c80 	call	40006c8 <puts>
	display_question();
 4000068:	40003280 	call	4000328 <display_question>
	rs232_dev = alt_up_rs232_open_dev("/dev/WIFI_Serial_Port");
 400006c:	01010074 	movhi	r4,1025
 4000070:	210d8704 	addi	r4,r4,13852
 4000074:	40120800 	call	4012080 <alt_up_rs232_open_dev>
 4000078:	d0a79515 	stw	r2,-25004(gp)

	if(rs232_dev == NULL) {
 400007c:	d0a79517 	ldw	r2,-25004(gp)
 4000080:	1000041e 	bne	r2,zero,4000094 <main+0x48>
		printf("Failed to open Wifi device\n");
 4000084:	01010074 	movhi	r4,1025
 4000088:	210d8d04 	addi	r4,r4,13876
 400008c:	40006c80 	call	40006c8 <puts>
 4000090:	00000306 	br	40000a0 <main+0x54>
	} else {
		printf("Opened Wifi device\n");
 4000094:	01010074 	movhi	r4,1025
 4000098:	210d9404 	addi	r4,r4,13904
 400009c:	40006c80 	call	40006c8 <puts>
	}

	alt_up_rs232_enable_read_interrupt(rs232_dev);
 40000a0:	d0a79517 	ldw	r2,-25004(gp)
 40000a4:	1009883a 	mov	r4,r2
 40000a8:	4011d2c0 	call	4011d2c <alt_up_rs232_enable_read_interrupt>

	//write_data(node_start);
	write_data(dofile);
 40000ac:	01010074 	movhi	r4,1025
 40000b0:	210eb404 	addi	r4,r4,15056
 40000b4:	40001340 	call	4000134 <write_data>
	usleep(10000000);
 40000b8:	01002674 	movhi	r4,153
 40000bc:	2125a004 	addi	r4,r4,-27008
 40000c0:	4010edc0 	call	4010edc <usleep>
	//read_data();
	write_data(check_wifi_get);
 40000c4:	01010074 	movhi	r4,1025
 40000c8:	210ebb04 	addi	r4,r4,15084
 40000cc:	40001340 	call	4000134 <write_data>
	//write_data(led);
	usleep(5000000);
 40000d0:	01001334 	movhi	r4,76
 40000d4:	2112d004 	addi	r4,r4,19264
 40000d8:	4010edc0 	call	4010edc <usleep>
	read_data();
 40000dc:	40002200 	call	4000220 <read_data>
	//usleep(5000000);
	printf("\nDONE GET\n");
 40000e0:	01010074 	movhi	r4,1025
 40000e4:	210d9904 	addi	r4,r4,13924
 40000e8:	40006c80 	call	40006c8 <puts>
	press_button();
 40000ec:	40005040 	call	4000504 <press_button>

	printf("\noutput: \n");
 40000f0:	01010074 	movhi	r4,1025
 40000f4:	210d9c04 	addi	r4,r4,13936
 40000f8:	40006c80 	call	40006c8 <puts>
	printf("%s", output);
 40000fc:	01410074 	movhi	r5,1025
 4000100:	294eca04 	addi	r5,r5,15144
 4000104:	01010074 	movhi	r4,1025
 4000108:	210d9f04 	addi	r4,r4,13948
 400010c:	40005ac0 	call	40005ac <printf>
	//display_question();
	printf("\nFinished\n");
 4000110:	01010074 	movhi	r4,1025
 4000114:	210da004 	addi	r4,r4,13952
 4000118:	40006c80 	call	40006c8 <puts>



    return 0;
 400011c:	0005883a 	mov	r2,zero
}
 4000120:	e037883a 	mov	sp,fp
 4000124:	dfc00117 	ldw	ra,4(sp)
 4000128:	df000017 	ldw	fp,0(sp)
 400012c:	dec00204 	addi	sp,sp,8
 4000130:	f800283a 	ret

04000134 <write_data>:

void write_data(char *function) {
 4000134:	defffc04 	addi	sp,sp,-16
 4000138:	dfc00315 	stw	ra,12(sp)
 400013c:	df000215 	stw	fp,8(sp)
 4000140:	df000204 	addi	fp,sp,8
 4000144:	e13fff15 	stw	r4,-4(fp)
	alt_up_rs232_disable_read_interrupt(rs232_dev);
 4000148:	d0a79517 	ldw	r2,-25004(gp)
 400014c:	1009883a 	mov	r4,r2
 4000150:	4011d880 	call	4011d88 <alt_up_rs232_disable_read_interrupt>
	printf("Writing\n");
 4000154:	01010074 	movhi	r4,1025
 4000158:	210da304 	addi	r4,r4,13964
 400015c:	40006c80 	call	40006c8 <puts>
	for (int i = 0; function[i] != '\0'; i++) {
 4000160:	e03ffe15 	stw	zero,-8(fp)
 4000164:	00001506 	br	40001bc <write_data+0x88>
		data_W8 = function[i];
 4000168:	e0bffe17 	ldw	r2,-8(fp)
 400016c:	e0ffff17 	ldw	r3,-4(fp)
 4000170:	1885883a 	add	r2,r3,r2
 4000174:	10800003 	ldbu	r2,0(r2)
 4000178:	d0a79045 	stb	r2,-25023(gp)
		if(alt_up_rs232_write_data(rs232_dev, data_W8) == 0) {
 400017c:	d0a79517 	ldw	r2,-25004(gp)
 4000180:	d0e79043 	ldbu	r3,-25023(gp)
 4000184:	18c03fcc 	andi	r3,r3,255
 4000188:	180b883a 	mov	r5,r3
 400018c:	1009883a 	mov	r4,r2
 4000190:	4011ea80 	call	4011ea8 <alt_up_rs232_write_data>
 4000194:	1000061e 	bne	r2,zero,40001b0 <write_data+0x7c>
			printf("Write %c\n", data_W8);
 4000198:	d0a79043 	ldbu	r2,-25023(gp)
 400019c:	10803fcc 	andi	r2,r2,255
 40001a0:	100b883a 	mov	r5,r2
 40001a4:	01010074 	movhi	r4,1025
 40001a8:	210da504 	addi	r4,r4,13972
 40001ac:	40005ac0 	call	40005ac <printf>
}

void write_data(char *function) {
	alt_up_rs232_disable_read_interrupt(rs232_dev);
	printf("Writing\n");
	for (int i = 0; function[i] != '\0'; i++) {
 40001b0:	e0bffe17 	ldw	r2,-8(fp)
 40001b4:	10800044 	addi	r2,r2,1
 40001b8:	e0bffe15 	stw	r2,-8(fp)
 40001bc:	e0bffe17 	ldw	r2,-8(fp)
 40001c0:	e0ffff17 	ldw	r3,-4(fp)
 40001c4:	1885883a 	add	r2,r3,r2
 40001c8:	10800003 	ldbu	r2,0(r2)
 40001cc:	10803fcc 	andi	r2,r2,255
 40001d0:	1080201c 	xori	r2,r2,128
 40001d4:	10bfe004 	addi	r2,r2,-128
 40001d8:	103fe31e 	bne	r2,zero,4000168 <__ram_exceptions_end+0xfbfdff20>
		data_W8 = function[i];
		if(alt_up_rs232_write_data(rs232_dev, data_W8) == 0) {
			printf("Write %c\n", data_W8);
		}
	}
	data_W8 = '\n';
 40001dc:	00800284 	movi	r2,10
 40001e0:	d0a79045 	stb	r2,-25023(gp)
	alt_up_rs232_write_data(rs232_dev, data_W8);
 40001e4:	d0a79517 	ldw	r2,-25004(gp)
 40001e8:	d0e79043 	ldbu	r3,-25023(gp)
 40001ec:	18c03fcc 	andi	r3,r3,255
 40001f0:	180b883a 	mov	r5,r3
 40001f4:	1009883a 	mov	r4,r2
 40001f8:	4011ea80 	call	4011ea8 <alt_up_rs232_write_data>

	//printf("%d", stat);
	//printf("Write %c\n", data_W8);
	alt_up_rs232_enable_read_interrupt(rs232_dev);
 40001fc:	d0a79517 	ldw	r2,-25004(gp)
 4000200:	1009883a 	mov	r4,r2
 4000204:	4011d2c0 	call	4011d2c <alt_up_rs232_enable_read_interrupt>
}
 4000208:	0001883a 	nop
 400020c:	e037883a 	mov	sp,fp
 4000210:	dfc00117 	ldw	ra,4(sp)
 4000214:	df000017 	ldw	fp,0(sp)
 4000218:	dec00204 	addi	sp,sp,8
 400021c:	f800283a 	ret

04000220 <read_data>:

void read_data() {
 4000220:	defffb04 	addi	sp,sp,-20
 4000224:	dfc00415 	stw	ra,16(sp)
 4000228:	df000315 	stw	fp,12(sp)
 400022c:	df000304 	addi	fp,sp,12
	printf("Reading\n");
 4000230:	01010074 	movhi	r4,1025
 4000234:	210da804 	addi	r4,r4,13984
 4000238:	40006c80 	call	40006c8 <puts>
	read_FIFO_used = alt_up_rs232_get_used_space_in_read_FIFO(rs232_dev);
 400023c:	d0a79517 	ldw	r2,-25004(gp)
 4000240:	1009883a 	mov	r4,r2
 4000244:	4011de80 	call	4011de8 <alt_up_rs232_get_used_space_in_read_FIFO>
 4000248:	d0a7940d 	sth	r2,-25008(gp)
	while(read_FIFO_used > 0){
 400024c:	00002d06 	br	4000304 <read_data+0xe4>
		int record = 0;
 4000250:	e03ffd15 	stw	zero,-12(fp)
		int i = 0;
 4000254:	e03ffe15 	stw	zero,-8(fp)
		alt_up_rs232_read_data(rs232_dev, &data_R8, &parity);
 4000258:	d0a79517 	ldw	r2,-25004(gp)
 400025c:	d1a79004 	addi	r6,gp,-25024
 4000260:	d1679204 	addi	r5,gp,-25016
 4000264:	1009883a 	mov	r4,r2
 4000268:	4011ee80 	call	4011ee8 <alt_up_rs232_read_data>
		char str[2];
		sprintf(str, "%c", data_R8);
 400026c:	d0a79203 	ldbu	r2,-25016(gp)
 4000270:	10c03fcc 	andi	r3,r2,255
 4000274:	e0bfff04 	addi	r2,fp,-4
 4000278:	180d883a 	mov	r6,r3
 400027c:	01410074 	movhi	r5,1025
 4000280:	294daa04 	addi	r5,r5,13992
 4000284:	1009883a 	mov	r4,r2
 4000288:	40007340 	call	4000734 <sprintf>
		if(strcmp(str, "@") == 0) {
 400028c:	e0bfff04 	addi	r2,fp,-4
 4000290:	01410074 	movhi	r5,1025
 4000294:	294dab04 	addi	r5,r5,13996
 4000298:	1009883a 	mov	r4,r2
 400029c:	40007a00 	call	40007a0 <strcmp>
 40002a0:	1000061e 	bne	r2,zero,40002bc <read_data+0x9c>
			record = 1;
 40002a4:	00800044 	movi	r2,1
 40002a8:	e0bffd15 	stw	r2,-12(fp)
			printf("RECORD\n");
 40002ac:	01010074 	movhi	r4,1025
 40002b0:	210dac04 	addi	r4,r4,14000
 40002b4:	40006c80 	call	40006c8 <puts>
 40002b8:	00000a06 	br	40002e4 <read_data+0xc4>
		} else if(record == 1) {
 40002bc:	e0bffd17 	ldw	r2,-12(fp)
 40002c0:	10800058 	cmpnei	r2,r2,1
 40002c4:	1000071e 	bne	r2,zero,40002e4 <read_data+0xc4>
			//sprintf(output, "%s%c", output, data_R8);
			output[i] = data_R8;
 40002c8:	d0a79203 	ldbu	r2,-25016(gp)
 40002cc:	1009883a 	mov	r4,r2
 40002d0:	00810074 	movhi	r2,1025
 40002d4:	108eca04 	addi	r2,r2,15144
 40002d8:	e0fffe17 	ldw	r3,-8(fp)
 40002dc:	10c5883a 	add	r2,r2,r3
 40002e0:	11000005 	stb	r4,0(r2)
		}

		printf("%c", data_R8);
 40002e4:	d0a79203 	ldbu	r2,-25016(gp)
 40002e8:	10803fcc 	andi	r2,r2,255
 40002ec:	1009883a 	mov	r4,r2
 40002f0:	40005f00 	call	40005f0 <putchar>
		//printf("%d\n", read_FIFO_used);
		read_FIFO_used = alt_up_rs232_get_used_space_in_read_FIFO(rs232_dev);
 40002f4:	d0a79517 	ldw	r2,-25004(gp)
 40002f8:	1009883a 	mov	r4,r2
 40002fc:	4011de80 	call	4011de8 <alt_up_rs232_get_used_space_in_read_FIFO>
 4000300:	d0a7940d 	sth	r2,-25008(gp)
}

void read_data() {
	printf("Reading\n");
	read_FIFO_used = alt_up_rs232_get_used_space_in_read_FIFO(rs232_dev);
	while(read_FIFO_used > 0){
 4000304:	d0a7940b 	ldhu	r2,-25008(gp)
 4000308:	10bfffcc 	andi	r2,r2,65535
 400030c:	103fd01e 	bne	r2,zero,4000250 <__ram_exceptions_end+0xfbfe0008>
		printf("%c", data_R8);
		//printf("%d\n", read_FIFO_used);
		read_FIFO_used = alt_up_rs232_get_used_space_in_read_FIFO(rs232_dev);

	}
}
 4000310:	0001883a 	nop
 4000314:	e037883a 	mov	sp,fp
 4000318:	dfc00117 	ldw	ra,4(sp)
 400031c:	df000017 	ldw	fp,0(sp)
 4000320:	dec00204 	addi	sp,sp,8
 4000324:	f800283a 	ret

04000328 <display_question>:

void display_question() {
 4000328:	defff704 	addi	sp,sp,-36
 400032c:	dfc00815 	stw	ra,32(sp)
 4000330:	df000715 	stw	fp,28(sp)
 4000334:	df000704 	addi	fp,sp,28
	char_buffer = alt_up_char_buffer_open_dev("/dev/Char_Buffer");
 4000338:	01010074 	movhi	r4,1025
 400033c:	210dae04 	addi	r4,r4,14008
 4000340:	401213c0 	call	401213c <alt_up_char_buffer_open_dev>
 4000344:	d0a79115 	stw	r2,-25020(gp)
	if(char_buffer == NULL) {
 4000348:	d0a79117 	ldw	r2,-25020(gp)
 400034c:	1000041e 	bne	r2,zero,4000360 <display_question+0x38>
		printf("Failed to open Char buffer\n");
 4000350:	01010074 	movhi	r4,1025
 4000354:	210db304 	addi	r4,r4,14028
 4000358:	40006c80 	call	40006c8 <puts>
 400035c:	00000306 	br	400036c <display_question+0x44>
	} else {
		printf("Opened Char Buffer\n");
 4000360:	01010074 	movhi	r4,1025
 4000364:	210dba04 	addi	r4,r4,14056
 4000368:	40006c80 	call	40006c8 <puts>
	}
	char question[20] = "Question 1:";
 400036c:	00801444 	movi	r2,81
 4000370:	e0bffa45 	stb	r2,-23(fp)
 4000374:	00801d44 	movi	r2,117
 4000378:	e0bffa85 	stb	r2,-22(fp)
 400037c:	00801944 	movi	r2,101
 4000380:	e0bffac5 	stb	r2,-21(fp)
 4000384:	00801cc4 	movi	r2,115
 4000388:	e0bffb05 	stb	r2,-20(fp)
 400038c:	00801d04 	movi	r2,116
 4000390:	e0bffb45 	stb	r2,-19(fp)
 4000394:	00801a44 	movi	r2,105
 4000398:	e0bffb85 	stb	r2,-18(fp)
 400039c:	00801bc4 	movi	r2,111
 40003a0:	e0bffbc5 	stb	r2,-17(fp)
 40003a4:	00801b84 	movi	r2,110
 40003a8:	e0bffc05 	stb	r2,-16(fp)
 40003ac:	00800804 	movi	r2,32
 40003b0:	e0bffc45 	stb	r2,-15(fp)
 40003b4:	00800c44 	movi	r2,49
 40003b8:	e0bffc85 	stb	r2,-14(fp)
 40003bc:	00800e84 	movi	r2,58
 40003c0:	e0bffcc5 	stb	r2,-13(fp)
 40003c4:	e03ffd05 	stb	zero,-12(fp)
 40003c8:	e03ffd45 	stb	zero,-11(fp)
 40003cc:	e03ffd85 	stb	zero,-10(fp)
 40003d0:	e03ffdc5 	stb	zero,-9(fp)
 40003d4:	e03ffe05 	stb	zero,-8(fp)
 40003d8:	e03ffe45 	stb	zero,-7(fp)
 40003dc:	e03ffe85 	stb	zero,-6(fp)
 40003e0:	e03ffec5 	stb	zero,-5(fp)
 40003e4:	e03fff05 	stb	zero,-4(fp)

	char border = 'X';
 40003e8:	00801604 	movi	r2,88
 40003ec:	e0bffa05 	stb	r2,-24(fp)
	alt_up_char_buffer_clear(char_buffer);
 40003f0:	d0a79117 	ldw	r2,-25020(gp)
 40003f4:	1009883a 	mov	r4,r2
 40003f8:	40123400 	call	4012340 <alt_up_char_buffer_clear>
	alt_up_char_buffer_draw(char_buffer, border, 0, 0);
 40003fc:	d0a79117 	ldw	r2,-25020(gp)
 4000400:	e0fffa03 	ldbu	r3,-24(fp)
 4000404:	18c03fcc 	andi	r3,r3,255
 4000408:	000f883a 	mov	r7,zero
 400040c:	000d883a 	mov	r6,zero
 4000410:	180b883a 	mov	r5,r3
 4000414:	1009883a 	mov	r4,r2
 4000418:	40121780 	call	4012178 <alt_up_char_buffer_draw>
	alt_up_char_buffer_draw(char_buffer, border, 0, 59);
 400041c:	d0a79117 	ldw	r2,-25020(gp)
 4000420:	e0fffa03 	ldbu	r3,-24(fp)
 4000424:	18c03fcc 	andi	r3,r3,255
 4000428:	01c00ec4 	movi	r7,59
 400042c:	000d883a 	mov	r6,zero
 4000430:	180b883a 	mov	r5,r3
 4000434:	1009883a 	mov	r4,r2
 4000438:	40121780 	call	4012178 <alt_up_char_buffer_draw>
	alt_up_char_buffer_draw(char_buffer, border, 79, 0);
 400043c:	d0a79117 	ldw	r2,-25020(gp)
 4000440:	e0fffa03 	ldbu	r3,-24(fp)
 4000444:	18c03fcc 	andi	r3,r3,255
 4000448:	000f883a 	mov	r7,zero
 400044c:	018013c4 	movi	r6,79
 4000450:	180b883a 	mov	r5,r3
 4000454:	1009883a 	mov	r4,r2
 4000458:	40121780 	call	4012178 <alt_up_char_buffer_draw>
	alt_up_char_buffer_draw(char_buffer, border, 79, 59);
 400045c:	d0a79117 	ldw	r2,-25020(gp)
 4000460:	e0fffa03 	ldbu	r3,-24(fp)
 4000464:	18c03fcc 	andi	r3,r3,255
 4000468:	01c00ec4 	movi	r7,59
 400046c:	018013c4 	movi	r6,79
 4000470:	180b883a 	mov	r5,r3
 4000474:	1009883a 	mov	r4,r2
 4000478:	40121780 	call	4012178 <alt_up_char_buffer_draw>
	alt_up_char_buffer_string(char_buffer, question, 30, 30);
 400047c:	d0a79117 	ldw	r2,-25020(gp)
 4000480:	e0fffa44 	addi	r3,fp,-23
 4000484:	01c00784 	movi	r7,30
 4000488:	01800784 	movi	r6,30
 400048c:	180b883a 	mov	r5,r3
 4000490:	1009883a 	mov	r4,r2
 4000494:	40122440 	call	4012244 <alt_up_char_buffer_string>
	for(int i = 0; i < 10; i++) {
 4000498:	e03ff915 	stw	zero,-28(fp)
 400049c:	00000d06 	br	40004d4 <display_question+0x1ac>
		question[9] = i + '0';
 40004a0:	e0bff917 	ldw	r2,-28(fp)
 40004a4:	10800c04 	addi	r2,r2,48
 40004a8:	e0bffc85 	stb	r2,-14(fp)
		alt_up_char_buffer_string(char_buffer, question, 30, 30);
 40004ac:	d0a79117 	ldw	r2,-25020(gp)
 40004b0:	e0fffa44 	addi	r3,fp,-23
 40004b4:	01c00784 	movi	r7,30
 40004b8:	01800784 	movi	r6,30
 40004bc:	180b883a 	mov	r5,r3
 40004c0:	1009883a 	mov	r4,r2
 40004c4:	40122440 	call	4012244 <alt_up_char_buffer_string>
	alt_up_char_buffer_draw(char_buffer, border, 0, 0);
	alt_up_char_buffer_draw(char_buffer, border, 0, 59);
	alt_up_char_buffer_draw(char_buffer, border, 79, 0);
	alt_up_char_buffer_draw(char_buffer, border, 79, 59);
	alt_up_char_buffer_string(char_buffer, question, 30, 30);
	for(int i = 0; i < 10; i++) {
 40004c8:	e0bff917 	ldw	r2,-28(fp)
 40004cc:	10800044 	addi	r2,r2,1
 40004d0:	e0bff915 	stw	r2,-28(fp)
 40004d4:	e0bff917 	ldw	r2,-28(fp)
 40004d8:	10800290 	cmplti	r2,r2,10
 40004dc:	103ff01e 	bne	r2,zero,40004a0 <__ram_exceptions_end+0xfbfe0258>
		alt_up_char_buffer_string(char_buffer, question, 30, 30);
		//usleep(1000000);
	}


	printf("Displayed questioned\n");
 40004e0:	01010074 	movhi	r4,1025
 40004e4:	210dbf04 	addi	r4,r4,14076
 40004e8:	40006c80 	call	40006c8 <puts>
}
 40004ec:	0001883a 	nop
 40004f0:	e037883a 	mov	sp,fp
 40004f4:	dfc00117 	ldw	ra,4(sp)
 40004f8:	df000017 	ldw	fp,0(sp)
 40004fc:	dec00204 	addi	sp,sp,8
 4000500:	f800283a 	ret

04000504 <press_button>:

void press_button() {
 4000504:	defffd04 	addi	sp,sp,-12
 4000508:	dfc00215 	stw	ra,8(sp)
 400050c:	df000115 	stw	fp,4(sp)
 4000510:	df000104 	addi	fp,sp,4
	int j = 0;
 4000514:	e03fff15 	stw	zero,-4(fp)
	while(j == 0) {
 4000518:	00001006 	br	400055c <press_button+0x58>
		if(IORD_ALTERA_AVALON_PIO_DATA(BUTTON_1_BASE) == 0) {
 400051c:	00820134 	movhi	r2,2052
 4000520:	108c1c04 	addi	r2,r2,12400
 4000524:	10800037 	ldwio	r2,0(r2)
 4000528:	10000c1e 	bne	r2,zero,400055c <press_button+0x58>
			printf("Button Pressed\n");
 400052c:	01010074 	movhi	r4,1025
 4000530:	210dc504 	addi	r4,r4,14100
 4000534:	40006c80 	call	40006c8 <puts>
			j = 1;
 4000538:	00800044 	movi	r2,1
 400053c:	e0bfff15 	stw	r2,-4(fp)
			write_data(check_wifi);
 4000540:	01010074 	movhi	r4,1025
 4000544:	210ec004 	addi	r4,r4,15104
 4000548:	40001340 	call	4000134 <write_data>
			usleep(5000000);
 400054c:	01001334 	movhi	r4,76
 4000550:	2112d004 	addi	r4,r4,19264
 4000554:	4010edc0 	call	4010edc <usleep>
			read_data();
 4000558:	40002200 	call	4000220 <read_data>
	printf("Displayed questioned\n");
}

void press_button() {
	int j = 0;
	while(j == 0) {
 400055c:	e0bfff17 	ldw	r2,-4(fp)
 4000560:	103fee26 	beq	r2,zero,400051c <__ram_exceptions_end+0xfbfe02d4>
			write_data(check_wifi);
			usleep(5000000);
			read_data();
		}
	}
}
 4000564:	0001883a 	nop
 4000568:	e037883a 	mov	sp,fp
 400056c:	dfc00117 	ldw	ra,4(sp)
 4000570:	df000017 	ldw	fp,0(sp)
 4000574:	dec00204 	addi	sp,sp,8
 4000578:	f800283a 	ret

0400057c <_printf_r>:
 400057c:	defffd04 	addi	sp,sp,-12
 4000580:	2805883a 	mov	r2,r5
 4000584:	dfc00015 	stw	ra,0(sp)
 4000588:	d9800115 	stw	r6,4(sp)
 400058c:	d9c00215 	stw	r7,8(sp)
 4000590:	21400217 	ldw	r5,8(r4)
 4000594:	d9c00104 	addi	r7,sp,4
 4000598:	100d883a 	mov	r6,r2
 400059c:	4002aec0 	call	4002aec <___vfprintf_internal_r>
 40005a0:	dfc00017 	ldw	ra,0(sp)
 40005a4:	dec00304 	addi	sp,sp,12
 40005a8:	f800283a 	ret

040005ac <printf>:
 40005ac:	defffc04 	addi	sp,sp,-16
 40005b0:	dfc00015 	stw	ra,0(sp)
 40005b4:	d9400115 	stw	r5,4(sp)
 40005b8:	d9800215 	stw	r6,8(sp)
 40005bc:	d9c00315 	stw	r7,12(sp)
 40005c0:	00810074 	movhi	r2,1025
 40005c4:	10962004 	addi	r2,r2,22656
 40005c8:	10800017 	ldw	r2,0(r2)
 40005cc:	200b883a 	mov	r5,r4
 40005d0:	d9800104 	addi	r6,sp,4
 40005d4:	11000217 	ldw	r4,8(r2)
 40005d8:	4004ce40 	call	4004ce4 <__vfprintf_internal>
 40005dc:	dfc00017 	ldw	ra,0(sp)
 40005e0:	dec00404 	addi	sp,sp,16
 40005e4:	f800283a 	ret

040005e8 <_putchar_r>:
 40005e8:	21800217 	ldw	r6,8(r4)
 40005ec:	40097a81 	jmpi	40097a8 <_putc_r>

040005f0 <putchar>:
 40005f0:	00810074 	movhi	r2,1025
 40005f4:	10962004 	addi	r2,r2,22656
 40005f8:	200b883a 	mov	r5,r4
 40005fc:	11000017 	ldw	r4,0(r2)
 4000600:	21800217 	ldw	r6,8(r4)
 4000604:	40097a81 	jmpi	40097a8 <_putc_r>

04000608 <_puts_r>:
 4000608:	defff604 	addi	sp,sp,-40
 400060c:	dc000715 	stw	r16,28(sp)
 4000610:	2021883a 	mov	r16,r4
 4000614:	2809883a 	mov	r4,r5
 4000618:	dc400815 	stw	r17,32(sp)
 400061c:	dfc00915 	stw	ra,36(sp)
 4000620:	2823883a 	mov	r17,r5
 4000624:	400087c0 	call	400087c <strlen>
 4000628:	10c00044 	addi	r3,r2,1
 400062c:	d8800115 	stw	r2,4(sp)
 4000630:	00810074 	movhi	r2,1025
 4000634:	108dc904 	addi	r2,r2,14116
 4000638:	d8800215 	stw	r2,8(sp)
 400063c:	00800044 	movi	r2,1
 4000640:	d8800315 	stw	r2,12(sp)
 4000644:	00800084 	movi	r2,2
 4000648:	dc400015 	stw	r17,0(sp)
 400064c:	d8c00615 	stw	r3,24(sp)
 4000650:	dec00415 	stw	sp,16(sp)
 4000654:	d8800515 	stw	r2,20(sp)
 4000658:	80000226 	beq	r16,zero,4000664 <_puts_r+0x5c>
 400065c:	80800e17 	ldw	r2,56(r16)
 4000660:	10001426 	beq	r2,zero,40006b4 <_puts_r+0xac>
 4000664:	81400217 	ldw	r5,8(r16)
 4000668:	2880030b 	ldhu	r2,12(r5)
 400066c:	10c8000c 	andi	r3,r2,8192
 4000670:	1800061e 	bne	r3,zero,400068c <_puts_r+0x84>
 4000674:	29001917 	ldw	r4,100(r5)
 4000678:	00f7ffc4 	movi	r3,-8193
 400067c:	10880014 	ori	r2,r2,8192
 4000680:	20c6703a 	and	r3,r4,r3
 4000684:	2880030d 	sth	r2,12(r5)
 4000688:	28c01915 	stw	r3,100(r5)
 400068c:	d9800404 	addi	r6,sp,16
 4000690:	8009883a 	mov	r4,r16
 4000694:	40072140 	call	4007214 <__sfvwrite_r>
 4000698:	1000091e 	bne	r2,zero,40006c0 <_puts_r+0xb8>
 400069c:	00800284 	movi	r2,10
 40006a0:	dfc00917 	ldw	ra,36(sp)
 40006a4:	dc400817 	ldw	r17,32(sp)
 40006a8:	dc000717 	ldw	r16,28(sp)
 40006ac:	dec00a04 	addi	sp,sp,40
 40006b0:	f800283a 	ret
 40006b4:	8009883a 	mov	r4,r16
 40006b8:	4006d900 	call	4006d90 <__sinit>
 40006bc:	003fe906 	br	4000664 <__ram_exceptions_end+0xfbfe041c>
 40006c0:	00bfffc4 	movi	r2,-1
 40006c4:	003ff606 	br	40006a0 <__ram_exceptions_end+0xfbfe0458>

040006c8 <puts>:
 40006c8:	00810074 	movhi	r2,1025
 40006cc:	10962004 	addi	r2,r2,22656
 40006d0:	200b883a 	mov	r5,r4
 40006d4:	11000017 	ldw	r4,0(r2)
 40006d8:	40006081 	jmpi	4000608 <_puts_r>

040006dc <_sprintf_r>:
 40006dc:	deffe404 	addi	sp,sp,-112
 40006e0:	2807883a 	mov	r3,r5
 40006e4:	dfc01a15 	stw	ra,104(sp)
 40006e8:	d9c01b15 	stw	r7,108(sp)
 40006ec:	00a00034 	movhi	r2,32768
 40006f0:	10bfffc4 	addi	r2,r2,-1
 40006f4:	02008204 	movi	r8,520
 40006f8:	d8800215 	stw	r2,8(sp)
 40006fc:	d8800515 	stw	r2,20(sp)
 4000700:	d9c01b04 	addi	r7,sp,108
 4000704:	d80b883a 	mov	r5,sp
 4000708:	00bfffc4 	movi	r2,-1
 400070c:	d8c00015 	stw	r3,0(sp)
 4000710:	d8c00415 	stw	r3,16(sp)
 4000714:	da00030d 	sth	r8,12(sp)
 4000718:	d880038d 	sth	r2,14(sp)
 400071c:	40009140 	call	4000914 <___svfprintf_internal_r>
 4000720:	d8c00017 	ldw	r3,0(sp)
 4000724:	18000005 	stb	zero,0(r3)
 4000728:	dfc01a17 	ldw	ra,104(sp)
 400072c:	dec01c04 	addi	sp,sp,112
 4000730:	f800283a 	ret

04000734 <sprintf>:
 4000734:	deffe304 	addi	sp,sp,-116
 4000738:	2007883a 	mov	r3,r4
 400073c:	dfc01a15 	stw	ra,104(sp)
 4000740:	d9801b15 	stw	r6,108(sp)
 4000744:	d9c01c15 	stw	r7,112(sp)
 4000748:	01010074 	movhi	r4,1025
 400074c:	21162004 	addi	r4,r4,22656
 4000750:	21000017 	ldw	r4,0(r4)
 4000754:	00a00034 	movhi	r2,32768
 4000758:	10bfffc4 	addi	r2,r2,-1
 400075c:	280d883a 	mov	r6,r5
 4000760:	02008204 	movi	r8,520
 4000764:	d8800215 	stw	r2,8(sp)
 4000768:	d8800515 	stw	r2,20(sp)
 400076c:	d9c01b04 	addi	r7,sp,108
 4000770:	d80b883a 	mov	r5,sp
 4000774:	00bfffc4 	movi	r2,-1
 4000778:	d8c00015 	stw	r3,0(sp)
 400077c:	d8c00415 	stw	r3,16(sp)
 4000780:	da00030d 	sth	r8,12(sp)
 4000784:	d880038d 	sth	r2,14(sp)
 4000788:	40009140 	call	4000914 <___svfprintf_internal_r>
 400078c:	d8c00017 	ldw	r3,0(sp)
 4000790:	18000005 	stb	zero,0(r3)
 4000794:	dfc01a17 	ldw	ra,104(sp)
 4000798:	dec01d04 	addi	sp,sp,116
 400079c:	f800283a 	ret

040007a0 <strcmp>:
 40007a0:	2144b03a 	or	r2,r4,r5
 40007a4:	108000cc 	andi	r2,r2,3
 40007a8:	1000171e 	bne	r2,zero,4000808 <strcmp+0x68>
 40007ac:	20800017 	ldw	r2,0(r4)
 40007b0:	28c00017 	ldw	r3,0(r5)
 40007b4:	10c0141e 	bne	r2,r3,4000808 <strcmp+0x68>
 40007b8:	027fbff4 	movhi	r9,65279
 40007bc:	4a7fbfc4 	addi	r9,r9,-257
 40007c0:	0086303a 	nor	r3,zero,r2
 40007c4:	02202074 	movhi	r8,32897
 40007c8:	1245883a 	add	r2,r2,r9
 40007cc:	42202004 	addi	r8,r8,-32640
 40007d0:	10c4703a 	and	r2,r2,r3
 40007d4:	1204703a 	and	r2,r2,r8
 40007d8:	10000226 	beq	r2,zero,40007e4 <strcmp+0x44>
 40007dc:	00002306 	br	400086c <strcmp+0xcc>
 40007e0:	1000221e 	bne	r2,zero,400086c <strcmp+0xcc>
 40007e4:	21000104 	addi	r4,r4,4
 40007e8:	20c00017 	ldw	r3,0(r4)
 40007ec:	29400104 	addi	r5,r5,4
 40007f0:	29800017 	ldw	r6,0(r5)
 40007f4:	1a4f883a 	add	r7,r3,r9
 40007f8:	00c4303a 	nor	r2,zero,r3
 40007fc:	3884703a 	and	r2,r7,r2
 4000800:	1204703a 	and	r2,r2,r8
 4000804:	19bff626 	beq	r3,r6,40007e0 <__ram_exceptions_end+0xfbfe0598>
 4000808:	20800003 	ldbu	r2,0(r4)
 400080c:	10c03fcc 	andi	r3,r2,255
 4000810:	18c0201c 	xori	r3,r3,128
 4000814:	18ffe004 	addi	r3,r3,-128
 4000818:	18000c26 	beq	r3,zero,400084c <strcmp+0xac>
 400081c:	29800007 	ldb	r6,0(r5)
 4000820:	19800326 	beq	r3,r6,4000830 <strcmp+0x90>
 4000824:	00001306 	br	4000874 <strcmp+0xd4>
 4000828:	29800007 	ldb	r6,0(r5)
 400082c:	11800b1e 	bne	r2,r6,400085c <strcmp+0xbc>
 4000830:	21000044 	addi	r4,r4,1
 4000834:	20c00003 	ldbu	r3,0(r4)
 4000838:	29400044 	addi	r5,r5,1
 400083c:	18803fcc 	andi	r2,r3,255
 4000840:	1080201c 	xori	r2,r2,128
 4000844:	10bfe004 	addi	r2,r2,-128
 4000848:	103ff71e 	bne	r2,zero,4000828 <__ram_exceptions_end+0xfbfe05e0>
 400084c:	0007883a 	mov	r3,zero
 4000850:	28800003 	ldbu	r2,0(r5)
 4000854:	1885c83a 	sub	r2,r3,r2
 4000858:	f800283a 	ret
 400085c:	28800003 	ldbu	r2,0(r5)
 4000860:	18c03fcc 	andi	r3,r3,255
 4000864:	1885c83a 	sub	r2,r3,r2
 4000868:	f800283a 	ret
 400086c:	0005883a 	mov	r2,zero
 4000870:	f800283a 	ret
 4000874:	10c03fcc 	andi	r3,r2,255
 4000878:	003ff506 	br	4000850 <__ram_exceptions_end+0xfbfe0608>

0400087c <strlen>:
 400087c:	208000cc 	andi	r2,r4,3
 4000880:	10002026 	beq	r2,zero,4000904 <strlen+0x88>
 4000884:	20800007 	ldb	r2,0(r4)
 4000888:	10002026 	beq	r2,zero,400090c <strlen+0x90>
 400088c:	2005883a 	mov	r2,r4
 4000890:	00000206 	br	400089c <strlen+0x20>
 4000894:	10c00007 	ldb	r3,0(r2)
 4000898:	18001826 	beq	r3,zero,40008fc <strlen+0x80>
 400089c:	10800044 	addi	r2,r2,1
 40008a0:	10c000cc 	andi	r3,r2,3
 40008a4:	183ffb1e 	bne	r3,zero,4000894 <__ram_exceptions_end+0xfbfe064c>
 40008a8:	10c00017 	ldw	r3,0(r2)
 40008ac:	01ffbff4 	movhi	r7,65279
 40008b0:	39ffbfc4 	addi	r7,r7,-257
 40008b4:	00ca303a 	nor	r5,zero,r3
 40008b8:	01a02074 	movhi	r6,32897
 40008bc:	19c7883a 	add	r3,r3,r7
 40008c0:	31a02004 	addi	r6,r6,-32640
 40008c4:	1946703a 	and	r3,r3,r5
 40008c8:	1986703a 	and	r3,r3,r6
 40008cc:	1800091e 	bne	r3,zero,40008f4 <strlen+0x78>
 40008d0:	10800104 	addi	r2,r2,4
 40008d4:	10c00017 	ldw	r3,0(r2)
 40008d8:	19cb883a 	add	r5,r3,r7
 40008dc:	00c6303a 	nor	r3,zero,r3
 40008e0:	28c6703a 	and	r3,r5,r3
 40008e4:	1986703a 	and	r3,r3,r6
 40008e8:	183ff926 	beq	r3,zero,40008d0 <__ram_exceptions_end+0xfbfe0688>
 40008ec:	00000106 	br	40008f4 <strlen+0x78>
 40008f0:	10800044 	addi	r2,r2,1
 40008f4:	10c00007 	ldb	r3,0(r2)
 40008f8:	183ffd1e 	bne	r3,zero,40008f0 <__ram_exceptions_end+0xfbfe06a8>
 40008fc:	1105c83a 	sub	r2,r2,r4
 4000900:	f800283a 	ret
 4000904:	2005883a 	mov	r2,r4
 4000908:	003fe706 	br	40008a8 <__ram_exceptions_end+0xfbfe0660>
 400090c:	0005883a 	mov	r2,zero
 4000910:	f800283a 	ret

04000914 <___svfprintf_internal_r>:
 4000914:	deffb704 	addi	sp,sp,-292
 4000918:	dfc04815 	stw	ra,288(sp)
 400091c:	ddc04615 	stw	r23,280(sp)
 4000920:	d9402c15 	stw	r5,176(sp)
 4000924:	d9003915 	stw	r4,228(sp)
 4000928:	302f883a 	mov	r23,r6
 400092c:	d9c02d15 	stw	r7,180(sp)
 4000930:	df004715 	stw	fp,284(sp)
 4000934:	dd804515 	stw	r22,276(sp)
 4000938:	dd404415 	stw	r21,272(sp)
 400093c:	dd004315 	stw	r20,268(sp)
 4000940:	dcc04215 	stw	r19,264(sp)
 4000944:	dc804115 	stw	r18,260(sp)
 4000948:	dc404015 	stw	r17,256(sp)
 400094c:	dc003f15 	stw	r16,252(sp)
 4000950:	40079040 	call	4007904 <_localeconv_r>
 4000954:	10800017 	ldw	r2,0(r2)
 4000958:	1009883a 	mov	r4,r2
 400095c:	d8803415 	stw	r2,208(sp)
 4000960:	400087c0 	call	400087c <strlen>
 4000964:	d8c02c17 	ldw	r3,176(sp)
 4000968:	d8803815 	stw	r2,224(sp)
 400096c:	1880030b 	ldhu	r2,12(r3)
 4000970:	1080200c 	andi	r2,r2,128
 4000974:	10000226 	beq	r2,zero,4000980 <___svfprintf_internal_r+0x6c>
 4000978:	18800417 	ldw	r2,16(r3)
 400097c:	10067f26 	beq	r2,zero,400237c <___svfprintf_internal_r+0x1a68>
 4000980:	dcc03917 	ldw	r19,228(sp)
 4000984:	d8c00404 	addi	r3,sp,16
 4000988:	05410074 	movhi	r21,1025
 400098c:	d9001e04 	addi	r4,sp,120
 4000990:	ad4dda84 	addi	r21,r21,14186
 4000994:	d8c01e15 	stw	r3,120(sp)
 4000998:	d8002015 	stw	zero,128(sp)
 400099c:	d8001f15 	stw	zero,124(sp)
 40009a0:	d8003315 	stw	zero,204(sp)
 40009a4:	d8003615 	stw	zero,216(sp)
 40009a8:	d8003715 	stw	zero,220(sp)
 40009ac:	1811883a 	mov	r8,r3
 40009b0:	d8003a15 	stw	zero,232(sp)
 40009b4:	d8003b15 	stw	zero,236(sp)
 40009b8:	d8002f15 	stw	zero,188(sp)
 40009bc:	d9002815 	stw	r4,160(sp)
 40009c0:	b8800007 	ldb	r2,0(r23)
 40009c4:	10026726 	beq	r2,zero,4001364 <___svfprintf_internal_r+0xa50>
 40009c8:	00c00944 	movi	r3,37
 40009cc:	b821883a 	mov	r16,r23
 40009d0:	10c0021e 	bne	r2,r3,40009dc <___svfprintf_internal_r+0xc8>
 40009d4:	00001406 	br	4000a28 <___svfprintf_internal_r+0x114>
 40009d8:	10c00326 	beq	r2,r3,40009e8 <___svfprintf_internal_r+0xd4>
 40009dc:	84000044 	addi	r16,r16,1
 40009e0:	80800007 	ldb	r2,0(r16)
 40009e4:	103ffc1e 	bne	r2,zero,40009d8 <__ram_exceptions_end+0xfbfe0790>
 40009e8:	85e3c83a 	sub	r17,r16,r23
 40009ec:	88000e26 	beq	r17,zero,4000a28 <___svfprintf_internal_r+0x114>
 40009f0:	d8c02017 	ldw	r3,128(sp)
 40009f4:	d8801f17 	ldw	r2,124(sp)
 40009f8:	45c00015 	stw	r23,0(r8)
 40009fc:	1c47883a 	add	r3,r3,r17
 4000a00:	10800044 	addi	r2,r2,1
 4000a04:	d8c02015 	stw	r3,128(sp)
 4000a08:	44400115 	stw	r17,4(r8)
 4000a0c:	d8801f15 	stw	r2,124(sp)
 4000a10:	00c001c4 	movi	r3,7
 4000a14:	18809716 	blt	r3,r2,4000c74 <___svfprintf_internal_r+0x360>
 4000a18:	42000204 	addi	r8,r8,8
 4000a1c:	d9402f17 	ldw	r5,188(sp)
 4000a20:	2c4b883a 	add	r5,r5,r17
 4000a24:	d9402f15 	stw	r5,188(sp)
 4000a28:	80800007 	ldb	r2,0(r16)
 4000a2c:	10009826 	beq	r2,zero,4000c90 <___svfprintf_internal_r+0x37c>
 4000a30:	84400047 	ldb	r17,1(r16)
 4000a34:	00bfffc4 	movi	r2,-1
 4000a38:	85c00044 	addi	r23,r16,1
 4000a3c:	d8002785 	stb	zero,158(sp)
 4000a40:	0007883a 	mov	r3,zero
 4000a44:	000f883a 	mov	r7,zero
 4000a48:	d8802915 	stw	r2,164(sp)
 4000a4c:	d8003115 	stw	zero,196(sp)
 4000a50:	0025883a 	mov	r18,zero
 4000a54:	01401604 	movi	r5,88
 4000a58:	01800244 	movi	r6,9
 4000a5c:	02800a84 	movi	r10,42
 4000a60:	02401b04 	movi	r9,108
 4000a64:	bdc00044 	addi	r23,r23,1
 4000a68:	88bff804 	addi	r2,r17,-32
 4000a6c:	2882f036 	bltu	r5,r2,4001630 <___svfprintf_internal_r+0xd1c>
 4000a70:	100490ba 	slli	r2,r2,2
 4000a74:	01010034 	movhi	r4,1024
 4000a78:	2102a204 	addi	r4,r4,2696
 4000a7c:	1105883a 	add	r2,r2,r4
 4000a80:	10800017 	ldw	r2,0(r2)
 4000a84:	1000683a 	jmp	r2
 4000a88:	04001598 	cmpnei	r16,zero,86
 4000a8c:	04001630 	cmpltui	r16,zero,88
 4000a90:	04001630 	cmpltui	r16,zero,88
 4000a94:	0400158c 	andi	r16,zero,86
 4000a98:	04001630 	cmpltui	r16,zero,88
 4000a9c:	04001630 	cmpltui	r16,zero,88
 4000aa0:	04001630 	cmpltui	r16,zero,88
 4000aa4:	04001630 	cmpltui	r16,zero,88
 4000aa8:	04001630 	cmpltui	r16,zero,88
 4000aac:	04001630 	cmpltui	r16,zero,88
 4000ab0:	04000cec 	andhi	r16,zero,51
 4000ab4:	040014c8 	cmpgei	r16,zero,83
 4000ab8:	04001630 	cmpltui	r16,zero,88
 4000abc:	04000bfc 	xorhi	r16,zero,47
 4000ac0:	04000d14 	movui	r16,52
 4000ac4:	04001630 	cmpltui	r16,zero,88
 4000ac8:	04000d88 	cmpgei	r16,zero,54
 4000acc:	04000d54 	movui	r16,53
 4000ad0:	04000d54 	movui	r16,53
 4000ad4:	04000d54 	movui	r16,53
 4000ad8:	04000d54 	movui	r16,53
 4000adc:	04000d54 	movui	r16,53
 4000ae0:	04000d54 	movui	r16,53
 4000ae4:	04000d54 	movui	r16,53
 4000ae8:	04000d54 	movui	r16,53
 4000aec:	04000d54 	movui	r16,53
 4000af0:	04001630 	cmpltui	r16,zero,88
 4000af4:	04001630 	cmpltui	r16,zero,88
 4000af8:	04001630 	cmpltui	r16,zero,88
 4000afc:	04001630 	cmpltui	r16,zero,88
 4000b00:	04001630 	cmpltui	r16,zero,88
 4000b04:	04001630 	cmpltui	r16,zero,88
 4000b08:	04001630 	cmpltui	r16,zero,88
 4000b0c:	04001630 	cmpltui	r16,zero,88
 4000b10:	04001630 	cmpltui	r16,zero,88
 4000b14:	04001630 	cmpltui	r16,zero,88
 4000b18:	04000e40 	call	4000e4 <_start-0x3bfff1c>
 4000b1c:	04000d94 	movui	r16,54
 4000b20:	04001630 	cmpltui	r16,zero,88
 4000b24:	04000d94 	movui	r16,54
 4000b28:	04001630 	cmpltui	r16,zero,88
 4000b2c:	04001630 	cmpltui	r16,zero,88
 4000b30:	04001630 	cmpltui	r16,zero,88
 4000b34:	04001630 	cmpltui	r16,zero,88
 4000b38:	04000e34 	movhi	r16,56
 4000b3c:	04001630 	cmpltui	r16,zero,88
 4000b40:	04001630 	cmpltui	r16,zero,88
 4000b44:	04000efc 	xorhi	r16,zero,59
 4000b48:	04001630 	cmpltui	r16,zero,88
 4000b4c:	04001630 	cmpltui	r16,zero,88
 4000b50:	04001630 	cmpltui	r16,zero,88
 4000b54:	04001630 	cmpltui	r16,zero,88
 4000b58:	04001630 	cmpltui	r16,zero,88
 4000b5c:	0400136c 	andhi	r16,zero,77
 4000b60:	04001630 	cmpltui	r16,zero,88
 4000b64:	04001630 	cmpltui	r16,zero,88
 4000b68:	040013cc 	andi	r16,zero,79
 4000b6c:	04001630 	cmpltui	r16,zero,88
 4000b70:	04001630 	cmpltui	r16,zero,88
 4000b74:	04001630 	cmpltui	r16,zero,88
 4000b78:	04001630 	cmpltui	r16,zero,88
 4000b7c:	04001630 	cmpltui	r16,zero,88
 4000b80:	04001630 	cmpltui	r16,zero,88
 4000b84:	04001630 	cmpltui	r16,zero,88
 4000b88:	04001630 	cmpltui	r16,zero,88
 4000b8c:	04001630 	cmpltui	r16,zero,88
 4000b90:	04001630 	cmpltui	r16,zero,88
 4000b94:	0400147c 	xorhi	r16,zero,81
 4000b98:	040015b8 	rdprs	r16,zero,86
 4000b9c:	04000d94 	movui	r16,54
 4000ba0:	04000d94 	movui	r16,54
 4000ba4:	04000d94 	movui	r16,54
 4000ba8:	0400160c 	andi	r16,zero,88
 4000bac:	040015b8 	rdprs	r16,zero,86
 4000bb0:	04001630 	cmpltui	r16,zero,88
 4000bb4:	04001630 	cmpltui	r16,zero,88
 4000bb8:	040015c8 	cmpgei	r16,zero,87
 4000bbc:	04001630 	cmpltui	r16,zero,88
 4000bc0:	040015d8 	cmpnei	r16,zero,87
 4000bc4:	040014b8 	rdprs	r16,zero,82
 4000bc8:	04000c08 	cmpgei	r16,zero,48
 4000bcc:	040014d8 	cmpnei	r16,zero,83
 4000bd0:	04001630 	cmpltui	r16,zero,88
 4000bd4:	040014e4 	muli	r16,zero,83
 4000bd8:	04001630 	cmpltui	r16,zero,88
 4000bdc:	04001540 	call	400154 <_start-0x3bffeac>
 4000be0:	04001630 	cmpltui	r16,zero,88
 4000be4:	04001630 	cmpltui	r16,zero,88
 4000be8:	04001550 	cmplti	r16,zero,85
 4000bec:	d9003117 	ldw	r4,196(sp)
 4000bf0:	d8802d15 	stw	r2,180(sp)
 4000bf4:	0109c83a 	sub	r4,zero,r4
 4000bf8:	d9003115 	stw	r4,196(sp)
 4000bfc:	94800114 	ori	r18,r18,4
 4000c00:	bc400007 	ldb	r17,0(r23)
 4000c04:	003f9706 	br	4000a64 <__ram_exceptions_end+0xfbfe081c>
 4000c08:	00800c04 	movi	r2,48
 4000c0c:	d9002d17 	ldw	r4,180(sp)
 4000c10:	d9402917 	ldw	r5,164(sp)
 4000c14:	d8802705 	stb	r2,156(sp)
 4000c18:	00801e04 	movi	r2,120
 4000c1c:	d8802745 	stb	r2,157(sp)
 4000c20:	d8002785 	stb	zero,158(sp)
 4000c24:	20c00104 	addi	r3,r4,4
 4000c28:	25000017 	ldw	r20,0(r4)
 4000c2c:	002d883a 	mov	r22,zero
 4000c30:	90800094 	ori	r2,r18,2
 4000c34:	28028616 	blt	r5,zero,4001650 <___svfprintf_internal_r+0xd3c>
 4000c38:	00bfdfc4 	movi	r2,-129
 4000c3c:	90a4703a 	and	r18,r18,r2
 4000c40:	d8c02d15 	stw	r3,180(sp)
 4000c44:	94800094 	ori	r18,r18,2
 4000c48:	a002731e 	bne	r20,zero,4001618 <___svfprintf_internal_r+0xd04>
 4000c4c:	00810074 	movhi	r2,1025
 4000c50:	108dd304 	addi	r2,r2,14156
 4000c54:	d8803a15 	stw	r2,232(sp)
 4000c58:	04401e04 	movi	r17,120
 4000c5c:	d8c02917 	ldw	r3,164(sp)
 4000c60:	0039883a 	mov	fp,zero
 4000c64:	1801d526 	beq	r3,zero,40013bc <___svfprintf_internal_r+0xaa8>
 4000c68:	0029883a 	mov	r20,zero
 4000c6c:	002d883a 	mov	r22,zero
 4000c70:	0001f106 	br	4001438 <___svfprintf_internal_r+0xb24>
 4000c74:	d9402c17 	ldw	r5,176(sp)
 4000c78:	d9801e04 	addi	r6,sp,120
 4000c7c:	9809883a 	mov	r4,r19
 4000c80:	400a0780 	call	400a078 <__ssprint_r>
 4000c84:	1000081e 	bne	r2,zero,4000ca8 <___svfprintf_internal_r+0x394>
 4000c88:	da000404 	addi	r8,sp,16
 4000c8c:	003f6306 	br	4000a1c <__ram_exceptions_end+0xfbfe07d4>
 4000c90:	d8802017 	ldw	r2,128(sp)
 4000c94:	10000426 	beq	r2,zero,4000ca8 <___svfprintf_internal_r+0x394>
 4000c98:	d9402c17 	ldw	r5,176(sp)
 4000c9c:	d9003917 	ldw	r4,228(sp)
 4000ca0:	d9801e04 	addi	r6,sp,120
 4000ca4:	400a0780 	call	400a078 <__ssprint_r>
 4000ca8:	d8802c17 	ldw	r2,176(sp)
 4000cac:	10c0030b 	ldhu	r3,12(r2)
 4000cb0:	d8802f17 	ldw	r2,188(sp)
 4000cb4:	18c0100c 	andi	r3,r3,64
 4000cb8:	1805f51e 	bne	r3,zero,4002490 <___svfprintf_internal_r+0x1b7c>
 4000cbc:	dfc04817 	ldw	ra,288(sp)
 4000cc0:	df004717 	ldw	fp,284(sp)
 4000cc4:	ddc04617 	ldw	r23,280(sp)
 4000cc8:	dd804517 	ldw	r22,276(sp)
 4000ccc:	dd404417 	ldw	r21,272(sp)
 4000cd0:	dd004317 	ldw	r20,268(sp)
 4000cd4:	dcc04217 	ldw	r19,264(sp)
 4000cd8:	dc804117 	ldw	r18,260(sp)
 4000cdc:	dc404017 	ldw	r17,256(sp)
 4000ce0:	dc003f17 	ldw	r16,252(sp)
 4000ce4:	dec04904 	addi	sp,sp,292
 4000ce8:	f800283a 	ret
 4000cec:	d8802d17 	ldw	r2,180(sp)
 4000cf0:	d9002d17 	ldw	r4,180(sp)
 4000cf4:	10800017 	ldw	r2,0(r2)
 4000cf8:	d8803115 	stw	r2,196(sp)
 4000cfc:	20800104 	addi	r2,r4,4
 4000d00:	d9003117 	ldw	r4,196(sp)
 4000d04:	203fb916 	blt	r4,zero,4000bec <__ram_exceptions_end+0xfbfe09a4>
 4000d08:	d8802d15 	stw	r2,180(sp)
 4000d0c:	bc400007 	ldb	r17,0(r23)
 4000d10:	003f5406 	br	4000a64 <__ram_exceptions_end+0xfbfe081c>
 4000d14:	bc400007 	ldb	r17,0(r23)
 4000d18:	bac00044 	addi	r11,r23,1
 4000d1c:	8a873926 	beq	r17,r10,4002a04 <___svfprintf_internal_r+0x20f0>
 4000d20:	88bff404 	addi	r2,r17,-48
 4000d24:	0009883a 	mov	r4,zero
 4000d28:	30868836 	bltu	r6,r2,400274c <___svfprintf_internal_r+0x1e38>
 4000d2c:	5c400007 	ldb	r17,0(r11)
 4000d30:	210002a4 	muli	r4,r4,10
 4000d34:	5dc00044 	addi	r23,r11,1
 4000d38:	b817883a 	mov	r11,r23
 4000d3c:	2089883a 	add	r4,r4,r2
 4000d40:	88bff404 	addi	r2,r17,-48
 4000d44:	30bff92e 	bgeu	r6,r2,4000d2c <__ram_exceptions_end+0xfbfe0ae4>
 4000d48:	2005d716 	blt	r4,zero,40024a8 <___svfprintf_internal_r+0x1b94>
 4000d4c:	d9002915 	stw	r4,164(sp)
 4000d50:	003f4506 	br	4000a68 <__ram_exceptions_end+0xfbfe0820>
 4000d54:	b809883a 	mov	r4,r23
 4000d58:	d8003115 	stw	zero,196(sp)
 4000d5c:	88bff404 	addi	r2,r17,-48
 4000d60:	0017883a 	mov	r11,zero
 4000d64:	24400007 	ldb	r17,0(r4)
 4000d68:	5ac002a4 	muli	r11,r11,10
 4000d6c:	bdc00044 	addi	r23,r23,1
 4000d70:	b809883a 	mov	r4,r23
 4000d74:	12d7883a 	add	r11,r2,r11
 4000d78:	88bff404 	addi	r2,r17,-48
 4000d7c:	30bff92e 	bgeu	r6,r2,4000d64 <__ram_exceptions_end+0xfbfe0b1c>
 4000d80:	dac03115 	stw	r11,196(sp)
 4000d84:	003f3806 	br	4000a68 <__ram_exceptions_end+0xfbfe0820>
 4000d88:	94802014 	ori	r18,r18,128
 4000d8c:	bc400007 	ldb	r17,0(r23)
 4000d90:	003f3406 	br	4000a64 <__ram_exceptions_end+0xfbfe081c>
 4000d94:	18c03fcc 	andi	r3,r3,255
 4000d98:	1807471e 	bne	r3,zero,4002ab8 <___svfprintf_internal_r+0x21a4>
 4000d9c:	9080020c 	andi	r2,r18,8
 4000da0:	10047d26 	beq	r2,zero,4001f98 <___svfprintf_internal_r+0x1684>
 4000da4:	d8c02d17 	ldw	r3,180(sp)
 4000da8:	d9002d17 	ldw	r4,180(sp)
 4000dac:	d9402d17 	ldw	r5,180(sp)
 4000db0:	18c00017 	ldw	r3,0(r3)
 4000db4:	21000117 	ldw	r4,4(r4)
 4000db8:	29400204 	addi	r5,r5,8
 4000dbc:	d8c03615 	stw	r3,216(sp)
 4000dc0:	d9003715 	stw	r4,220(sp)
 4000dc4:	d9402d15 	stw	r5,180(sp)
 4000dc8:	d9003617 	ldw	r4,216(sp)
 4000dcc:	d9403717 	ldw	r5,220(sp)
 4000dd0:	da003e15 	stw	r8,248(sp)
 4000dd4:	04000044 	movi	r16,1
 4000dd8:	4009e740 	call	4009e74 <__fpclassifyd>
 4000ddc:	da003e17 	ldw	r8,248(sp)
 4000de0:	14044b1e 	bne	r2,r16,4001f10 <___svfprintf_internal_r+0x15fc>
 4000de4:	d9003617 	ldw	r4,216(sp)
 4000de8:	d9403717 	ldw	r5,220(sp)
 4000dec:	000d883a 	mov	r6,zero
 4000df0:	000f883a 	mov	r7,zero
 4000df4:	400f35c0 	call	400f35c <__ledf2>
 4000df8:	da003e17 	ldw	r8,248(sp)
 4000dfc:	1005f316 	blt	r2,zero,40025cc <___svfprintf_internal_r+0x1cb8>
 4000e00:	df002783 	ldbu	fp,158(sp)
 4000e04:	008011c4 	movi	r2,71
 4000e08:	1445590e 	bge	r2,r17,4002370 <___svfprintf_internal_r+0x1a5c>
 4000e0c:	04010074 	movhi	r16,1025
 4000e10:	840dcb04 	addi	r16,r16,14124
 4000e14:	00c000c4 	movi	r3,3
 4000e18:	00bfdfc4 	movi	r2,-129
 4000e1c:	d8c02a15 	stw	r3,168(sp)
 4000e20:	90a4703a 	and	r18,r18,r2
 4000e24:	d8c02e15 	stw	r3,184(sp)
 4000e28:	d8002915 	stw	zero,164(sp)
 4000e2c:	d8003215 	stw	zero,200(sp)
 4000e30:	00006606 	br	4000fcc <___svfprintf_internal_r+0x6b8>
 4000e34:	94800214 	ori	r18,r18,8
 4000e38:	bc400007 	ldb	r17,0(r23)
 4000e3c:	003f0906 	br	4000a64 <__ram_exceptions_end+0xfbfe081c>
 4000e40:	18c03fcc 	andi	r3,r3,255
 4000e44:	1807181e 	bne	r3,zero,4002aa8 <___svfprintf_internal_r+0x2194>
 4000e48:	94800414 	ori	r18,r18,16
 4000e4c:	9080080c 	andi	r2,r18,32
 4000e50:	10039626 	beq	r2,zero,4001cac <___svfprintf_internal_r+0x1398>
 4000e54:	d9402d17 	ldw	r5,180(sp)
 4000e58:	28800117 	ldw	r2,4(r5)
 4000e5c:	2d000017 	ldw	r20,0(r5)
 4000e60:	29400204 	addi	r5,r5,8
 4000e64:	d9402d15 	stw	r5,180(sp)
 4000e68:	102d883a 	mov	r22,r2
 4000e6c:	10039816 	blt	r2,zero,4001cd0 <___svfprintf_internal_r+0x13bc>
 4000e70:	d9402917 	ldw	r5,164(sp)
 4000e74:	df002783 	ldbu	fp,158(sp)
 4000e78:	2803ab16 	blt	r5,zero,4001d28 <___svfprintf_internal_r+0x1414>
 4000e7c:	00ffdfc4 	movi	r3,-129
 4000e80:	a584b03a 	or	r2,r20,r22
 4000e84:	90e4703a 	and	r18,r18,r3
 4000e88:	10014a26 	beq	r2,zero,40013b4 <___svfprintf_internal_r+0xaa0>
 4000e8c:	b0034b26 	beq	r22,zero,4001bbc <___svfprintf_internal_r+0x12a8>
 4000e90:	dc402a15 	stw	r17,168(sp)
 4000e94:	dc001e04 	addi	r16,sp,120
 4000e98:	b023883a 	mov	r17,r22
 4000e9c:	402d883a 	mov	r22,r8
 4000ea0:	a009883a 	mov	r4,r20
 4000ea4:	880b883a 	mov	r5,r17
 4000ea8:	01800284 	movi	r6,10
 4000eac:	000f883a 	mov	r7,zero
 4000eb0:	400d9780 	call	400d978 <__umoddi3>
 4000eb4:	10800c04 	addi	r2,r2,48
 4000eb8:	843fffc4 	addi	r16,r16,-1
 4000ebc:	a009883a 	mov	r4,r20
 4000ec0:	880b883a 	mov	r5,r17
 4000ec4:	80800005 	stb	r2,0(r16)
 4000ec8:	01800284 	movi	r6,10
 4000ecc:	000f883a 	mov	r7,zero
 4000ed0:	400d4000 	call	400d400 <__udivdi3>
 4000ed4:	1029883a 	mov	r20,r2
 4000ed8:	10c4b03a 	or	r2,r2,r3
 4000edc:	1823883a 	mov	r17,r3
 4000ee0:	103fef1e 	bne	r2,zero,4000ea0 <__ram_exceptions_end+0xfbfe0c58>
 4000ee4:	d8c02817 	ldw	r3,160(sp)
 4000ee8:	dc402a17 	ldw	r17,168(sp)
 4000eec:	b011883a 	mov	r8,r22
 4000ef0:	1c07c83a 	sub	r3,r3,r16
 4000ef4:	d8c02e15 	stw	r3,184(sp)
 4000ef8:	00002e06 	br	4000fb4 <___svfprintf_internal_r+0x6a0>
 4000efc:	18c03fcc 	andi	r3,r3,255
 4000f00:	1806e71e 	bne	r3,zero,4002aa0 <___svfprintf_internal_r+0x218c>
 4000f04:	94800414 	ori	r18,r18,16
 4000f08:	9080080c 	andi	r2,r18,32
 4000f0c:	1002d426 	beq	r2,zero,4001a60 <___svfprintf_internal_r+0x114c>
 4000f10:	d9402d17 	ldw	r5,180(sp)
 4000f14:	d8c02917 	ldw	r3,164(sp)
 4000f18:	d8002785 	stb	zero,158(sp)
 4000f1c:	28800204 	addi	r2,r5,8
 4000f20:	2d000017 	ldw	r20,0(r5)
 4000f24:	2d800117 	ldw	r22,4(r5)
 4000f28:	18041516 	blt	r3,zero,4001f80 <___svfprintf_internal_r+0x166c>
 4000f2c:	013fdfc4 	movi	r4,-129
 4000f30:	a586b03a 	or	r3,r20,r22
 4000f34:	d8802d15 	stw	r2,180(sp)
 4000f38:	9124703a 	and	r18,r18,r4
 4000f3c:	1802d51e 	bne	r3,zero,4001a94 <___svfprintf_internal_r+0x1180>
 4000f40:	d9402917 	ldw	r5,164(sp)
 4000f44:	0039883a 	mov	fp,zero
 4000f48:	2806be26 	beq	r5,zero,4002a44 <___svfprintf_internal_r+0x2130>
 4000f4c:	0029883a 	mov	r20,zero
 4000f50:	002d883a 	mov	r22,zero
 4000f54:	dc001e04 	addi	r16,sp,120
 4000f58:	a006d0fa 	srli	r3,r20,3
 4000f5c:	b008977a 	slli	r4,r22,29
 4000f60:	b02cd0fa 	srli	r22,r22,3
 4000f64:	a50001cc 	andi	r20,r20,7
 4000f68:	a0800c04 	addi	r2,r20,48
 4000f6c:	843fffc4 	addi	r16,r16,-1
 4000f70:	20e8b03a 	or	r20,r4,r3
 4000f74:	80800005 	stb	r2,0(r16)
 4000f78:	a586b03a 	or	r3,r20,r22
 4000f7c:	183ff61e 	bne	r3,zero,4000f58 <__ram_exceptions_end+0xfbfe0d10>
 4000f80:	90c0004c 	andi	r3,r18,1
 4000f84:	18013926 	beq	r3,zero,400146c <___svfprintf_internal_r+0xb58>
 4000f88:	10803fcc 	andi	r2,r2,255
 4000f8c:	1080201c 	xori	r2,r2,128
 4000f90:	10bfe004 	addi	r2,r2,-128
 4000f94:	00c00c04 	movi	r3,48
 4000f98:	10c13426 	beq	r2,r3,400146c <___svfprintf_internal_r+0xb58>
 4000f9c:	80ffffc5 	stb	r3,-1(r16)
 4000fa0:	d8c02817 	ldw	r3,160(sp)
 4000fa4:	80bfffc4 	addi	r2,r16,-1
 4000fa8:	1021883a 	mov	r16,r2
 4000fac:	1887c83a 	sub	r3,r3,r2
 4000fb0:	d8c02e15 	stw	r3,184(sp)
 4000fb4:	d8802e17 	ldw	r2,184(sp)
 4000fb8:	d9002917 	ldw	r4,164(sp)
 4000fbc:	1100010e 	bge	r2,r4,4000fc4 <___svfprintf_internal_r+0x6b0>
 4000fc0:	2005883a 	mov	r2,r4
 4000fc4:	d8802a15 	stw	r2,168(sp)
 4000fc8:	d8003215 	stw	zero,200(sp)
 4000fcc:	e7003fcc 	andi	fp,fp,255
 4000fd0:	e700201c 	xori	fp,fp,128
 4000fd4:	e73fe004 	addi	fp,fp,-128
 4000fd8:	e0000326 	beq	fp,zero,4000fe8 <___svfprintf_internal_r+0x6d4>
 4000fdc:	d8c02a17 	ldw	r3,168(sp)
 4000fe0:	18c00044 	addi	r3,r3,1
 4000fe4:	d8c02a15 	stw	r3,168(sp)
 4000fe8:	90c0008c 	andi	r3,r18,2
 4000fec:	d8c02b15 	stw	r3,172(sp)
 4000ff0:	18000326 	beq	r3,zero,4001000 <___svfprintf_internal_r+0x6ec>
 4000ff4:	d8c02a17 	ldw	r3,168(sp)
 4000ff8:	18c00084 	addi	r3,r3,2
 4000ffc:	d8c02a15 	stw	r3,168(sp)
 4001000:	90c0210c 	andi	r3,r18,132
 4001004:	d8c03015 	stw	r3,192(sp)
 4001008:	1801a11e 	bne	r3,zero,4001690 <___svfprintf_internal_r+0xd7c>
 400100c:	d9003117 	ldw	r4,196(sp)
 4001010:	d8c02a17 	ldw	r3,168(sp)
 4001014:	20e9c83a 	sub	r20,r4,r3
 4001018:	05019d0e 	bge	zero,r20,4001690 <___svfprintf_internal_r+0xd7c>
 400101c:	02400404 	movi	r9,16
 4001020:	d8c02017 	ldw	r3,128(sp)
 4001024:	d8801f17 	ldw	r2,124(sp)
 4001028:	4d051b0e 	bge	r9,r20,4002498 <___svfprintf_internal_r+0x1b84>
 400102c:	01410074 	movhi	r5,1025
 4001030:	294dde84 	addi	r5,r5,14202
 4001034:	dc403c15 	stw	r17,240(sp)
 4001038:	d9403515 	stw	r5,212(sp)
 400103c:	a023883a 	mov	r17,r20
 4001040:	482d883a 	mov	r22,r9
 4001044:	9029883a 	mov	r20,r18
 4001048:	070001c4 	movi	fp,7
 400104c:	8025883a 	mov	r18,r16
 4001050:	dc002c17 	ldw	r16,176(sp)
 4001054:	00000306 	br	4001064 <___svfprintf_internal_r+0x750>
 4001058:	8c7ffc04 	addi	r17,r17,-16
 400105c:	42000204 	addi	r8,r8,8
 4001060:	b440130e 	bge	r22,r17,40010b0 <___svfprintf_internal_r+0x79c>
 4001064:	01010074 	movhi	r4,1025
 4001068:	18c00404 	addi	r3,r3,16
 400106c:	10800044 	addi	r2,r2,1
 4001070:	210dde84 	addi	r4,r4,14202
 4001074:	41000015 	stw	r4,0(r8)
 4001078:	45800115 	stw	r22,4(r8)
 400107c:	d8c02015 	stw	r3,128(sp)
 4001080:	d8801f15 	stw	r2,124(sp)
 4001084:	e0bff40e 	bge	fp,r2,4001058 <__ram_exceptions_end+0xfbfe0e10>
 4001088:	d9801e04 	addi	r6,sp,120
 400108c:	800b883a 	mov	r5,r16
 4001090:	9809883a 	mov	r4,r19
 4001094:	400a0780 	call	400a078 <__ssprint_r>
 4001098:	103f031e 	bne	r2,zero,4000ca8 <__ram_exceptions_end+0xfbfe0a60>
 400109c:	8c7ffc04 	addi	r17,r17,-16
 40010a0:	d8c02017 	ldw	r3,128(sp)
 40010a4:	d8801f17 	ldw	r2,124(sp)
 40010a8:	da000404 	addi	r8,sp,16
 40010ac:	b47fed16 	blt	r22,r17,4001064 <__ram_exceptions_end+0xfbfe0e1c>
 40010b0:	9021883a 	mov	r16,r18
 40010b4:	a025883a 	mov	r18,r20
 40010b8:	8829883a 	mov	r20,r17
 40010bc:	dc403c17 	ldw	r17,240(sp)
 40010c0:	d9403517 	ldw	r5,212(sp)
 40010c4:	a0c7883a 	add	r3,r20,r3
 40010c8:	10800044 	addi	r2,r2,1
 40010cc:	41400015 	stw	r5,0(r8)
 40010d0:	45000115 	stw	r20,4(r8)
 40010d4:	d8c02015 	stw	r3,128(sp)
 40010d8:	d8801f15 	stw	r2,124(sp)
 40010dc:	010001c4 	movi	r4,7
 40010e0:	20829f16 	blt	r4,r2,4001b60 <___svfprintf_internal_r+0x124c>
 40010e4:	df002787 	ldb	fp,158(sp)
 40010e8:	42000204 	addi	r8,r8,8
 40010ec:	e0000c26 	beq	fp,zero,4001120 <___svfprintf_internal_r+0x80c>
 40010f0:	d8801f17 	ldw	r2,124(sp)
 40010f4:	d9002784 	addi	r4,sp,158
 40010f8:	18c00044 	addi	r3,r3,1
 40010fc:	10800044 	addi	r2,r2,1
 4001100:	41000015 	stw	r4,0(r8)
 4001104:	01000044 	movi	r4,1
 4001108:	41000115 	stw	r4,4(r8)
 400110c:	d8c02015 	stw	r3,128(sp)
 4001110:	d8801f15 	stw	r2,124(sp)
 4001114:	010001c4 	movi	r4,7
 4001118:	20823816 	blt	r4,r2,40019fc <___svfprintf_internal_r+0x10e8>
 400111c:	42000204 	addi	r8,r8,8
 4001120:	d8802b17 	ldw	r2,172(sp)
 4001124:	10000c26 	beq	r2,zero,4001158 <___svfprintf_internal_r+0x844>
 4001128:	d8801f17 	ldw	r2,124(sp)
 400112c:	d9002704 	addi	r4,sp,156
 4001130:	18c00084 	addi	r3,r3,2
 4001134:	10800044 	addi	r2,r2,1
 4001138:	41000015 	stw	r4,0(r8)
 400113c:	01000084 	movi	r4,2
 4001140:	41000115 	stw	r4,4(r8)
 4001144:	d8c02015 	stw	r3,128(sp)
 4001148:	d8801f15 	stw	r2,124(sp)
 400114c:	010001c4 	movi	r4,7
 4001150:	20823216 	blt	r4,r2,4001a1c <___svfprintf_internal_r+0x1108>
 4001154:	42000204 	addi	r8,r8,8
 4001158:	d9003017 	ldw	r4,192(sp)
 400115c:	00802004 	movi	r2,128
 4001160:	20819726 	beq	r4,r2,40017c0 <___svfprintf_internal_r+0xeac>
 4001164:	d9402917 	ldw	r5,164(sp)
 4001168:	d8802e17 	ldw	r2,184(sp)
 400116c:	28adc83a 	sub	r22,r5,r2
 4001170:	05802f0e 	bge	zero,r22,4001230 <___svfprintf_internal_r+0x91c>
 4001174:	07000404 	movi	fp,16
 4001178:	d8801f17 	ldw	r2,124(sp)
 400117c:	e583c00e 	bge	fp,r22,4002080 <___svfprintf_internal_r+0x176c>
 4001180:	01410074 	movhi	r5,1025
 4001184:	294dda84 	addi	r5,r5,14186
 4001188:	dc402915 	stw	r17,164(sp)
 400118c:	d9402b15 	stw	r5,172(sp)
 4001190:	b023883a 	mov	r17,r22
 4001194:	050001c4 	movi	r20,7
 4001198:	902d883a 	mov	r22,r18
 400119c:	8025883a 	mov	r18,r16
 40011a0:	dc002c17 	ldw	r16,176(sp)
 40011a4:	00000306 	br	40011b4 <___svfprintf_internal_r+0x8a0>
 40011a8:	8c7ffc04 	addi	r17,r17,-16
 40011ac:	42000204 	addi	r8,r8,8
 40011b0:	e440110e 	bge	fp,r17,40011f8 <___svfprintf_internal_r+0x8e4>
 40011b4:	18c00404 	addi	r3,r3,16
 40011b8:	10800044 	addi	r2,r2,1
 40011bc:	45400015 	stw	r21,0(r8)
 40011c0:	47000115 	stw	fp,4(r8)
 40011c4:	d8c02015 	stw	r3,128(sp)
 40011c8:	d8801f15 	stw	r2,124(sp)
 40011cc:	a0bff60e 	bge	r20,r2,40011a8 <__ram_exceptions_end+0xfbfe0f60>
 40011d0:	d9801e04 	addi	r6,sp,120
 40011d4:	800b883a 	mov	r5,r16
 40011d8:	9809883a 	mov	r4,r19
 40011dc:	400a0780 	call	400a078 <__ssprint_r>
 40011e0:	103eb11e 	bne	r2,zero,4000ca8 <__ram_exceptions_end+0xfbfe0a60>
 40011e4:	8c7ffc04 	addi	r17,r17,-16
 40011e8:	d8c02017 	ldw	r3,128(sp)
 40011ec:	d8801f17 	ldw	r2,124(sp)
 40011f0:	da000404 	addi	r8,sp,16
 40011f4:	e47fef16 	blt	fp,r17,40011b4 <__ram_exceptions_end+0xfbfe0f6c>
 40011f8:	9021883a 	mov	r16,r18
 40011fc:	b025883a 	mov	r18,r22
 4001200:	882d883a 	mov	r22,r17
 4001204:	dc402917 	ldw	r17,164(sp)
 4001208:	d9002b17 	ldw	r4,172(sp)
 400120c:	1d87883a 	add	r3,r3,r22
 4001210:	10800044 	addi	r2,r2,1
 4001214:	41000015 	stw	r4,0(r8)
 4001218:	45800115 	stw	r22,4(r8)
 400121c:	d8c02015 	stw	r3,128(sp)
 4001220:	d8801f15 	stw	r2,124(sp)
 4001224:	010001c4 	movi	r4,7
 4001228:	2081ec16 	blt	r4,r2,40019dc <___svfprintf_internal_r+0x10c8>
 400122c:	42000204 	addi	r8,r8,8
 4001230:	9080400c 	andi	r2,r18,256
 4001234:	1001181e 	bne	r2,zero,4001698 <___svfprintf_internal_r+0xd84>
 4001238:	d9402e17 	ldw	r5,184(sp)
 400123c:	d8801f17 	ldw	r2,124(sp)
 4001240:	44000015 	stw	r16,0(r8)
 4001244:	1947883a 	add	r3,r3,r5
 4001248:	10800044 	addi	r2,r2,1
 400124c:	41400115 	stw	r5,4(r8)
 4001250:	d8c02015 	stw	r3,128(sp)
 4001254:	d8801f15 	stw	r2,124(sp)
 4001258:	010001c4 	movi	r4,7
 400125c:	2081d116 	blt	r4,r2,40019a4 <___svfprintf_internal_r+0x1090>
 4001260:	42000204 	addi	r8,r8,8
 4001264:	9480010c 	andi	r18,r18,4
 4001268:	90003226 	beq	r18,zero,4001334 <___svfprintf_internal_r+0xa20>
 400126c:	d9403117 	ldw	r5,196(sp)
 4001270:	d8802a17 	ldw	r2,168(sp)
 4001274:	28a1c83a 	sub	r16,r5,r2
 4001278:	04002e0e 	bge	zero,r16,4001334 <___svfprintf_internal_r+0xa20>
 400127c:	04400404 	movi	r17,16
 4001280:	d8801f17 	ldw	r2,124(sp)
 4001284:	8c04b90e 	bge	r17,r16,400256c <___svfprintf_internal_r+0x1c58>
 4001288:	01410074 	movhi	r5,1025
 400128c:	294dde84 	addi	r5,r5,14202
 4001290:	d9403515 	stw	r5,212(sp)
 4001294:	048001c4 	movi	r18,7
 4001298:	dd002c17 	ldw	r20,176(sp)
 400129c:	00000306 	br	40012ac <___svfprintf_internal_r+0x998>
 40012a0:	843ffc04 	addi	r16,r16,-16
 40012a4:	42000204 	addi	r8,r8,8
 40012a8:	8c00130e 	bge	r17,r16,40012f8 <___svfprintf_internal_r+0x9e4>
 40012ac:	01010074 	movhi	r4,1025
 40012b0:	18c00404 	addi	r3,r3,16
 40012b4:	10800044 	addi	r2,r2,1
 40012b8:	210dde84 	addi	r4,r4,14202
 40012bc:	41000015 	stw	r4,0(r8)
 40012c0:	44400115 	stw	r17,4(r8)
 40012c4:	d8c02015 	stw	r3,128(sp)
 40012c8:	d8801f15 	stw	r2,124(sp)
 40012cc:	90bff40e 	bge	r18,r2,40012a0 <__ram_exceptions_end+0xfbfe1058>
 40012d0:	d9801e04 	addi	r6,sp,120
 40012d4:	a00b883a 	mov	r5,r20
 40012d8:	9809883a 	mov	r4,r19
 40012dc:	400a0780 	call	400a078 <__ssprint_r>
 40012e0:	103e711e 	bne	r2,zero,4000ca8 <__ram_exceptions_end+0xfbfe0a60>
 40012e4:	843ffc04 	addi	r16,r16,-16
 40012e8:	d8c02017 	ldw	r3,128(sp)
 40012ec:	d8801f17 	ldw	r2,124(sp)
 40012f0:	da000404 	addi	r8,sp,16
 40012f4:	8c3fed16 	blt	r17,r16,40012ac <__ram_exceptions_end+0xfbfe1064>
 40012f8:	d9403517 	ldw	r5,212(sp)
 40012fc:	1c07883a 	add	r3,r3,r16
 4001300:	10800044 	addi	r2,r2,1
 4001304:	41400015 	stw	r5,0(r8)
 4001308:	44000115 	stw	r16,4(r8)
 400130c:	d8c02015 	stw	r3,128(sp)
 4001310:	d8801f15 	stw	r2,124(sp)
 4001314:	010001c4 	movi	r4,7
 4001318:	2080060e 	bge	r4,r2,4001334 <___svfprintf_internal_r+0xa20>
 400131c:	d9402c17 	ldw	r5,176(sp)
 4001320:	d9801e04 	addi	r6,sp,120
 4001324:	9809883a 	mov	r4,r19
 4001328:	400a0780 	call	400a078 <__ssprint_r>
 400132c:	103e5e1e 	bne	r2,zero,4000ca8 <__ram_exceptions_end+0xfbfe0a60>
 4001330:	d8c02017 	ldw	r3,128(sp)
 4001334:	d8803117 	ldw	r2,196(sp)
 4001338:	d9002a17 	ldw	r4,168(sp)
 400133c:	1100010e 	bge	r2,r4,4001344 <___svfprintf_internal_r+0xa30>
 4001340:	2005883a 	mov	r2,r4
 4001344:	d9402f17 	ldw	r5,188(sp)
 4001348:	288b883a 	add	r5,r5,r2
 400134c:	d9402f15 	stw	r5,188(sp)
 4001350:	18019c1e 	bne	r3,zero,40019c4 <___svfprintf_internal_r+0x10b0>
 4001354:	b8800007 	ldb	r2,0(r23)
 4001358:	d8001f15 	stw	zero,124(sp)
 400135c:	da000404 	addi	r8,sp,16
 4001360:	103d991e 	bne	r2,zero,40009c8 <__ram_exceptions_end+0xfbfe0780>
 4001364:	b821883a 	mov	r16,r23
 4001368:	003daf06 	br	4000a28 <__ram_exceptions_end+0xfbfe07e0>
 400136c:	18c03fcc 	andi	r3,r3,255
 4001370:	1805c71e 	bne	r3,zero,4002a90 <___svfprintf_internal_r+0x217c>
 4001374:	94800414 	ori	r18,r18,16
 4001378:	9080080c 	andi	r2,r18,32
 400137c:	10020126 	beq	r2,zero,4001b84 <___svfprintf_internal_r+0x1270>
 4001380:	d8802d17 	ldw	r2,180(sp)
 4001384:	d9002917 	ldw	r4,164(sp)
 4001388:	d8002785 	stb	zero,158(sp)
 400138c:	10c00204 	addi	r3,r2,8
 4001390:	15000017 	ldw	r20,0(r2)
 4001394:	15800117 	ldw	r22,4(r2)
 4001398:	20038e16 	blt	r4,zero,40021d4 <___svfprintf_internal_r+0x18c0>
 400139c:	013fdfc4 	movi	r4,-129
 40013a0:	a584b03a 	or	r2,r20,r22
 40013a4:	d8c02d15 	stw	r3,180(sp)
 40013a8:	9124703a 	and	r18,r18,r4
 40013ac:	0039883a 	mov	fp,zero
 40013b0:	103eb61e 	bne	r2,zero,4000e8c <__ram_exceptions_end+0xfbfe0c44>
 40013b4:	d8802917 	ldw	r2,164(sp)
 40013b8:	1002c81e 	bne	r2,zero,4001edc <___svfprintf_internal_r+0x15c8>
 40013bc:	d8002915 	stw	zero,164(sp)
 40013c0:	d8002e15 	stw	zero,184(sp)
 40013c4:	dc001e04 	addi	r16,sp,120
 40013c8:	003efa06 	br	4000fb4 <__ram_exceptions_end+0xfbfe0d6c>
 40013cc:	18c03fcc 	andi	r3,r3,255
 40013d0:	1805ad1e 	bne	r3,zero,4002a88 <___svfprintf_internal_r+0x2174>
 40013d4:	01410074 	movhi	r5,1025
 40013d8:	294dce04 	addi	r5,r5,14136
 40013dc:	d9403a15 	stw	r5,232(sp)
 40013e0:	9080080c 	andi	r2,r18,32
 40013e4:	10006126 	beq	r2,zero,400156c <___svfprintf_internal_r+0xc58>
 40013e8:	d8802d17 	ldw	r2,180(sp)
 40013ec:	15000017 	ldw	r20,0(r2)
 40013f0:	15800117 	ldw	r22,4(r2)
 40013f4:	10800204 	addi	r2,r2,8
 40013f8:	d8802d15 	stw	r2,180(sp)
 40013fc:	9080004c 	andi	r2,r18,1
 4001400:	10018e26 	beq	r2,zero,4001a3c <___svfprintf_internal_r+0x1128>
 4001404:	a584b03a 	or	r2,r20,r22
 4001408:	10030926 	beq	r2,zero,4002030 <___svfprintf_internal_r+0x171c>
 400140c:	d8c02917 	ldw	r3,164(sp)
 4001410:	00800c04 	movi	r2,48
 4001414:	d8802705 	stb	r2,156(sp)
 4001418:	dc402745 	stb	r17,157(sp)
 400141c:	d8002785 	stb	zero,158(sp)
 4001420:	90800094 	ori	r2,r18,2
 4001424:	18048716 	blt	r3,zero,4002644 <___svfprintf_internal_r+0x1d30>
 4001428:	00bfdfc4 	movi	r2,-129
 400142c:	90a4703a 	and	r18,r18,r2
 4001430:	94800094 	ori	r18,r18,2
 4001434:	0039883a 	mov	fp,zero
 4001438:	d9003a17 	ldw	r4,232(sp)
 400143c:	dc001e04 	addi	r16,sp,120
 4001440:	a08003cc 	andi	r2,r20,15
 4001444:	b006973a 	slli	r3,r22,28
 4001448:	2085883a 	add	r2,r4,r2
 400144c:	a028d13a 	srli	r20,r20,4
 4001450:	10800003 	ldbu	r2,0(r2)
 4001454:	b02cd13a 	srli	r22,r22,4
 4001458:	843fffc4 	addi	r16,r16,-1
 400145c:	1d28b03a 	or	r20,r3,r20
 4001460:	80800005 	stb	r2,0(r16)
 4001464:	a584b03a 	or	r2,r20,r22
 4001468:	103ff51e 	bne	r2,zero,4001440 <__ram_exceptions_end+0xfbfe11f8>
 400146c:	d8c02817 	ldw	r3,160(sp)
 4001470:	1c07c83a 	sub	r3,r3,r16
 4001474:	d8c02e15 	stw	r3,184(sp)
 4001478:	003ece06 	br	4000fb4 <__ram_exceptions_end+0xfbfe0d6c>
 400147c:	d8c02d17 	ldw	r3,180(sp)
 4001480:	d9002d17 	ldw	r4,180(sp)
 4001484:	d8002785 	stb	zero,158(sp)
 4001488:	18800017 	ldw	r2,0(r3)
 400148c:	21000104 	addi	r4,r4,4
 4001490:	00c00044 	movi	r3,1
 4001494:	d8c02a15 	stw	r3,168(sp)
 4001498:	d8801405 	stb	r2,80(sp)
 400149c:	d9002d15 	stw	r4,180(sp)
 40014a0:	d8c02e15 	stw	r3,184(sp)
 40014a4:	d8002915 	stw	zero,164(sp)
 40014a8:	d8003215 	stw	zero,200(sp)
 40014ac:	dc001404 	addi	r16,sp,80
 40014b0:	0039883a 	mov	fp,zero
 40014b4:	003ecc06 	br	4000fe8 <__ram_exceptions_end+0xfbfe0da0>
 40014b8:	18c03fcc 	andi	r3,r3,255
 40014bc:	183e9226 	beq	r3,zero,4000f08 <__ram_exceptions_end+0xfbfe0cc0>
 40014c0:	d9c02785 	stb	r7,158(sp)
 40014c4:	003e9006 	br	4000f08 <__ram_exceptions_end+0xfbfe0cc0>
 40014c8:	00c00044 	movi	r3,1
 40014cc:	01c00ac4 	movi	r7,43
 40014d0:	bc400007 	ldb	r17,0(r23)
 40014d4:	003d6306 	br	4000a64 <__ram_exceptions_end+0xfbfe081c>
 40014d8:	94800814 	ori	r18,r18,32
 40014dc:	bc400007 	ldb	r17,0(r23)
 40014e0:	003d6006 	br	4000a64 <__ram_exceptions_end+0xfbfe081c>
 40014e4:	d8c02d17 	ldw	r3,180(sp)
 40014e8:	d8002785 	stb	zero,158(sp)
 40014ec:	1c000017 	ldw	r16,0(r3)
 40014f0:	1d000104 	addi	r20,r3,4
 40014f4:	80040f26 	beq	r16,zero,4002534 <___svfprintf_internal_r+0x1c20>
 40014f8:	d9002917 	ldw	r4,164(sp)
 40014fc:	2003dc16 	blt	r4,zero,4002470 <___svfprintf_internal_r+0x1b5c>
 4001500:	200d883a 	mov	r6,r4
 4001504:	000b883a 	mov	r5,zero
 4001508:	8009883a 	mov	r4,r16
 400150c:	da003e15 	stw	r8,248(sp)
 4001510:	40082fc0 	call	40082fc <memchr>
 4001514:	da003e17 	ldw	r8,248(sp)
 4001518:	10045826 	beq	r2,zero,400267c <___svfprintf_internal_r+0x1d68>
 400151c:	1405c83a 	sub	r2,r2,r16
 4001520:	d8802e15 	stw	r2,184(sp)
 4001524:	1003d816 	blt	r2,zero,4002488 <___svfprintf_internal_r+0x1b74>
 4001528:	df002783 	ldbu	fp,158(sp)
 400152c:	d8802a15 	stw	r2,168(sp)
 4001530:	dd002d15 	stw	r20,180(sp)
 4001534:	d8002915 	stw	zero,164(sp)
 4001538:	d8003215 	stw	zero,200(sp)
 400153c:	003ea306 	br	4000fcc <__ram_exceptions_end+0xfbfe0d84>
 4001540:	18c03fcc 	andi	r3,r3,255
 4001544:	183f8c26 	beq	r3,zero,4001378 <__ram_exceptions_end+0xfbfe1130>
 4001548:	d9c02785 	stb	r7,158(sp)
 400154c:	003f8a06 	br	4001378 <__ram_exceptions_end+0xfbfe1130>
 4001550:	18c03fcc 	andi	r3,r3,255
 4001554:	1805631e 	bne	r3,zero,4002ae4 <___svfprintf_internal_r+0x21d0>
 4001558:	01410074 	movhi	r5,1025
 400155c:	294dd304 	addi	r5,r5,14156
 4001560:	d9403a15 	stw	r5,232(sp)
 4001564:	9080080c 	andi	r2,r18,32
 4001568:	103f9f1e 	bne	r2,zero,40013e8 <__ram_exceptions_end+0xfbfe11a0>
 400156c:	9080040c 	andi	r2,r18,16
 4001570:	10029c26 	beq	r2,zero,4001fe4 <___svfprintf_internal_r+0x16d0>
 4001574:	d8c02d17 	ldw	r3,180(sp)
 4001578:	002d883a 	mov	r22,zero
 400157c:	1d000017 	ldw	r20,0(r3)
 4001580:	18c00104 	addi	r3,r3,4
 4001584:	d8c02d15 	stw	r3,180(sp)
 4001588:	003f9c06 	br	40013fc <__ram_exceptions_end+0xfbfe11b4>
 400158c:	94800054 	ori	r18,r18,1
 4001590:	bc400007 	ldb	r17,0(r23)
 4001594:	003d3306 	br	4000a64 <__ram_exceptions_end+0xfbfe081c>
 4001598:	38803fcc 	andi	r2,r7,255
 400159c:	1080201c 	xori	r2,r2,128
 40015a0:	10bfe004 	addi	r2,r2,-128
 40015a4:	1002971e 	bne	r2,zero,4002004 <___svfprintf_internal_r+0x16f0>
 40015a8:	00c00044 	movi	r3,1
 40015ac:	01c00804 	movi	r7,32
 40015b0:	bc400007 	ldb	r17,0(r23)
 40015b4:	003d2b06 	br	4000a64 <__ram_exceptions_end+0xfbfe081c>
 40015b8:	18c03fcc 	andi	r3,r3,255
 40015bc:	183e2326 	beq	r3,zero,4000e4c <__ram_exceptions_end+0xfbfe0c04>
 40015c0:	d9c02785 	stb	r7,158(sp)
 40015c4:	003e2106 	br	4000e4c <__ram_exceptions_end+0xfbfe0c04>
 40015c8:	bc400007 	ldb	r17,0(r23)
 40015cc:	8a430426 	beq	r17,r9,40021e0 <___svfprintf_internal_r+0x18cc>
 40015d0:	94800414 	ori	r18,r18,16
 40015d4:	003d2306 	br	4000a64 <__ram_exceptions_end+0xfbfe081c>
 40015d8:	18c03fcc 	andi	r3,r3,255
 40015dc:	18053f1e 	bne	r3,zero,4002adc <___svfprintf_internal_r+0x21c8>
 40015e0:	9080080c 	andi	r2,r18,32
 40015e4:	10028926 	beq	r2,zero,400200c <___svfprintf_internal_r+0x16f8>
 40015e8:	d9402d17 	ldw	r5,180(sp)
 40015ec:	d9002f17 	ldw	r4,188(sp)
 40015f0:	28800017 	ldw	r2,0(r5)
 40015f4:	2007d7fa 	srai	r3,r4,31
 40015f8:	29400104 	addi	r5,r5,4
 40015fc:	d9402d15 	stw	r5,180(sp)
 4001600:	11000015 	stw	r4,0(r2)
 4001604:	10c00115 	stw	r3,4(r2)
 4001608:	003ced06 	br	40009c0 <__ram_exceptions_end+0xfbfe0778>
 400160c:	94801014 	ori	r18,r18,64
 4001610:	bc400007 	ldb	r17,0(r23)
 4001614:	003d1306 	br	4000a64 <__ram_exceptions_end+0xfbfe081c>
 4001618:	01010074 	movhi	r4,1025
 400161c:	210dd304 	addi	r4,r4,14156
 4001620:	0039883a 	mov	fp,zero
 4001624:	d9003a15 	stw	r4,232(sp)
 4001628:	04401e04 	movi	r17,120
 400162c:	003f8206 	br	4001438 <__ram_exceptions_end+0xfbfe11f0>
 4001630:	18c03fcc 	andi	r3,r3,255
 4001634:	1805221e 	bne	r3,zero,4002ac0 <___svfprintf_internal_r+0x21ac>
 4001638:	883d9526 	beq	r17,zero,4000c90 <__ram_exceptions_end+0xfbfe0a48>
 400163c:	00c00044 	movi	r3,1
 4001640:	d8c02a15 	stw	r3,168(sp)
 4001644:	dc401405 	stb	r17,80(sp)
 4001648:	d8002785 	stb	zero,158(sp)
 400164c:	003f9406 	br	40014a0 <__ram_exceptions_end+0xfbfe1258>
 4001650:	01010074 	movhi	r4,1025
 4001654:	210dd304 	addi	r4,r4,14156
 4001658:	d9003a15 	stw	r4,232(sp)
 400165c:	d8c02d15 	stw	r3,180(sp)
 4001660:	1025883a 	mov	r18,r2
 4001664:	04401e04 	movi	r17,120
 4001668:	a584b03a 	or	r2,r20,r22
 400166c:	1000fa1e 	bne	r2,zero,4001a58 <___svfprintf_internal_r+0x1144>
 4001670:	0039883a 	mov	fp,zero
 4001674:	00800084 	movi	r2,2
 4001678:	10803fcc 	andi	r2,r2,255
 400167c:	00c00044 	movi	r3,1
 4001680:	10c21626 	beq	r2,r3,4001edc <___svfprintf_internal_r+0x15c8>
 4001684:	00c00084 	movi	r3,2
 4001688:	10fe301e 	bne	r2,r3,4000f4c <__ram_exceptions_end+0xfbfe0d04>
 400168c:	003d7606 	br	4000c68 <__ram_exceptions_end+0xfbfe0a20>
 4001690:	d8c02017 	ldw	r3,128(sp)
 4001694:	003e9506 	br	40010ec <__ram_exceptions_end+0xfbfe0ea4>
 4001698:	00801944 	movi	r2,101
 400169c:	14407c0e 	bge	r2,r17,4001890 <___svfprintf_internal_r+0xf7c>
 40016a0:	d9003617 	ldw	r4,216(sp)
 40016a4:	d9403717 	ldw	r5,220(sp)
 40016a8:	000d883a 	mov	r6,zero
 40016ac:	000f883a 	mov	r7,zero
 40016b0:	d8c03d15 	stw	r3,244(sp)
 40016b4:	da003e15 	stw	r8,248(sp)
 40016b8:	400f1f80 	call	400f1f8 <__eqdf2>
 40016bc:	d8c03d17 	ldw	r3,244(sp)
 40016c0:	da003e17 	ldw	r8,248(sp)
 40016c4:	1000f51e 	bne	r2,zero,4001a9c <___svfprintf_internal_r+0x1188>
 40016c8:	d8801f17 	ldw	r2,124(sp)
 40016cc:	01010074 	movhi	r4,1025
 40016d0:	210dda04 	addi	r4,r4,14184
 40016d4:	18c00044 	addi	r3,r3,1
 40016d8:	10800044 	addi	r2,r2,1
 40016dc:	41000015 	stw	r4,0(r8)
 40016e0:	01000044 	movi	r4,1
 40016e4:	41000115 	stw	r4,4(r8)
 40016e8:	d8c02015 	stw	r3,128(sp)
 40016ec:	d8801f15 	stw	r2,124(sp)
 40016f0:	010001c4 	movi	r4,7
 40016f4:	20826616 	blt	r4,r2,4002090 <___svfprintf_internal_r+0x177c>
 40016f8:	42000204 	addi	r8,r8,8
 40016fc:	d8802617 	ldw	r2,152(sp)
 4001700:	d9403317 	ldw	r5,204(sp)
 4001704:	11400216 	blt	r2,r5,4001710 <___svfprintf_internal_r+0xdfc>
 4001708:	9080004c 	andi	r2,r18,1
 400170c:	103ed526 	beq	r2,zero,4001264 <__ram_exceptions_end+0xfbfe101c>
 4001710:	d8803817 	ldw	r2,224(sp)
 4001714:	d9003417 	ldw	r4,208(sp)
 4001718:	d9403817 	ldw	r5,224(sp)
 400171c:	1887883a 	add	r3,r3,r2
 4001720:	d8801f17 	ldw	r2,124(sp)
 4001724:	41000015 	stw	r4,0(r8)
 4001728:	41400115 	stw	r5,4(r8)
 400172c:	10800044 	addi	r2,r2,1
 4001730:	d8c02015 	stw	r3,128(sp)
 4001734:	d8801f15 	stw	r2,124(sp)
 4001738:	010001c4 	movi	r4,7
 400173c:	2082af16 	blt	r4,r2,40021fc <___svfprintf_internal_r+0x18e8>
 4001740:	42000204 	addi	r8,r8,8
 4001744:	d8803317 	ldw	r2,204(sp)
 4001748:	143fffc4 	addi	r16,r2,-1
 400174c:	043ec50e 	bge	zero,r16,4001264 <__ram_exceptions_end+0xfbfe101c>
 4001750:	04400404 	movi	r17,16
 4001754:	d8801f17 	ldw	r2,124(sp)
 4001758:	8c00860e 	bge	r17,r16,4001974 <___svfprintf_internal_r+0x1060>
 400175c:	01410074 	movhi	r5,1025
 4001760:	294dda84 	addi	r5,r5,14186
 4001764:	d9402b15 	stw	r5,172(sp)
 4001768:	058001c4 	movi	r22,7
 400176c:	dd002c17 	ldw	r20,176(sp)
 4001770:	00000306 	br	4001780 <___svfprintf_internal_r+0xe6c>
 4001774:	42000204 	addi	r8,r8,8
 4001778:	843ffc04 	addi	r16,r16,-16
 400177c:	8c00800e 	bge	r17,r16,4001980 <___svfprintf_internal_r+0x106c>
 4001780:	18c00404 	addi	r3,r3,16
 4001784:	10800044 	addi	r2,r2,1
 4001788:	45400015 	stw	r21,0(r8)
 400178c:	44400115 	stw	r17,4(r8)
 4001790:	d8c02015 	stw	r3,128(sp)
 4001794:	d8801f15 	stw	r2,124(sp)
 4001798:	b0bff60e 	bge	r22,r2,4001774 <__ram_exceptions_end+0xfbfe152c>
 400179c:	d9801e04 	addi	r6,sp,120
 40017a0:	a00b883a 	mov	r5,r20
 40017a4:	9809883a 	mov	r4,r19
 40017a8:	400a0780 	call	400a078 <__ssprint_r>
 40017ac:	103d3e1e 	bne	r2,zero,4000ca8 <__ram_exceptions_end+0xfbfe0a60>
 40017b0:	d8c02017 	ldw	r3,128(sp)
 40017b4:	d8801f17 	ldw	r2,124(sp)
 40017b8:	da000404 	addi	r8,sp,16
 40017bc:	003fee06 	br	4001778 <__ram_exceptions_end+0xfbfe1530>
 40017c0:	d9403117 	ldw	r5,196(sp)
 40017c4:	d8802a17 	ldw	r2,168(sp)
 40017c8:	28adc83a 	sub	r22,r5,r2
 40017cc:	05be650e 	bge	zero,r22,4001164 <__ram_exceptions_end+0xfbfe0f1c>
 40017d0:	07000404 	movi	fp,16
 40017d4:	d8801f17 	ldw	r2,124(sp)
 40017d8:	e583a20e 	bge	fp,r22,4002664 <___svfprintf_internal_r+0x1d50>
 40017dc:	01410074 	movhi	r5,1025
 40017e0:	294dda84 	addi	r5,r5,14186
 40017e4:	dc403015 	stw	r17,192(sp)
 40017e8:	d9402b15 	stw	r5,172(sp)
 40017ec:	b023883a 	mov	r17,r22
 40017f0:	050001c4 	movi	r20,7
 40017f4:	902d883a 	mov	r22,r18
 40017f8:	8025883a 	mov	r18,r16
 40017fc:	dc002c17 	ldw	r16,176(sp)
 4001800:	00000306 	br	4001810 <___svfprintf_internal_r+0xefc>
 4001804:	8c7ffc04 	addi	r17,r17,-16
 4001808:	42000204 	addi	r8,r8,8
 400180c:	e440110e 	bge	fp,r17,4001854 <___svfprintf_internal_r+0xf40>
 4001810:	18c00404 	addi	r3,r3,16
 4001814:	10800044 	addi	r2,r2,1
 4001818:	45400015 	stw	r21,0(r8)
 400181c:	47000115 	stw	fp,4(r8)
 4001820:	d8c02015 	stw	r3,128(sp)
 4001824:	d8801f15 	stw	r2,124(sp)
 4001828:	a0bff60e 	bge	r20,r2,4001804 <__ram_exceptions_end+0xfbfe15bc>
 400182c:	d9801e04 	addi	r6,sp,120
 4001830:	800b883a 	mov	r5,r16
 4001834:	9809883a 	mov	r4,r19
 4001838:	400a0780 	call	400a078 <__ssprint_r>
 400183c:	103d1a1e 	bne	r2,zero,4000ca8 <__ram_exceptions_end+0xfbfe0a60>
 4001840:	8c7ffc04 	addi	r17,r17,-16
 4001844:	d8c02017 	ldw	r3,128(sp)
 4001848:	d8801f17 	ldw	r2,124(sp)
 400184c:	da000404 	addi	r8,sp,16
 4001850:	e47fef16 	blt	fp,r17,4001810 <__ram_exceptions_end+0xfbfe15c8>
 4001854:	9021883a 	mov	r16,r18
 4001858:	b025883a 	mov	r18,r22
 400185c:	882d883a 	mov	r22,r17
 4001860:	dc403017 	ldw	r17,192(sp)
 4001864:	d9002b17 	ldw	r4,172(sp)
 4001868:	1d87883a 	add	r3,r3,r22
 400186c:	10800044 	addi	r2,r2,1
 4001870:	41000015 	stw	r4,0(r8)
 4001874:	45800115 	stw	r22,4(r8)
 4001878:	d8c02015 	stw	r3,128(sp)
 400187c:	d8801f15 	stw	r2,124(sp)
 4001880:	010001c4 	movi	r4,7
 4001884:	20819a16 	blt	r4,r2,4001ef0 <___svfprintf_internal_r+0x15dc>
 4001888:	42000204 	addi	r8,r8,8
 400188c:	003e3506 	br	4001164 <__ram_exceptions_end+0xfbfe0f1c>
 4001890:	d9403317 	ldw	r5,204(sp)
 4001894:	00800044 	movi	r2,1
 4001898:	18c00044 	addi	r3,r3,1
 400189c:	1141710e 	bge	r2,r5,4001e64 <___svfprintf_internal_r+0x1550>
 40018a0:	dc401f17 	ldw	r17,124(sp)
 40018a4:	00800044 	movi	r2,1
 40018a8:	40800115 	stw	r2,4(r8)
 40018ac:	8c400044 	addi	r17,r17,1
 40018b0:	44000015 	stw	r16,0(r8)
 40018b4:	d8c02015 	stw	r3,128(sp)
 40018b8:	dc401f15 	stw	r17,124(sp)
 40018bc:	008001c4 	movi	r2,7
 40018c0:	14417416 	blt	r2,r17,4001e94 <___svfprintf_internal_r+0x1580>
 40018c4:	42000204 	addi	r8,r8,8
 40018c8:	d8803817 	ldw	r2,224(sp)
 40018cc:	d9003417 	ldw	r4,208(sp)
 40018d0:	8c400044 	addi	r17,r17,1
 40018d4:	10c7883a 	add	r3,r2,r3
 40018d8:	40800115 	stw	r2,4(r8)
 40018dc:	41000015 	stw	r4,0(r8)
 40018e0:	d8c02015 	stw	r3,128(sp)
 40018e4:	dc401f15 	stw	r17,124(sp)
 40018e8:	008001c4 	movi	r2,7
 40018ec:	14417216 	blt	r2,r17,4001eb8 <___svfprintf_internal_r+0x15a4>
 40018f0:	45800204 	addi	r22,r8,8
 40018f4:	d9003617 	ldw	r4,216(sp)
 40018f8:	d9403717 	ldw	r5,220(sp)
 40018fc:	000d883a 	mov	r6,zero
 4001900:	000f883a 	mov	r7,zero
 4001904:	d8c03d15 	stw	r3,244(sp)
 4001908:	400f1f80 	call	400f1f8 <__eqdf2>
 400190c:	d8c03d17 	ldw	r3,244(sp)
 4001910:	1000b326 	beq	r2,zero,4001be0 <___svfprintf_internal_r+0x12cc>
 4001914:	d9403317 	ldw	r5,204(sp)
 4001918:	84000044 	addi	r16,r16,1
 400191c:	8c400044 	addi	r17,r17,1
 4001920:	28bfffc4 	addi	r2,r5,-1
 4001924:	1887883a 	add	r3,r3,r2
 4001928:	b0800115 	stw	r2,4(r22)
 400192c:	b4000015 	stw	r16,0(r22)
 4001930:	d8c02015 	stw	r3,128(sp)
 4001934:	dc401f15 	stw	r17,124(sp)
 4001938:	008001c4 	movi	r2,7
 400193c:	1440d216 	blt	r2,r17,4001c88 <___svfprintf_internal_r+0x1374>
 4001940:	b5800204 	addi	r22,r22,8
 4001944:	d9003b17 	ldw	r4,236(sp)
 4001948:	df0022c4 	addi	fp,sp,139
 400194c:	8c400044 	addi	r17,r17,1
 4001950:	20c7883a 	add	r3,r4,r3
 4001954:	b7000015 	stw	fp,0(r22)
 4001958:	b1000115 	stw	r4,4(r22)
 400195c:	d8c02015 	stw	r3,128(sp)
 4001960:	dc401f15 	stw	r17,124(sp)
 4001964:	008001c4 	movi	r2,7
 4001968:	14400e16 	blt	r2,r17,40019a4 <___svfprintf_internal_r+0x1090>
 400196c:	b2000204 	addi	r8,r22,8
 4001970:	003e3c06 	br	4001264 <__ram_exceptions_end+0xfbfe101c>
 4001974:	01010074 	movhi	r4,1025
 4001978:	210dda84 	addi	r4,r4,14186
 400197c:	d9002b15 	stw	r4,172(sp)
 4001980:	d9002b17 	ldw	r4,172(sp)
 4001984:	1c07883a 	add	r3,r3,r16
 4001988:	44000115 	stw	r16,4(r8)
 400198c:	41000015 	stw	r4,0(r8)
 4001990:	10800044 	addi	r2,r2,1
 4001994:	d8c02015 	stw	r3,128(sp)
 4001998:	d8801f15 	stw	r2,124(sp)
 400199c:	010001c4 	movi	r4,7
 40019a0:	20be2f0e 	bge	r4,r2,4001260 <__ram_exceptions_end+0xfbfe1018>
 40019a4:	d9402c17 	ldw	r5,176(sp)
 40019a8:	d9801e04 	addi	r6,sp,120
 40019ac:	9809883a 	mov	r4,r19
 40019b0:	400a0780 	call	400a078 <__ssprint_r>
 40019b4:	103cbc1e 	bne	r2,zero,4000ca8 <__ram_exceptions_end+0xfbfe0a60>
 40019b8:	d8c02017 	ldw	r3,128(sp)
 40019bc:	da000404 	addi	r8,sp,16
 40019c0:	003e2806 	br	4001264 <__ram_exceptions_end+0xfbfe101c>
 40019c4:	d9402c17 	ldw	r5,176(sp)
 40019c8:	d9801e04 	addi	r6,sp,120
 40019cc:	9809883a 	mov	r4,r19
 40019d0:	400a0780 	call	400a078 <__ssprint_r>
 40019d4:	103e5f26 	beq	r2,zero,4001354 <__ram_exceptions_end+0xfbfe110c>
 40019d8:	003cb306 	br	4000ca8 <__ram_exceptions_end+0xfbfe0a60>
 40019dc:	d9402c17 	ldw	r5,176(sp)
 40019e0:	d9801e04 	addi	r6,sp,120
 40019e4:	9809883a 	mov	r4,r19
 40019e8:	400a0780 	call	400a078 <__ssprint_r>
 40019ec:	103cae1e 	bne	r2,zero,4000ca8 <__ram_exceptions_end+0xfbfe0a60>
 40019f0:	d8c02017 	ldw	r3,128(sp)
 40019f4:	da000404 	addi	r8,sp,16
 40019f8:	003e0d06 	br	4001230 <__ram_exceptions_end+0xfbfe0fe8>
 40019fc:	d9402c17 	ldw	r5,176(sp)
 4001a00:	d9801e04 	addi	r6,sp,120
 4001a04:	9809883a 	mov	r4,r19
 4001a08:	400a0780 	call	400a078 <__ssprint_r>
 4001a0c:	103ca61e 	bne	r2,zero,4000ca8 <__ram_exceptions_end+0xfbfe0a60>
 4001a10:	d8c02017 	ldw	r3,128(sp)
 4001a14:	da000404 	addi	r8,sp,16
 4001a18:	003dc106 	br	4001120 <__ram_exceptions_end+0xfbfe0ed8>
 4001a1c:	d9402c17 	ldw	r5,176(sp)
 4001a20:	d9801e04 	addi	r6,sp,120
 4001a24:	9809883a 	mov	r4,r19
 4001a28:	400a0780 	call	400a078 <__ssprint_r>
 4001a2c:	103c9e1e 	bne	r2,zero,4000ca8 <__ram_exceptions_end+0xfbfe0a60>
 4001a30:	d8c02017 	ldw	r3,128(sp)
 4001a34:	da000404 	addi	r8,sp,16
 4001a38:	003dc706 	br	4001158 <__ram_exceptions_end+0xfbfe0f10>
 4001a3c:	d8802917 	ldw	r2,164(sp)
 4001a40:	d8002785 	stb	zero,158(sp)
 4001a44:	103f0816 	blt	r2,zero,4001668 <__ram_exceptions_end+0xfbfe1420>
 4001a48:	00ffdfc4 	movi	r3,-129
 4001a4c:	a584b03a 	or	r2,r20,r22
 4001a50:	90e4703a 	and	r18,r18,r3
 4001a54:	103c8126 	beq	r2,zero,4000c5c <__ram_exceptions_end+0xfbfe0a14>
 4001a58:	0039883a 	mov	fp,zero
 4001a5c:	003e7606 	br	4001438 <__ram_exceptions_end+0xfbfe11f0>
 4001a60:	9080040c 	andi	r2,r18,16
 4001a64:	10013d26 	beq	r2,zero,4001f5c <___svfprintf_internal_r+0x1648>
 4001a68:	d9002d17 	ldw	r4,180(sp)
 4001a6c:	d9402917 	ldw	r5,164(sp)
 4001a70:	d8002785 	stb	zero,158(sp)
 4001a74:	20800104 	addi	r2,r4,4
 4001a78:	25000017 	ldw	r20,0(r4)
 4001a7c:	002d883a 	mov	r22,zero
 4001a80:	28013f16 	blt	r5,zero,4001f80 <___svfprintf_internal_r+0x166c>
 4001a84:	00ffdfc4 	movi	r3,-129
 4001a88:	d8802d15 	stw	r2,180(sp)
 4001a8c:	90e4703a 	and	r18,r18,r3
 4001a90:	a03d2b26 	beq	r20,zero,4000f40 <__ram_exceptions_end+0xfbfe0cf8>
 4001a94:	0039883a 	mov	fp,zero
 4001a98:	003d2e06 	br	4000f54 <__ram_exceptions_end+0xfbfe0d0c>
 4001a9c:	dc402617 	ldw	r17,152(sp)
 4001aa0:	0441830e 	bge	zero,r17,40020b0 <___svfprintf_internal_r+0x179c>
 4001aa4:	dc403217 	ldw	r17,200(sp)
 4001aa8:	d8803317 	ldw	r2,204(sp)
 4001aac:	1440010e 	bge	r2,r17,4001ab4 <___svfprintf_internal_r+0x11a0>
 4001ab0:	1023883a 	mov	r17,r2
 4001ab4:	04400a0e 	bge	zero,r17,4001ae0 <___svfprintf_internal_r+0x11cc>
 4001ab8:	d8801f17 	ldw	r2,124(sp)
 4001abc:	1c47883a 	add	r3,r3,r17
 4001ac0:	44000015 	stw	r16,0(r8)
 4001ac4:	10800044 	addi	r2,r2,1
 4001ac8:	44400115 	stw	r17,4(r8)
 4001acc:	d8c02015 	stw	r3,128(sp)
 4001ad0:	d8801f15 	stw	r2,124(sp)
 4001ad4:	010001c4 	movi	r4,7
 4001ad8:	20827516 	blt	r4,r2,40024b0 <___svfprintf_internal_r+0x1b9c>
 4001adc:	42000204 	addi	r8,r8,8
 4001ae0:	88027b16 	blt	r17,zero,40024d0 <___svfprintf_internal_r+0x1bbc>
 4001ae4:	d9003217 	ldw	r4,200(sp)
 4001ae8:	2463c83a 	sub	r17,r4,r17
 4001aec:	0440990e 	bge	zero,r17,4001d54 <___svfprintf_internal_r+0x1440>
 4001af0:	05800404 	movi	r22,16
 4001af4:	d8801f17 	ldw	r2,124(sp)
 4001af8:	b441530e 	bge	r22,r17,4002048 <___svfprintf_internal_r+0x1734>
 4001afc:	01010074 	movhi	r4,1025
 4001b00:	210dda84 	addi	r4,r4,14186
 4001b04:	d9002b15 	stw	r4,172(sp)
 4001b08:	070001c4 	movi	fp,7
 4001b0c:	dd002c17 	ldw	r20,176(sp)
 4001b10:	00000306 	br	4001b20 <___svfprintf_internal_r+0x120c>
 4001b14:	42000204 	addi	r8,r8,8
 4001b18:	8c7ffc04 	addi	r17,r17,-16
 4001b1c:	b4414d0e 	bge	r22,r17,4002054 <___svfprintf_internal_r+0x1740>
 4001b20:	18c00404 	addi	r3,r3,16
 4001b24:	10800044 	addi	r2,r2,1
 4001b28:	45400015 	stw	r21,0(r8)
 4001b2c:	45800115 	stw	r22,4(r8)
 4001b30:	d8c02015 	stw	r3,128(sp)
 4001b34:	d8801f15 	stw	r2,124(sp)
 4001b38:	e0bff60e 	bge	fp,r2,4001b14 <__ram_exceptions_end+0xfbfe18cc>
 4001b3c:	d9801e04 	addi	r6,sp,120
 4001b40:	a00b883a 	mov	r5,r20
 4001b44:	9809883a 	mov	r4,r19
 4001b48:	400a0780 	call	400a078 <__ssprint_r>
 4001b4c:	103c561e 	bne	r2,zero,4000ca8 <__ram_exceptions_end+0xfbfe0a60>
 4001b50:	d8c02017 	ldw	r3,128(sp)
 4001b54:	d8801f17 	ldw	r2,124(sp)
 4001b58:	da000404 	addi	r8,sp,16
 4001b5c:	003fee06 	br	4001b18 <__ram_exceptions_end+0xfbfe18d0>
 4001b60:	d9402c17 	ldw	r5,176(sp)
 4001b64:	d9801e04 	addi	r6,sp,120
 4001b68:	9809883a 	mov	r4,r19
 4001b6c:	400a0780 	call	400a078 <__ssprint_r>
 4001b70:	103c4d1e 	bne	r2,zero,4000ca8 <__ram_exceptions_end+0xfbfe0a60>
 4001b74:	d8c02017 	ldw	r3,128(sp)
 4001b78:	df002787 	ldb	fp,158(sp)
 4001b7c:	da000404 	addi	r8,sp,16
 4001b80:	003d5a06 	br	40010ec <__ram_exceptions_end+0xfbfe0ea4>
 4001b84:	9080040c 	andi	r2,r18,16
 4001b88:	10005c26 	beq	r2,zero,4001cfc <___svfprintf_internal_r+0x13e8>
 4001b8c:	d9402d17 	ldw	r5,180(sp)
 4001b90:	d8c02917 	ldw	r3,164(sp)
 4001b94:	d8002785 	stb	zero,158(sp)
 4001b98:	28800104 	addi	r2,r5,4
 4001b9c:	2d000017 	ldw	r20,0(r5)
 4001ba0:	002d883a 	mov	r22,zero
 4001ba4:	18005e16 	blt	r3,zero,4001d20 <___svfprintf_internal_r+0x140c>
 4001ba8:	00ffdfc4 	movi	r3,-129
 4001bac:	d8802d15 	stw	r2,180(sp)
 4001bb0:	90e4703a 	and	r18,r18,r3
 4001bb4:	0039883a 	mov	fp,zero
 4001bb8:	a03dfe26 	beq	r20,zero,40013b4 <__ram_exceptions_end+0xfbfe116c>
 4001bbc:	00800244 	movi	r2,9
 4001bc0:	153cb336 	bltu	r2,r20,4000e90 <__ram_exceptions_end+0xfbfe0c48>
 4001bc4:	a5000c04 	addi	r20,r20,48
 4001bc8:	dc001dc4 	addi	r16,sp,119
 4001bcc:	dd001dc5 	stb	r20,119(sp)
 4001bd0:	d8c02817 	ldw	r3,160(sp)
 4001bd4:	1c07c83a 	sub	r3,r3,r16
 4001bd8:	d8c02e15 	stw	r3,184(sp)
 4001bdc:	003cf506 	br	4000fb4 <__ram_exceptions_end+0xfbfe0d6c>
 4001be0:	d8803317 	ldw	r2,204(sp)
 4001be4:	143fffc4 	addi	r16,r2,-1
 4001be8:	043f560e 	bge	zero,r16,4001944 <__ram_exceptions_end+0xfbfe16fc>
 4001bec:	07000404 	movi	fp,16
 4001bf0:	e403530e 	bge	fp,r16,4002940 <___svfprintf_internal_r+0x202c>
 4001bf4:	01410074 	movhi	r5,1025
 4001bf8:	294dda84 	addi	r5,r5,14186
 4001bfc:	d9402b15 	stw	r5,172(sp)
 4001c00:	01c001c4 	movi	r7,7
 4001c04:	dd002c17 	ldw	r20,176(sp)
 4001c08:	00000306 	br	4001c18 <___svfprintf_internal_r+0x1304>
 4001c0c:	843ffc04 	addi	r16,r16,-16
 4001c10:	b5800204 	addi	r22,r22,8
 4001c14:	e400130e 	bge	fp,r16,4001c64 <___svfprintf_internal_r+0x1350>
 4001c18:	18c00404 	addi	r3,r3,16
 4001c1c:	8c400044 	addi	r17,r17,1
 4001c20:	b5400015 	stw	r21,0(r22)
 4001c24:	b7000115 	stw	fp,4(r22)
 4001c28:	d8c02015 	stw	r3,128(sp)
 4001c2c:	dc401f15 	stw	r17,124(sp)
 4001c30:	3c7ff60e 	bge	r7,r17,4001c0c <__ram_exceptions_end+0xfbfe19c4>
 4001c34:	d9801e04 	addi	r6,sp,120
 4001c38:	a00b883a 	mov	r5,r20
 4001c3c:	9809883a 	mov	r4,r19
 4001c40:	d9c03d15 	stw	r7,244(sp)
 4001c44:	400a0780 	call	400a078 <__ssprint_r>
 4001c48:	d9c03d17 	ldw	r7,244(sp)
 4001c4c:	103c161e 	bne	r2,zero,4000ca8 <__ram_exceptions_end+0xfbfe0a60>
 4001c50:	843ffc04 	addi	r16,r16,-16
 4001c54:	d8c02017 	ldw	r3,128(sp)
 4001c58:	dc401f17 	ldw	r17,124(sp)
 4001c5c:	dd800404 	addi	r22,sp,16
 4001c60:	e43fed16 	blt	fp,r16,4001c18 <__ram_exceptions_end+0xfbfe19d0>
 4001c64:	d8802b17 	ldw	r2,172(sp)
 4001c68:	1c07883a 	add	r3,r3,r16
 4001c6c:	8c400044 	addi	r17,r17,1
 4001c70:	b0800015 	stw	r2,0(r22)
 4001c74:	b4000115 	stw	r16,4(r22)
 4001c78:	d8c02015 	stw	r3,128(sp)
 4001c7c:	dc401f15 	stw	r17,124(sp)
 4001c80:	008001c4 	movi	r2,7
 4001c84:	147f2e0e 	bge	r2,r17,4001940 <__ram_exceptions_end+0xfbfe16f8>
 4001c88:	d9402c17 	ldw	r5,176(sp)
 4001c8c:	d9801e04 	addi	r6,sp,120
 4001c90:	9809883a 	mov	r4,r19
 4001c94:	400a0780 	call	400a078 <__ssprint_r>
 4001c98:	103c031e 	bne	r2,zero,4000ca8 <__ram_exceptions_end+0xfbfe0a60>
 4001c9c:	d8c02017 	ldw	r3,128(sp)
 4001ca0:	dc401f17 	ldw	r17,124(sp)
 4001ca4:	dd800404 	addi	r22,sp,16
 4001ca8:	003f2606 	br	4001944 <__ram_exceptions_end+0xfbfe16fc>
 4001cac:	9080040c 	andi	r2,r18,16
 4001cb0:	1000c326 	beq	r2,zero,4001fc0 <___svfprintf_internal_r+0x16ac>
 4001cb4:	d8802d17 	ldw	r2,180(sp)
 4001cb8:	15000017 	ldw	r20,0(r2)
 4001cbc:	10800104 	addi	r2,r2,4
 4001cc0:	d8802d15 	stw	r2,180(sp)
 4001cc4:	a02dd7fa 	srai	r22,r20,31
 4001cc8:	b005883a 	mov	r2,r22
 4001ccc:	103c680e 	bge	r2,zero,4000e70 <__ram_exceptions_end+0xfbfe0c28>
 4001cd0:	0529c83a 	sub	r20,zero,r20
 4001cd4:	a004c03a 	cmpne	r2,r20,zero
 4001cd8:	05adc83a 	sub	r22,zero,r22
 4001cdc:	b0adc83a 	sub	r22,r22,r2
 4001ce0:	d8802917 	ldw	r2,164(sp)
 4001ce4:	07000b44 	movi	fp,45
 4001ce8:	df002785 	stb	fp,158(sp)
 4001cec:	10022e16 	blt	r2,zero,40025a8 <___svfprintf_internal_r+0x1c94>
 4001cf0:	00bfdfc4 	movi	r2,-129
 4001cf4:	90a4703a 	and	r18,r18,r2
 4001cf8:	003c6406 	br	4000e8c <__ram_exceptions_end+0xfbfe0c44>
 4001cfc:	9080100c 	andi	r2,r18,64
 4001d00:	d8002785 	stb	zero,158(sp)
 4001d04:	10012526 	beq	r2,zero,400219c <___svfprintf_internal_r+0x1888>
 4001d08:	d9002d17 	ldw	r4,180(sp)
 4001d0c:	d9402917 	ldw	r5,164(sp)
 4001d10:	002d883a 	mov	r22,zero
 4001d14:	20800104 	addi	r2,r4,4
 4001d18:	2500000b 	ldhu	r20,0(r4)
 4001d1c:	283fa20e 	bge	r5,zero,4001ba8 <__ram_exceptions_end+0xfbfe1960>
 4001d20:	d8802d15 	stw	r2,180(sp)
 4001d24:	0039883a 	mov	fp,zero
 4001d28:	a584b03a 	or	r2,r20,r22
 4001d2c:	103c571e 	bne	r2,zero,4000e8c <__ram_exceptions_end+0xfbfe0c44>
 4001d30:	00800044 	movi	r2,1
 4001d34:	003e5006 	br	4001678 <__ram_exceptions_end+0xfbfe1430>
 4001d38:	d9402c17 	ldw	r5,176(sp)
 4001d3c:	d9801e04 	addi	r6,sp,120
 4001d40:	9809883a 	mov	r4,r19
 4001d44:	400a0780 	call	400a078 <__ssprint_r>
 4001d48:	103bd71e 	bne	r2,zero,4000ca8 <__ram_exceptions_end+0xfbfe0a60>
 4001d4c:	d8c02017 	ldw	r3,128(sp)
 4001d50:	da000404 	addi	r8,sp,16
 4001d54:	d9003217 	ldw	r4,200(sp)
 4001d58:	d8802617 	ldw	r2,152(sp)
 4001d5c:	d9403317 	ldw	r5,204(sp)
 4001d60:	8123883a 	add	r17,r16,r4
 4001d64:	11400216 	blt	r2,r5,4001d70 <___svfprintf_internal_r+0x145c>
 4001d68:	9100004c 	andi	r4,r18,1
 4001d6c:	20000d26 	beq	r4,zero,4001da4 <___svfprintf_internal_r+0x1490>
 4001d70:	d9003817 	ldw	r4,224(sp)
 4001d74:	d9403417 	ldw	r5,208(sp)
 4001d78:	1907883a 	add	r3,r3,r4
 4001d7c:	d9001f17 	ldw	r4,124(sp)
 4001d80:	41400015 	stw	r5,0(r8)
 4001d84:	d9403817 	ldw	r5,224(sp)
 4001d88:	21000044 	addi	r4,r4,1
 4001d8c:	d8c02015 	stw	r3,128(sp)
 4001d90:	41400115 	stw	r5,4(r8)
 4001d94:	d9001f15 	stw	r4,124(sp)
 4001d98:	014001c4 	movi	r5,7
 4001d9c:	2901dc16 	blt	r5,r4,4002510 <___svfprintf_internal_r+0x1bfc>
 4001da0:	42000204 	addi	r8,r8,8
 4001da4:	d9003317 	ldw	r4,204(sp)
 4001da8:	8121883a 	add	r16,r16,r4
 4001dac:	2085c83a 	sub	r2,r4,r2
 4001db0:	8461c83a 	sub	r16,r16,r17
 4001db4:	1400010e 	bge	r2,r16,4001dbc <___svfprintf_internal_r+0x14a8>
 4001db8:	1021883a 	mov	r16,r2
 4001dbc:	04000a0e 	bge	zero,r16,4001de8 <___svfprintf_internal_r+0x14d4>
 4001dc0:	d9001f17 	ldw	r4,124(sp)
 4001dc4:	1c07883a 	add	r3,r3,r16
 4001dc8:	44400015 	stw	r17,0(r8)
 4001dcc:	21000044 	addi	r4,r4,1
 4001dd0:	44000115 	stw	r16,4(r8)
 4001dd4:	d8c02015 	stw	r3,128(sp)
 4001dd8:	d9001f15 	stw	r4,124(sp)
 4001ddc:	014001c4 	movi	r5,7
 4001de0:	2901e616 	blt	r5,r4,400257c <___svfprintf_internal_r+0x1c68>
 4001de4:	42000204 	addi	r8,r8,8
 4001de8:	8001f616 	blt	r16,zero,40025c4 <___svfprintf_internal_r+0x1cb0>
 4001dec:	1421c83a 	sub	r16,r2,r16
 4001df0:	043d1c0e 	bge	zero,r16,4001264 <__ram_exceptions_end+0xfbfe101c>
 4001df4:	04400404 	movi	r17,16
 4001df8:	d8801f17 	ldw	r2,124(sp)
 4001dfc:	8c3edd0e 	bge	r17,r16,4001974 <__ram_exceptions_end+0xfbfe172c>
 4001e00:	01410074 	movhi	r5,1025
 4001e04:	294dda84 	addi	r5,r5,14186
 4001e08:	d9402b15 	stw	r5,172(sp)
 4001e0c:	058001c4 	movi	r22,7
 4001e10:	dd002c17 	ldw	r20,176(sp)
 4001e14:	00000306 	br	4001e24 <___svfprintf_internal_r+0x1510>
 4001e18:	42000204 	addi	r8,r8,8
 4001e1c:	843ffc04 	addi	r16,r16,-16
 4001e20:	8c3ed70e 	bge	r17,r16,4001980 <__ram_exceptions_end+0xfbfe1738>
 4001e24:	18c00404 	addi	r3,r3,16
 4001e28:	10800044 	addi	r2,r2,1
 4001e2c:	45400015 	stw	r21,0(r8)
 4001e30:	44400115 	stw	r17,4(r8)
 4001e34:	d8c02015 	stw	r3,128(sp)
 4001e38:	d8801f15 	stw	r2,124(sp)
 4001e3c:	b0bff60e 	bge	r22,r2,4001e18 <__ram_exceptions_end+0xfbfe1bd0>
 4001e40:	d9801e04 	addi	r6,sp,120
 4001e44:	a00b883a 	mov	r5,r20
 4001e48:	9809883a 	mov	r4,r19
 4001e4c:	400a0780 	call	400a078 <__ssprint_r>
 4001e50:	103b951e 	bne	r2,zero,4000ca8 <__ram_exceptions_end+0xfbfe0a60>
 4001e54:	d8c02017 	ldw	r3,128(sp)
 4001e58:	d8801f17 	ldw	r2,124(sp)
 4001e5c:	da000404 	addi	r8,sp,16
 4001e60:	003fee06 	br	4001e1c <__ram_exceptions_end+0xfbfe1bd4>
 4001e64:	9088703a 	and	r4,r18,r2
 4001e68:	203e8d1e 	bne	r4,zero,40018a0 <__ram_exceptions_end+0xfbfe1658>
 4001e6c:	dc401f17 	ldw	r17,124(sp)
 4001e70:	40800115 	stw	r2,4(r8)
 4001e74:	44000015 	stw	r16,0(r8)
 4001e78:	8c400044 	addi	r17,r17,1
 4001e7c:	d8c02015 	stw	r3,128(sp)
 4001e80:	dc401f15 	stw	r17,124(sp)
 4001e84:	008001c4 	movi	r2,7
 4001e88:	147f7f16 	blt	r2,r17,4001c88 <__ram_exceptions_end+0xfbfe1a40>
 4001e8c:	45800204 	addi	r22,r8,8
 4001e90:	003eac06 	br	4001944 <__ram_exceptions_end+0xfbfe16fc>
 4001e94:	d9402c17 	ldw	r5,176(sp)
 4001e98:	d9801e04 	addi	r6,sp,120
 4001e9c:	9809883a 	mov	r4,r19
 4001ea0:	400a0780 	call	400a078 <__ssprint_r>
 4001ea4:	103b801e 	bne	r2,zero,4000ca8 <__ram_exceptions_end+0xfbfe0a60>
 4001ea8:	d8c02017 	ldw	r3,128(sp)
 4001eac:	dc401f17 	ldw	r17,124(sp)
 4001eb0:	da000404 	addi	r8,sp,16
 4001eb4:	003e8406 	br	40018c8 <__ram_exceptions_end+0xfbfe1680>
 4001eb8:	d9402c17 	ldw	r5,176(sp)
 4001ebc:	d9801e04 	addi	r6,sp,120
 4001ec0:	9809883a 	mov	r4,r19
 4001ec4:	400a0780 	call	400a078 <__ssprint_r>
 4001ec8:	103b771e 	bne	r2,zero,4000ca8 <__ram_exceptions_end+0xfbfe0a60>
 4001ecc:	d8c02017 	ldw	r3,128(sp)
 4001ed0:	dc401f17 	ldw	r17,124(sp)
 4001ed4:	dd800404 	addi	r22,sp,16
 4001ed8:	003e8606 	br	40018f4 <__ram_exceptions_end+0xfbfe16ac>
 4001edc:	0029883a 	mov	r20,zero
 4001ee0:	a5000c04 	addi	r20,r20,48
 4001ee4:	dc001dc4 	addi	r16,sp,119
 4001ee8:	dd001dc5 	stb	r20,119(sp)
 4001eec:	003f3806 	br	4001bd0 <__ram_exceptions_end+0xfbfe1988>
 4001ef0:	d9402c17 	ldw	r5,176(sp)
 4001ef4:	d9801e04 	addi	r6,sp,120
 4001ef8:	9809883a 	mov	r4,r19
 4001efc:	400a0780 	call	400a078 <__ssprint_r>
 4001f00:	103b691e 	bne	r2,zero,4000ca8 <__ram_exceptions_end+0xfbfe0a60>
 4001f04:	d8c02017 	ldw	r3,128(sp)
 4001f08:	da000404 	addi	r8,sp,16
 4001f0c:	003c9506 	br	4001164 <__ram_exceptions_end+0xfbfe0f1c>
 4001f10:	d9003617 	ldw	r4,216(sp)
 4001f14:	d9403717 	ldw	r5,220(sp)
 4001f18:	da003e15 	stw	r8,248(sp)
 4001f1c:	4009e740 	call	4009e74 <__fpclassifyd>
 4001f20:	da003e17 	ldw	r8,248(sp)
 4001f24:	1000bd1e 	bne	r2,zero,400221c <___svfprintf_internal_r+0x1908>
 4001f28:	008011c4 	movi	r2,71
 4001f2c:	14411e0e 	bge	r2,r17,40023a8 <___svfprintf_internal_r+0x1a94>
 4001f30:	04010074 	movhi	r16,1025
 4001f34:	840dcd04 	addi	r16,r16,14132
 4001f38:	00c000c4 	movi	r3,3
 4001f3c:	00bfdfc4 	movi	r2,-129
 4001f40:	d8c02a15 	stw	r3,168(sp)
 4001f44:	90a4703a 	and	r18,r18,r2
 4001f48:	df002783 	ldbu	fp,158(sp)
 4001f4c:	d8c02e15 	stw	r3,184(sp)
 4001f50:	d8002915 	stw	zero,164(sp)
 4001f54:	d8003215 	stw	zero,200(sp)
 4001f58:	003c1c06 	br	4000fcc <__ram_exceptions_end+0xfbfe0d84>
 4001f5c:	9080100c 	andi	r2,r18,64
 4001f60:	d8002785 	stb	zero,158(sp)
 4001f64:	10009426 	beq	r2,zero,40021b8 <___svfprintf_internal_r+0x18a4>
 4001f68:	d8c02d17 	ldw	r3,180(sp)
 4001f6c:	d9002917 	ldw	r4,164(sp)
 4001f70:	002d883a 	mov	r22,zero
 4001f74:	18800104 	addi	r2,r3,4
 4001f78:	1d00000b 	ldhu	r20,0(r3)
 4001f7c:	203ec10e 	bge	r4,zero,4001a84 <__ram_exceptions_end+0xfbfe183c>
 4001f80:	a586b03a 	or	r3,r20,r22
 4001f84:	d8802d15 	stw	r2,180(sp)
 4001f88:	183ec21e 	bne	r3,zero,4001a94 <__ram_exceptions_end+0xfbfe184c>
 4001f8c:	0039883a 	mov	fp,zero
 4001f90:	0005883a 	mov	r2,zero
 4001f94:	003db806 	br	4001678 <__ram_exceptions_end+0xfbfe1430>
 4001f98:	d8802d17 	ldw	r2,180(sp)
 4001f9c:	d8c02d17 	ldw	r3,180(sp)
 4001fa0:	d9002d17 	ldw	r4,180(sp)
 4001fa4:	10800017 	ldw	r2,0(r2)
 4001fa8:	18c00117 	ldw	r3,4(r3)
 4001fac:	21000204 	addi	r4,r4,8
 4001fb0:	d8803615 	stw	r2,216(sp)
 4001fb4:	d8c03715 	stw	r3,220(sp)
 4001fb8:	d9002d15 	stw	r4,180(sp)
 4001fbc:	003b8206 	br	4000dc8 <__ram_exceptions_end+0xfbfe0b80>
 4001fc0:	9080100c 	andi	r2,r18,64
 4001fc4:	10010726 	beq	r2,zero,40023e4 <___svfprintf_internal_r+0x1ad0>
 4001fc8:	d8c02d17 	ldw	r3,180(sp)
 4001fcc:	1d00000f 	ldh	r20,0(r3)
 4001fd0:	18c00104 	addi	r3,r3,4
 4001fd4:	d8c02d15 	stw	r3,180(sp)
 4001fd8:	a02dd7fa 	srai	r22,r20,31
 4001fdc:	b005883a 	mov	r2,r22
 4001fe0:	003ba206 	br	4000e6c <__ram_exceptions_end+0xfbfe0c24>
 4001fe4:	9080100c 	andi	r2,r18,64
 4001fe8:	10010526 	beq	r2,zero,4002400 <___svfprintf_internal_r+0x1aec>
 4001fec:	d9002d17 	ldw	r4,180(sp)
 4001ff0:	002d883a 	mov	r22,zero
 4001ff4:	2500000b 	ldhu	r20,0(r4)
 4001ff8:	21000104 	addi	r4,r4,4
 4001ffc:	d9002d15 	stw	r4,180(sp)
 4002000:	003cfe06 	br	40013fc <__ram_exceptions_end+0xfbfe11b4>
 4002004:	bc400007 	ldb	r17,0(r23)
 4002008:	003a9606 	br	4000a64 <__ram_exceptions_end+0xfbfe081c>
 400200c:	9080040c 	andi	r2,r18,16
 4002010:	10010126 	beq	r2,zero,4002418 <___svfprintf_internal_r+0x1b04>
 4002014:	d9402d17 	ldw	r5,180(sp)
 4002018:	d8c02f17 	ldw	r3,188(sp)
 400201c:	28800017 	ldw	r2,0(r5)
 4002020:	29400104 	addi	r5,r5,4
 4002024:	d9402d15 	stw	r5,180(sp)
 4002028:	10c00015 	stw	r3,0(r2)
 400202c:	003a6406 	br	40009c0 <__ram_exceptions_end+0xfbfe0778>
 4002030:	d9002917 	ldw	r4,164(sp)
 4002034:	d8002785 	stb	zero,158(sp)
 4002038:	203d8d16 	blt	r4,zero,4001670 <__ram_exceptions_end+0xfbfe1428>
 400203c:	00bfdfc4 	movi	r2,-129
 4002040:	90a4703a 	and	r18,r18,r2
 4002044:	003b0506 	br	4000c5c <__ram_exceptions_end+0xfbfe0a14>
 4002048:	01410074 	movhi	r5,1025
 400204c:	294dda84 	addi	r5,r5,14186
 4002050:	d9402b15 	stw	r5,172(sp)
 4002054:	d9402b17 	ldw	r5,172(sp)
 4002058:	1c47883a 	add	r3,r3,r17
 400205c:	10800044 	addi	r2,r2,1
 4002060:	41400015 	stw	r5,0(r8)
 4002064:	44400115 	stw	r17,4(r8)
 4002068:	d8c02015 	stw	r3,128(sp)
 400206c:	d8801f15 	stw	r2,124(sp)
 4002070:	010001c4 	movi	r4,7
 4002074:	20bf3016 	blt	r4,r2,4001d38 <__ram_exceptions_end+0xfbfe1af0>
 4002078:	42000204 	addi	r8,r8,8
 400207c:	003f3506 	br	4001d54 <__ram_exceptions_end+0xfbfe1b0c>
 4002080:	01010074 	movhi	r4,1025
 4002084:	210dda84 	addi	r4,r4,14186
 4002088:	d9002b15 	stw	r4,172(sp)
 400208c:	003c5e06 	br	4001208 <__ram_exceptions_end+0xfbfe0fc0>
 4002090:	d9402c17 	ldw	r5,176(sp)
 4002094:	d9801e04 	addi	r6,sp,120
 4002098:	9809883a 	mov	r4,r19
 400209c:	400a0780 	call	400a078 <__ssprint_r>
 40020a0:	103b011e 	bne	r2,zero,4000ca8 <__ram_exceptions_end+0xfbfe0a60>
 40020a4:	d8c02017 	ldw	r3,128(sp)
 40020a8:	da000404 	addi	r8,sp,16
 40020ac:	003d9306 	br	40016fc <__ram_exceptions_end+0xfbfe14b4>
 40020b0:	d8801f17 	ldw	r2,124(sp)
 40020b4:	01410074 	movhi	r5,1025
 40020b8:	01000044 	movi	r4,1
 40020bc:	18c00044 	addi	r3,r3,1
 40020c0:	10800044 	addi	r2,r2,1
 40020c4:	294dda04 	addi	r5,r5,14184
 40020c8:	41000115 	stw	r4,4(r8)
 40020cc:	41400015 	stw	r5,0(r8)
 40020d0:	d8c02015 	stw	r3,128(sp)
 40020d4:	d8801f15 	stw	r2,124(sp)
 40020d8:	010001c4 	movi	r4,7
 40020dc:	2080b516 	blt	r4,r2,40023b4 <___svfprintf_internal_r+0x1aa0>
 40020e0:	42000204 	addi	r8,r8,8
 40020e4:	8800041e 	bne	r17,zero,40020f8 <___svfprintf_internal_r+0x17e4>
 40020e8:	d8803317 	ldw	r2,204(sp)
 40020ec:	1000021e 	bne	r2,zero,40020f8 <___svfprintf_internal_r+0x17e4>
 40020f0:	9080004c 	andi	r2,r18,1
 40020f4:	103c5b26 	beq	r2,zero,4001264 <__ram_exceptions_end+0xfbfe101c>
 40020f8:	d9003817 	ldw	r4,224(sp)
 40020fc:	d8801f17 	ldw	r2,124(sp)
 4002100:	d9403417 	ldw	r5,208(sp)
 4002104:	20c7883a 	add	r3,r4,r3
 4002108:	10800044 	addi	r2,r2,1
 400210c:	41000115 	stw	r4,4(r8)
 4002110:	41400015 	stw	r5,0(r8)
 4002114:	d8c02015 	stw	r3,128(sp)
 4002118:	d8801f15 	stw	r2,124(sp)
 400211c:	010001c4 	movi	r4,7
 4002120:	20818016 	blt	r4,r2,4002724 <___svfprintf_internal_r+0x1e10>
 4002124:	42000204 	addi	r8,r8,8
 4002128:	0463c83a 	sub	r17,zero,r17
 400212c:	0440cb0e 	bge	zero,r17,400245c <___svfprintf_internal_r+0x1b48>
 4002130:	05800404 	movi	r22,16
 4002134:	b440e80e 	bge	r22,r17,40024d8 <___svfprintf_internal_r+0x1bc4>
 4002138:	01410074 	movhi	r5,1025
 400213c:	294dda84 	addi	r5,r5,14186
 4002140:	d9402b15 	stw	r5,172(sp)
 4002144:	070001c4 	movi	fp,7
 4002148:	dd002c17 	ldw	r20,176(sp)
 400214c:	00000306 	br	400215c <___svfprintf_internal_r+0x1848>
 4002150:	42000204 	addi	r8,r8,8
 4002154:	8c7ffc04 	addi	r17,r17,-16
 4002158:	b440e20e 	bge	r22,r17,40024e4 <___svfprintf_internal_r+0x1bd0>
 400215c:	18c00404 	addi	r3,r3,16
 4002160:	10800044 	addi	r2,r2,1
 4002164:	45400015 	stw	r21,0(r8)
 4002168:	45800115 	stw	r22,4(r8)
 400216c:	d8c02015 	stw	r3,128(sp)
 4002170:	d8801f15 	stw	r2,124(sp)
 4002174:	e0bff60e 	bge	fp,r2,4002150 <__ram_exceptions_end+0xfbfe1f08>
 4002178:	d9801e04 	addi	r6,sp,120
 400217c:	a00b883a 	mov	r5,r20
 4002180:	9809883a 	mov	r4,r19
 4002184:	400a0780 	call	400a078 <__ssprint_r>
 4002188:	103ac71e 	bne	r2,zero,4000ca8 <__ram_exceptions_end+0xfbfe0a60>
 400218c:	d8c02017 	ldw	r3,128(sp)
 4002190:	d8801f17 	ldw	r2,124(sp)
 4002194:	da000404 	addi	r8,sp,16
 4002198:	003fee06 	br	4002154 <__ram_exceptions_end+0xfbfe1f0c>
 400219c:	d8c02d17 	ldw	r3,180(sp)
 40021a0:	d9002917 	ldw	r4,164(sp)
 40021a4:	002d883a 	mov	r22,zero
 40021a8:	18800104 	addi	r2,r3,4
 40021ac:	1d000017 	ldw	r20,0(r3)
 40021b0:	203e7d0e 	bge	r4,zero,4001ba8 <__ram_exceptions_end+0xfbfe1960>
 40021b4:	003eda06 	br	4001d20 <__ram_exceptions_end+0xfbfe1ad8>
 40021b8:	d9402d17 	ldw	r5,180(sp)
 40021bc:	d8c02917 	ldw	r3,164(sp)
 40021c0:	002d883a 	mov	r22,zero
 40021c4:	28800104 	addi	r2,r5,4
 40021c8:	2d000017 	ldw	r20,0(r5)
 40021cc:	183e2d0e 	bge	r3,zero,4001a84 <__ram_exceptions_end+0xfbfe183c>
 40021d0:	003f6b06 	br	4001f80 <__ram_exceptions_end+0xfbfe1d38>
 40021d4:	d8c02d15 	stw	r3,180(sp)
 40021d8:	0039883a 	mov	fp,zero
 40021dc:	003ed206 	br	4001d28 <__ram_exceptions_end+0xfbfe1ae0>
 40021e0:	bc400043 	ldbu	r17,1(r23)
 40021e4:	94800814 	ori	r18,r18,32
 40021e8:	bdc00044 	addi	r23,r23,1
 40021ec:	8c403fcc 	andi	r17,r17,255
 40021f0:	8c40201c 	xori	r17,r17,128
 40021f4:	8c7fe004 	addi	r17,r17,-128
 40021f8:	003a1a06 	br	4000a64 <__ram_exceptions_end+0xfbfe081c>
 40021fc:	d9402c17 	ldw	r5,176(sp)
 4002200:	d9801e04 	addi	r6,sp,120
 4002204:	9809883a 	mov	r4,r19
 4002208:	400a0780 	call	400a078 <__ssprint_r>
 400220c:	103aa61e 	bne	r2,zero,4000ca8 <__ram_exceptions_end+0xfbfe0a60>
 4002210:	d8c02017 	ldw	r3,128(sp)
 4002214:	da000404 	addi	r8,sp,16
 4002218:	003d4a06 	br	4001744 <__ram_exceptions_end+0xfbfe14fc>
 400221c:	d9002917 	ldw	r4,164(sp)
 4002220:	05bff7c4 	movi	r22,-33
 4002224:	00bfffc4 	movi	r2,-1
 4002228:	8dac703a 	and	r22,r17,r22
 400222c:	20806a26 	beq	r4,r2,40023d8 <___svfprintf_internal_r+0x1ac4>
 4002230:	008011c4 	movi	r2,71
 4002234:	b0813726 	beq	r22,r2,4002714 <___svfprintf_internal_r+0x1e00>
 4002238:	d9003717 	ldw	r4,220(sp)
 400223c:	90c04014 	ori	r3,r18,256
 4002240:	d8c02b15 	stw	r3,172(sp)
 4002244:	20015d16 	blt	r4,zero,40027bc <___svfprintf_internal_r+0x1ea8>
 4002248:	dd003717 	ldw	r20,220(sp)
 400224c:	d8002a05 	stb	zero,168(sp)
 4002250:	00801984 	movi	r2,102
 4002254:	88814026 	beq	r17,r2,4002758 <___svfprintf_internal_r+0x1e44>
 4002258:	00801184 	movi	r2,70
 400225c:	88817126 	beq	r17,r2,4002824 <___svfprintf_internal_r+0x1f10>
 4002260:	00801144 	movi	r2,69
 4002264:	b0816226 	beq	r22,r2,40027f0 <___svfprintf_internal_r+0x1edc>
 4002268:	d8c02917 	ldw	r3,164(sp)
 400226c:	d8802104 	addi	r2,sp,132
 4002270:	d8800315 	stw	r2,12(sp)
 4002274:	d9403617 	ldw	r5,216(sp)
 4002278:	d8802504 	addi	r2,sp,148
 400227c:	d8800215 	stw	r2,8(sp)
 4002280:	d8802604 	addi	r2,sp,152
 4002284:	d8c00015 	stw	r3,0(sp)
 4002288:	d8800115 	stw	r2,4(sp)
 400228c:	01c00084 	movi	r7,2
 4002290:	a00d883a 	mov	r6,r20
 4002294:	9809883a 	mov	r4,r19
 4002298:	d8c03d15 	stw	r3,244(sp)
 400229c:	da003e15 	stw	r8,248(sp)
 40022a0:	40051100 	call	4005110 <_dtoa_r>
 40022a4:	1021883a 	mov	r16,r2
 40022a8:	008019c4 	movi	r2,103
 40022ac:	d8c03d17 	ldw	r3,244(sp)
 40022b0:	da003e17 	ldw	r8,248(sp)
 40022b4:	8880e726 	beq	r17,r2,4002654 <___svfprintf_internal_r+0x1d40>
 40022b8:	008011c4 	movi	r2,71
 40022bc:	8880d426 	beq	r17,r2,4002610 <___svfprintf_internal_r+0x1cfc>
 40022c0:	80f9883a 	add	fp,r16,r3
 40022c4:	d9003617 	ldw	r4,216(sp)
 40022c8:	000d883a 	mov	r6,zero
 40022cc:	000f883a 	mov	r7,zero
 40022d0:	a00b883a 	mov	r5,r20
 40022d4:	da003e15 	stw	r8,248(sp)
 40022d8:	400f1f80 	call	400f1f8 <__eqdf2>
 40022dc:	da003e17 	ldw	r8,248(sp)
 40022e0:	1000e426 	beq	r2,zero,4002674 <___svfprintf_internal_r+0x1d60>
 40022e4:	d8802117 	ldw	r2,132(sp)
 40022e8:	1700062e 	bgeu	r2,fp,4002304 <___svfprintf_internal_r+0x19f0>
 40022ec:	01000c04 	movi	r4,48
 40022f0:	10c00044 	addi	r3,r2,1
 40022f4:	d8c02115 	stw	r3,132(sp)
 40022f8:	11000005 	stb	r4,0(r2)
 40022fc:	d8802117 	ldw	r2,132(sp)
 4002300:	173ffb36 	bltu	r2,fp,40022f0 <__ram_exceptions_end+0xfbfe20a8>
 4002304:	1405c83a 	sub	r2,r2,r16
 4002308:	d8803315 	stw	r2,204(sp)
 400230c:	008011c4 	movi	r2,71
 4002310:	b080c526 	beq	r22,r2,4002628 <___svfprintf_internal_r+0x1d14>
 4002314:	00801944 	movi	r2,101
 4002318:	1441d90e 	bge	r2,r17,4002a80 <___svfprintf_internal_r+0x216c>
 400231c:	d8c02617 	ldw	r3,152(sp)
 4002320:	00801984 	movi	r2,102
 4002324:	d8c03215 	stw	r3,200(sp)
 4002328:	88813426 	beq	r17,r2,40027fc <___svfprintf_internal_r+0x1ee8>
 400232c:	d8c03217 	ldw	r3,200(sp)
 4002330:	d9003317 	ldw	r4,204(sp)
 4002334:	19012516 	blt	r3,r4,40027cc <___svfprintf_internal_r+0x1eb8>
 4002338:	9480004c 	andi	r18,r18,1
 400233c:	9001841e 	bne	r18,zero,4002950 <___svfprintf_internal_r+0x203c>
 4002340:	1805883a 	mov	r2,r3
 4002344:	1801cc16 	blt	r3,zero,4002a78 <___svfprintf_internal_r+0x2164>
 4002348:	d8c03217 	ldw	r3,200(sp)
 400234c:	044019c4 	movi	r17,103
 4002350:	d8c02e15 	stw	r3,184(sp)
 4002354:	df002a07 	ldb	fp,168(sp)
 4002358:	e000a61e 	bne	fp,zero,40025f4 <___svfprintf_internal_r+0x1ce0>
 400235c:	df002783 	ldbu	fp,158(sp)
 4002360:	d8802a15 	stw	r2,168(sp)
 4002364:	dc802b17 	ldw	r18,172(sp)
 4002368:	d8002915 	stw	zero,164(sp)
 400236c:	003b1706 	br	4000fcc <__ram_exceptions_end+0xfbfe0d84>
 4002370:	04010074 	movhi	r16,1025
 4002374:	840dca04 	addi	r16,r16,14120
 4002378:	003aa606 	br	4000e14 <__ram_exceptions_end+0xfbfe0bcc>
 400237c:	d9003917 	ldw	r4,228(sp)
 4002380:	04001004 	movi	r16,64
 4002384:	800b883a 	mov	r5,r16
 4002388:	4007af00 	call	4007af0 <_malloc_r>
 400238c:	d9002c17 	ldw	r4,176(sp)
 4002390:	20800015 	stw	r2,0(r4)
 4002394:	20800415 	stw	r2,16(r4)
 4002398:	1001cb26 	beq	r2,zero,4002ac8 <___svfprintf_internal_r+0x21b4>
 400239c:	d8802c17 	ldw	r2,176(sp)
 40023a0:	14000515 	stw	r16,20(r2)
 40023a4:	00397606 	br	4000980 <__ram_exceptions_end+0xfbfe0738>
 40023a8:	04010074 	movhi	r16,1025
 40023ac:	840dcc04 	addi	r16,r16,14128
 40023b0:	003ee106 	br	4001f38 <__ram_exceptions_end+0xfbfe1cf0>
 40023b4:	d9402c17 	ldw	r5,176(sp)
 40023b8:	d9801e04 	addi	r6,sp,120
 40023bc:	9809883a 	mov	r4,r19
 40023c0:	400a0780 	call	400a078 <__ssprint_r>
 40023c4:	103a381e 	bne	r2,zero,4000ca8 <__ram_exceptions_end+0xfbfe0a60>
 40023c8:	dc402617 	ldw	r17,152(sp)
 40023cc:	d8c02017 	ldw	r3,128(sp)
 40023d0:	da000404 	addi	r8,sp,16
 40023d4:	003f4306 	br	40020e4 <__ram_exceptions_end+0xfbfe1e9c>
 40023d8:	01400184 	movi	r5,6
 40023dc:	d9402915 	stw	r5,164(sp)
 40023e0:	003f9506 	br	4002238 <__ram_exceptions_end+0xfbfe1ff0>
 40023e4:	d9002d17 	ldw	r4,180(sp)
 40023e8:	25000017 	ldw	r20,0(r4)
 40023ec:	21000104 	addi	r4,r4,4
 40023f0:	d9002d15 	stw	r4,180(sp)
 40023f4:	a02dd7fa 	srai	r22,r20,31
 40023f8:	b005883a 	mov	r2,r22
 40023fc:	003a9b06 	br	4000e6c <__ram_exceptions_end+0xfbfe0c24>
 4002400:	d9402d17 	ldw	r5,180(sp)
 4002404:	002d883a 	mov	r22,zero
 4002408:	2d000017 	ldw	r20,0(r5)
 400240c:	29400104 	addi	r5,r5,4
 4002410:	d9402d15 	stw	r5,180(sp)
 4002414:	003bf906 	br	40013fc <__ram_exceptions_end+0xfbfe11b4>
 4002418:	9480100c 	andi	r18,r18,64
 400241c:	90006e26 	beq	r18,zero,40025d8 <___svfprintf_internal_r+0x1cc4>
 4002420:	d9002d17 	ldw	r4,180(sp)
 4002424:	d9402f17 	ldw	r5,188(sp)
 4002428:	20800017 	ldw	r2,0(r4)
 400242c:	21000104 	addi	r4,r4,4
 4002430:	d9002d15 	stw	r4,180(sp)
 4002434:	1140000d 	sth	r5,0(r2)
 4002438:	00396106 	br	40009c0 <__ram_exceptions_end+0xfbfe0778>
 400243c:	d9402c17 	ldw	r5,176(sp)
 4002440:	d9801e04 	addi	r6,sp,120
 4002444:	9809883a 	mov	r4,r19
 4002448:	400a0780 	call	400a078 <__ssprint_r>
 400244c:	103a161e 	bne	r2,zero,4000ca8 <__ram_exceptions_end+0xfbfe0a60>
 4002450:	d8c02017 	ldw	r3,128(sp)
 4002454:	d8801f17 	ldw	r2,124(sp)
 4002458:	da000404 	addi	r8,sp,16
 400245c:	d9403317 	ldw	r5,204(sp)
 4002460:	10800044 	addi	r2,r2,1
 4002464:	44000015 	stw	r16,0(r8)
 4002468:	28c7883a 	add	r3,r5,r3
 400246c:	003b7706 	br	400124c <__ram_exceptions_end+0xfbfe1004>
 4002470:	8009883a 	mov	r4,r16
 4002474:	da003e15 	stw	r8,248(sp)
 4002478:	400087c0 	call	400087c <strlen>
 400247c:	d8802e15 	stw	r2,184(sp)
 4002480:	da003e17 	ldw	r8,248(sp)
 4002484:	103c280e 	bge	r2,zero,4001528 <__ram_exceptions_end+0xfbfe12e0>
 4002488:	0005883a 	mov	r2,zero
 400248c:	003c2606 	br	4001528 <__ram_exceptions_end+0xfbfe12e0>
 4002490:	00bfffc4 	movi	r2,-1
 4002494:	003a0906 	br	4000cbc <__ram_exceptions_end+0xfbfe0a74>
 4002498:	01010074 	movhi	r4,1025
 400249c:	210dde84 	addi	r4,r4,14202
 40024a0:	d9003515 	stw	r4,212(sp)
 40024a4:	003b0606 	br	40010c0 <__ram_exceptions_end+0xfbfe0e78>
 40024a8:	013fffc4 	movi	r4,-1
 40024ac:	003a2706 	br	4000d4c <__ram_exceptions_end+0xfbfe0b04>
 40024b0:	d9402c17 	ldw	r5,176(sp)
 40024b4:	d9801e04 	addi	r6,sp,120
 40024b8:	9809883a 	mov	r4,r19
 40024bc:	400a0780 	call	400a078 <__ssprint_r>
 40024c0:	1039f91e 	bne	r2,zero,4000ca8 <__ram_exceptions_end+0xfbfe0a60>
 40024c4:	d8c02017 	ldw	r3,128(sp)
 40024c8:	da000404 	addi	r8,sp,16
 40024cc:	003d8406 	br	4001ae0 <__ram_exceptions_end+0xfbfe1898>
 40024d0:	0023883a 	mov	r17,zero
 40024d4:	003d8306 	br	4001ae4 <__ram_exceptions_end+0xfbfe189c>
 40024d8:	01010074 	movhi	r4,1025
 40024dc:	210dda84 	addi	r4,r4,14186
 40024e0:	d9002b15 	stw	r4,172(sp)
 40024e4:	d9002b17 	ldw	r4,172(sp)
 40024e8:	1c47883a 	add	r3,r3,r17
 40024ec:	10800044 	addi	r2,r2,1
 40024f0:	41000015 	stw	r4,0(r8)
 40024f4:	44400115 	stw	r17,4(r8)
 40024f8:	d8c02015 	stw	r3,128(sp)
 40024fc:	d8801f15 	stw	r2,124(sp)
 4002500:	010001c4 	movi	r4,7
 4002504:	20bfcd16 	blt	r4,r2,400243c <__ram_exceptions_end+0xfbfe21f4>
 4002508:	42000204 	addi	r8,r8,8
 400250c:	003fd306 	br	400245c <__ram_exceptions_end+0xfbfe2214>
 4002510:	d9402c17 	ldw	r5,176(sp)
 4002514:	d9801e04 	addi	r6,sp,120
 4002518:	9809883a 	mov	r4,r19
 400251c:	400a0780 	call	400a078 <__ssprint_r>
 4002520:	1039e11e 	bne	r2,zero,4000ca8 <__ram_exceptions_end+0xfbfe0a60>
 4002524:	d8802617 	ldw	r2,152(sp)
 4002528:	d8c02017 	ldw	r3,128(sp)
 400252c:	da000404 	addi	r8,sp,16
 4002530:	003e1c06 	br	4001da4 <__ram_exceptions_end+0xfbfe1b5c>
 4002534:	d8802917 	ldw	r2,164(sp)
 4002538:	00c00184 	movi	r3,6
 400253c:	1880012e 	bgeu	r3,r2,4002544 <___svfprintf_internal_r+0x1c30>
 4002540:	1805883a 	mov	r2,r3
 4002544:	d8802e15 	stw	r2,184(sp)
 4002548:	1000f316 	blt	r2,zero,4002918 <___svfprintf_internal_r+0x2004>
 400254c:	04010074 	movhi	r16,1025
 4002550:	d8802a15 	stw	r2,168(sp)
 4002554:	dd002d15 	stw	r20,180(sp)
 4002558:	d8002915 	stw	zero,164(sp)
 400255c:	d8003215 	stw	zero,200(sp)
 4002560:	840dd804 	addi	r16,r16,14176
 4002564:	0039883a 	mov	fp,zero
 4002568:	003a9f06 	br	4000fe8 <__ram_exceptions_end+0xfbfe0da0>
 400256c:	01010074 	movhi	r4,1025
 4002570:	210dde84 	addi	r4,r4,14202
 4002574:	d9003515 	stw	r4,212(sp)
 4002578:	003b5f06 	br	40012f8 <__ram_exceptions_end+0xfbfe10b0>
 400257c:	d9402c17 	ldw	r5,176(sp)
 4002580:	d9801e04 	addi	r6,sp,120
 4002584:	9809883a 	mov	r4,r19
 4002588:	400a0780 	call	400a078 <__ssprint_r>
 400258c:	1039c61e 	bne	r2,zero,4000ca8 <__ram_exceptions_end+0xfbfe0a60>
 4002590:	d8802617 	ldw	r2,152(sp)
 4002594:	d9403317 	ldw	r5,204(sp)
 4002598:	d8c02017 	ldw	r3,128(sp)
 400259c:	da000404 	addi	r8,sp,16
 40025a0:	2885c83a 	sub	r2,r5,r2
 40025a4:	003e1006 	br	4001de8 <__ram_exceptions_end+0xfbfe1ba0>
 40025a8:	00800044 	movi	r2,1
 40025ac:	10803fcc 	andi	r2,r2,255
 40025b0:	00c00044 	movi	r3,1
 40025b4:	10fa3526 	beq	r2,r3,4000e8c <__ram_exceptions_end+0xfbfe0c44>
 40025b8:	00c00084 	movi	r3,2
 40025bc:	10fb9e26 	beq	r2,r3,4001438 <__ram_exceptions_end+0xfbfe11f0>
 40025c0:	003a6406 	br	4000f54 <__ram_exceptions_end+0xfbfe0d0c>
 40025c4:	0021883a 	mov	r16,zero
 40025c8:	003e0806 	br	4001dec <__ram_exceptions_end+0xfbfe1ba4>
 40025cc:	07000b44 	movi	fp,45
 40025d0:	df002785 	stb	fp,158(sp)
 40025d4:	003a0b06 	br	4000e04 <__ram_exceptions_end+0xfbfe0bbc>
 40025d8:	d8c02d17 	ldw	r3,180(sp)
 40025dc:	d9002f17 	ldw	r4,188(sp)
 40025e0:	18800017 	ldw	r2,0(r3)
 40025e4:	18c00104 	addi	r3,r3,4
 40025e8:	d8c02d15 	stw	r3,180(sp)
 40025ec:	11000015 	stw	r4,0(r2)
 40025f0:	0038f306 	br	40009c0 <__ram_exceptions_end+0xfbfe0778>
 40025f4:	00c00b44 	movi	r3,45
 40025f8:	d8c02785 	stb	r3,158(sp)
 40025fc:	d8802a15 	stw	r2,168(sp)
 4002600:	dc802b17 	ldw	r18,172(sp)
 4002604:	d8002915 	stw	zero,164(sp)
 4002608:	07000b44 	movi	fp,45
 400260c:	003a7306 	br	4000fdc <__ram_exceptions_end+0xfbfe0d94>
 4002610:	9080004c 	andi	r2,r18,1
 4002614:	1000941e 	bne	r2,zero,4002868 <___svfprintf_internal_r+0x1f54>
 4002618:	d8802117 	ldw	r2,132(sp)
 400261c:	1405c83a 	sub	r2,r2,r16
 4002620:	d8803315 	stw	r2,204(sp)
 4002624:	b441161e 	bne	r22,r17,4002a80 <___svfprintf_internal_r+0x216c>
 4002628:	dd802617 	ldw	r22,152(sp)
 400262c:	00bfff44 	movi	r2,-3
 4002630:	b0801a16 	blt	r22,r2,400269c <___svfprintf_internal_r+0x1d88>
 4002634:	d9402917 	ldw	r5,164(sp)
 4002638:	2d801816 	blt	r5,r22,400269c <___svfprintf_internal_r+0x1d88>
 400263c:	dd803215 	stw	r22,200(sp)
 4002640:	003f3a06 	br	400232c <__ram_exceptions_end+0xfbfe20e4>
 4002644:	1025883a 	mov	r18,r2
 4002648:	0039883a 	mov	fp,zero
 400264c:	00800084 	movi	r2,2
 4002650:	003fd606 	br	40025ac <__ram_exceptions_end+0xfbfe2364>
 4002654:	9080004c 	andi	r2,r18,1
 4002658:	103f191e 	bne	r2,zero,40022c0 <__ram_exceptions_end+0xfbfe2078>
 400265c:	d8802117 	ldw	r2,132(sp)
 4002660:	003f2806 	br	4002304 <__ram_exceptions_end+0xfbfe20bc>
 4002664:	01010074 	movhi	r4,1025
 4002668:	210dda84 	addi	r4,r4,14186
 400266c:	d9002b15 	stw	r4,172(sp)
 4002670:	003c7c06 	br	4001864 <__ram_exceptions_end+0xfbfe161c>
 4002674:	e005883a 	mov	r2,fp
 4002678:	003f2206 	br	4002304 <__ram_exceptions_end+0xfbfe20bc>
 400267c:	d9402917 	ldw	r5,164(sp)
 4002680:	df002783 	ldbu	fp,158(sp)
 4002684:	dd002d15 	stw	r20,180(sp)
 4002688:	d9402a15 	stw	r5,168(sp)
 400268c:	d9402e15 	stw	r5,184(sp)
 4002690:	d8002915 	stw	zero,164(sp)
 4002694:	d8003215 	stw	zero,200(sp)
 4002698:	003a4c06 	br	4000fcc <__ram_exceptions_end+0xfbfe0d84>
 400269c:	8c7fff84 	addi	r17,r17,-2
 40026a0:	b5bfffc4 	addi	r22,r22,-1
 40026a4:	dd802615 	stw	r22,152(sp)
 40026a8:	dc4022c5 	stb	r17,139(sp)
 40026ac:	b000c316 	blt	r22,zero,40029bc <___svfprintf_internal_r+0x20a8>
 40026b0:	00800ac4 	movi	r2,43
 40026b4:	d8802305 	stb	r2,140(sp)
 40026b8:	00800244 	movi	r2,9
 40026bc:	15806e16 	blt	r2,r22,4002878 <___svfprintf_internal_r+0x1f64>
 40026c0:	00800c04 	movi	r2,48
 40026c4:	b5800c04 	addi	r22,r22,48
 40026c8:	d8802345 	stb	r2,141(sp)
 40026cc:	dd802385 	stb	r22,142(sp)
 40026d0:	d88023c4 	addi	r2,sp,143
 40026d4:	df0022c4 	addi	fp,sp,139
 40026d8:	d8c03317 	ldw	r3,204(sp)
 40026dc:	1739c83a 	sub	fp,r2,fp
 40026e0:	d9003317 	ldw	r4,204(sp)
 40026e4:	e0c7883a 	add	r3,fp,r3
 40026e8:	df003b15 	stw	fp,236(sp)
 40026ec:	d8c02e15 	stw	r3,184(sp)
 40026f0:	00800044 	movi	r2,1
 40026f4:	1100b70e 	bge	r2,r4,40029d4 <___svfprintf_internal_r+0x20c0>
 40026f8:	d8c02e17 	ldw	r3,184(sp)
 40026fc:	18c00044 	addi	r3,r3,1
 4002700:	d8c02e15 	stw	r3,184(sp)
 4002704:	1805883a 	mov	r2,r3
 4002708:	1800b016 	blt	r3,zero,40029cc <___svfprintf_internal_r+0x20b8>
 400270c:	d8003215 	stw	zero,200(sp)
 4002710:	003f1006 	br	4002354 <__ram_exceptions_end+0xfbfe210c>
 4002714:	d8802917 	ldw	r2,164(sp)
 4002718:	103ec71e 	bne	r2,zero,4002238 <__ram_exceptions_end+0xfbfe1ff0>
 400271c:	dc002915 	stw	r16,164(sp)
 4002720:	003ec506 	br	4002238 <__ram_exceptions_end+0xfbfe1ff0>
 4002724:	d9402c17 	ldw	r5,176(sp)
 4002728:	d9801e04 	addi	r6,sp,120
 400272c:	9809883a 	mov	r4,r19
 4002730:	400a0780 	call	400a078 <__ssprint_r>
 4002734:	10395c1e 	bne	r2,zero,4000ca8 <__ram_exceptions_end+0xfbfe0a60>
 4002738:	dc402617 	ldw	r17,152(sp)
 400273c:	d8c02017 	ldw	r3,128(sp)
 4002740:	d8801f17 	ldw	r2,124(sp)
 4002744:	da000404 	addi	r8,sp,16
 4002748:	003e7706 	br	4002128 <__ram_exceptions_end+0xfbfe1ee0>
 400274c:	582f883a 	mov	r23,r11
 4002750:	d8002915 	stw	zero,164(sp)
 4002754:	0038c406 	br	4000a68 <__ram_exceptions_end+0xfbfe0820>
 4002758:	d8c02917 	ldw	r3,164(sp)
 400275c:	d8802104 	addi	r2,sp,132
 4002760:	d8800315 	stw	r2,12(sp)
 4002764:	d9403617 	ldw	r5,216(sp)
 4002768:	d8802504 	addi	r2,sp,148
 400276c:	d8800215 	stw	r2,8(sp)
 4002770:	d8802604 	addi	r2,sp,152
 4002774:	d8c00015 	stw	r3,0(sp)
 4002778:	9809883a 	mov	r4,r19
 400277c:	d8800115 	stw	r2,4(sp)
 4002780:	01c000c4 	movi	r7,3
 4002784:	a00d883a 	mov	r6,r20
 4002788:	da003e15 	stw	r8,248(sp)
 400278c:	40051100 	call	4005110 <_dtoa_r>
 4002790:	d9002917 	ldw	r4,164(sp)
 4002794:	da003e17 	ldw	r8,248(sp)
 4002798:	1021883a 	mov	r16,r2
 400279c:	1139883a 	add	fp,r2,r4
 40027a0:	2007883a 	mov	r3,r4
 40027a4:	81000007 	ldb	r4,0(r16)
 40027a8:	00800c04 	movi	r2,48
 40027ac:	20806f26 	beq	r4,r2,400296c <___svfprintf_internal_r+0x2058>
 40027b0:	d8c02617 	ldw	r3,152(sp)
 40027b4:	e0f9883a 	add	fp,fp,r3
 40027b8:	003ec206 	br	40022c4 <__ram_exceptions_end+0xfbfe207c>
 40027bc:	00c00b44 	movi	r3,45
 40027c0:	2520003c 	xorhi	r20,r4,32768
 40027c4:	d8c02a05 	stb	r3,168(sp)
 40027c8:	003ea106 	br	4002250 <__ram_exceptions_end+0xfbfe2008>
 40027cc:	d8c03217 	ldw	r3,200(sp)
 40027d0:	00c0890e 	bge	zero,r3,40029f8 <___svfprintf_internal_r+0x20e4>
 40027d4:	00800044 	movi	r2,1
 40027d8:	d9003317 	ldw	r4,204(sp)
 40027dc:	1105883a 	add	r2,r2,r4
 40027e0:	d8802e15 	stw	r2,184(sp)
 40027e4:	10005f16 	blt	r2,zero,4002964 <___svfprintf_internal_r+0x2050>
 40027e8:	044019c4 	movi	r17,103
 40027ec:	003ed906 	br	4002354 <__ram_exceptions_end+0xfbfe210c>
 40027f0:	d9002917 	ldw	r4,164(sp)
 40027f4:	20c00044 	addi	r3,r4,1
 40027f8:	003e9c06 	br	400226c <__ram_exceptions_end+0xfbfe2024>
 40027fc:	d9002917 	ldw	r4,164(sp)
 4002800:	00c0680e 	bge	zero,r3,40029a4 <___svfprintf_internal_r+0x2090>
 4002804:	2000461e 	bne	r4,zero,4002920 <___svfprintf_internal_r+0x200c>
 4002808:	9480004c 	andi	r18,r18,1
 400280c:	9000441e 	bne	r18,zero,4002920 <___svfprintf_internal_r+0x200c>
 4002810:	1805883a 	mov	r2,r3
 4002814:	1800a016 	blt	r3,zero,4002a98 <___svfprintf_internal_r+0x2184>
 4002818:	d8c03217 	ldw	r3,200(sp)
 400281c:	d8c02e15 	stw	r3,184(sp)
 4002820:	003ecc06 	br	4002354 <__ram_exceptions_end+0xfbfe210c>
 4002824:	d9402917 	ldw	r5,164(sp)
 4002828:	d8802104 	addi	r2,sp,132
 400282c:	d8800315 	stw	r2,12(sp)
 4002830:	d9400015 	stw	r5,0(sp)
 4002834:	d8802504 	addi	r2,sp,148
 4002838:	d9403617 	ldw	r5,216(sp)
 400283c:	d8800215 	stw	r2,8(sp)
 4002840:	d8802604 	addi	r2,sp,152
 4002844:	d8800115 	stw	r2,4(sp)
 4002848:	01c000c4 	movi	r7,3
 400284c:	a00d883a 	mov	r6,r20
 4002850:	9809883a 	mov	r4,r19
 4002854:	da003e15 	stw	r8,248(sp)
 4002858:	40051100 	call	4005110 <_dtoa_r>
 400285c:	d8c02917 	ldw	r3,164(sp)
 4002860:	da003e17 	ldw	r8,248(sp)
 4002864:	1021883a 	mov	r16,r2
 4002868:	00801184 	movi	r2,70
 400286c:	80f9883a 	add	fp,r16,r3
 4002870:	88bfcc26 	beq	r17,r2,40027a4 <__ram_exceptions_end+0xfbfe255c>
 4002874:	003e9306 	br	40022c4 <__ram_exceptions_end+0xfbfe207c>
 4002878:	df0022c4 	addi	fp,sp,139
 400287c:	dc002915 	stw	r16,164(sp)
 4002880:	9829883a 	mov	r20,r19
 4002884:	e021883a 	mov	r16,fp
 4002888:	4027883a 	mov	r19,r8
 400288c:	b009883a 	mov	r4,r22
 4002890:	01400284 	movi	r5,10
 4002894:	400df340 	call	400df34 <__modsi3>
 4002898:	10800c04 	addi	r2,r2,48
 400289c:	843fffc4 	addi	r16,r16,-1
 40028a0:	b009883a 	mov	r4,r22
 40028a4:	01400284 	movi	r5,10
 40028a8:	80800005 	stb	r2,0(r16)
 40028ac:	400deb00 	call	400deb0 <__divsi3>
 40028b0:	102d883a 	mov	r22,r2
 40028b4:	00800244 	movi	r2,9
 40028b8:	15bff416 	blt	r2,r22,400288c <__ram_exceptions_end+0xfbfe2644>
 40028bc:	9811883a 	mov	r8,r19
 40028c0:	b0800c04 	addi	r2,r22,48
 40028c4:	a027883a 	mov	r19,r20
 40028c8:	8029883a 	mov	r20,r16
 40028cc:	a17fffc4 	addi	r5,r20,-1
 40028d0:	a0bfffc5 	stb	r2,-1(r20)
 40028d4:	dc002917 	ldw	r16,164(sp)
 40028d8:	2f00752e 	bgeu	r5,fp,4002ab0 <___svfprintf_internal_r+0x219c>
 40028dc:	d9c02384 	addi	r7,sp,142
 40028e0:	3d0fc83a 	sub	r7,r7,r20
 40028e4:	d9002344 	addi	r4,sp,141
 40028e8:	e1cf883a 	add	r7,fp,r7
 40028ec:	00000106 	br	40028f4 <___svfprintf_internal_r+0x1fe0>
 40028f0:	28800003 	ldbu	r2,0(r5)
 40028f4:	20800005 	stb	r2,0(r4)
 40028f8:	21000044 	addi	r4,r4,1
 40028fc:	29400044 	addi	r5,r5,1
 4002900:	21fffb1e 	bne	r4,r7,40028f0 <__ram_exceptions_end+0xfbfe26a8>
 4002904:	d8802304 	addi	r2,sp,140
 4002908:	1505c83a 	sub	r2,r2,r20
 400290c:	d8c02344 	addi	r3,sp,141
 4002910:	1885883a 	add	r2,r3,r2
 4002914:	003f7006 	br	40026d8 <__ram_exceptions_end+0xfbfe2490>
 4002918:	0005883a 	mov	r2,zero
 400291c:	003f0b06 	br	400254c <__ram_exceptions_end+0xfbfe2304>
 4002920:	d9002917 	ldw	r4,164(sp)
 4002924:	d8c03217 	ldw	r3,200(sp)
 4002928:	20800044 	addi	r2,r4,1
 400292c:	1885883a 	add	r2,r3,r2
 4002930:	d8802e15 	stw	r2,184(sp)
 4002934:	103e870e 	bge	r2,zero,4002354 <__ram_exceptions_end+0xfbfe210c>
 4002938:	0005883a 	mov	r2,zero
 400293c:	003e8506 	br	4002354 <__ram_exceptions_end+0xfbfe210c>
 4002940:	01010074 	movhi	r4,1025
 4002944:	210dda84 	addi	r4,r4,14186
 4002948:	d9002b15 	stw	r4,172(sp)
 400294c:	003cc506 	br	4001c64 <__ram_exceptions_end+0xfbfe1a1c>
 4002950:	d8c03217 	ldw	r3,200(sp)
 4002954:	18c00044 	addi	r3,r3,1
 4002958:	d8c02e15 	stw	r3,184(sp)
 400295c:	1805883a 	mov	r2,r3
 4002960:	183fa10e 	bge	r3,zero,40027e8 <__ram_exceptions_end+0xfbfe25a0>
 4002964:	0005883a 	mov	r2,zero
 4002968:	003f9f06 	br	40027e8 <__ram_exceptions_end+0xfbfe25a0>
 400296c:	d9003617 	ldw	r4,216(sp)
 4002970:	000d883a 	mov	r6,zero
 4002974:	000f883a 	mov	r7,zero
 4002978:	a00b883a 	mov	r5,r20
 400297c:	d8c03d15 	stw	r3,244(sp)
 4002980:	da003e15 	stw	r8,248(sp)
 4002984:	400f1f80 	call	400f1f8 <__eqdf2>
 4002988:	d8c03d17 	ldw	r3,244(sp)
 400298c:	da003e17 	ldw	r8,248(sp)
 4002990:	103f8726 	beq	r2,zero,40027b0 <__ram_exceptions_end+0xfbfe2568>
 4002994:	00800044 	movi	r2,1
 4002998:	10c7c83a 	sub	r3,r2,r3
 400299c:	d8c02615 	stw	r3,152(sp)
 40029a0:	003f8406 	br	40027b4 <__ram_exceptions_end+0xfbfe256c>
 40029a4:	20000e1e 	bne	r4,zero,40029e0 <___svfprintf_internal_r+0x20cc>
 40029a8:	9480004c 	andi	r18,r18,1
 40029ac:	90000c1e 	bne	r18,zero,40029e0 <___svfprintf_internal_r+0x20cc>
 40029b0:	00800044 	movi	r2,1
 40029b4:	d8802e15 	stw	r2,184(sp)
 40029b8:	003e6606 	br	4002354 <__ram_exceptions_end+0xfbfe210c>
 40029bc:	00800b44 	movi	r2,45
 40029c0:	05adc83a 	sub	r22,zero,r22
 40029c4:	d8802305 	stb	r2,140(sp)
 40029c8:	003f3b06 	br	40026b8 <__ram_exceptions_end+0xfbfe2470>
 40029cc:	0005883a 	mov	r2,zero
 40029d0:	003f4e06 	br	400270c <__ram_exceptions_end+0xfbfe24c4>
 40029d4:	90a4703a 	and	r18,r18,r2
 40029d8:	903f4a26 	beq	r18,zero,4002704 <__ram_exceptions_end+0xfbfe24bc>
 40029dc:	003f4606 	br	40026f8 <__ram_exceptions_end+0xfbfe24b0>
 40029e0:	d8c02917 	ldw	r3,164(sp)
 40029e4:	18c00084 	addi	r3,r3,2
 40029e8:	d8c02e15 	stw	r3,184(sp)
 40029ec:	1805883a 	mov	r2,r3
 40029f0:	183e580e 	bge	r3,zero,4002354 <__ram_exceptions_end+0xfbfe210c>
 40029f4:	003fd006 	br	4002938 <__ram_exceptions_end+0xfbfe26f0>
 40029f8:	00800084 	movi	r2,2
 40029fc:	10c5c83a 	sub	r2,r2,r3
 4002a00:	003f7506 	br	40027d8 <__ram_exceptions_end+0xfbfe2590>
 4002a04:	d8802d17 	ldw	r2,180(sp)
 4002a08:	d9002d17 	ldw	r4,180(sp)
 4002a0c:	bc400043 	ldbu	r17,1(r23)
 4002a10:	10800017 	ldw	r2,0(r2)
 4002a14:	582f883a 	mov	r23,r11
 4002a18:	d8802915 	stw	r2,164(sp)
 4002a1c:	20800104 	addi	r2,r4,4
 4002a20:	d9002917 	ldw	r4,164(sp)
 4002a24:	d8802d15 	stw	r2,180(sp)
 4002a28:	203df00e 	bge	r4,zero,40021ec <__ram_exceptions_end+0xfbfe1fa4>
 4002a2c:	8c403fcc 	andi	r17,r17,255
 4002a30:	00bfffc4 	movi	r2,-1
 4002a34:	8c40201c 	xori	r17,r17,128
 4002a38:	d8802915 	stw	r2,164(sp)
 4002a3c:	8c7fe004 	addi	r17,r17,-128
 4002a40:	00380806 	br	4000a64 <__ram_exceptions_end+0xfbfe081c>
 4002a44:	9080004c 	andi	r2,r18,1
 4002a48:	0039883a 	mov	fp,zero
 4002a4c:	10000726 	beq	r2,zero,4002a6c <___svfprintf_internal_r+0x2158>
 4002a50:	d8c02817 	ldw	r3,160(sp)
 4002a54:	dc001dc4 	addi	r16,sp,119
 4002a58:	00800c04 	movi	r2,48
 4002a5c:	1c07c83a 	sub	r3,r3,r16
 4002a60:	d8801dc5 	stb	r2,119(sp)
 4002a64:	d8c02e15 	stw	r3,184(sp)
 4002a68:	00395206 	br	4000fb4 <__ram_exceptions_end+0xfbfe0d6c>
 4002a6c:	d8002e15 	stw	zero,184(sp)
 4002a70:	dc001e04 	addi	r16,sp,120
 4002a74:	00394f06 	br	4000fb4 <__ram_exceptions_end+0xfbfe0d6c>
 4002a78:	0005883a 	mov	r2,zero
 4002a7c:	003e3206 	br	4002348 <__ram_exceptions_end+0xfbfe2100>
 4002a80:	dd802617 	ldw	r22,152(sp)
 4002a84:	003f0606 	br	40026a0 <__ram_exceptions_end+0xfbfe2458>
 4002a88:	d9c02785 	stb	r7,158(sp)
 4002a8c:	003a5106 	br	40013d4 <__ram_exceptions_end+0xfbfe118c>
 4002a90:	d9c02785 	stb	r7,158(sp)
 4002a94:	003a3706 	br	4001374 <__ram_exceptions_end+0xfbfe112c>
 4002a98:	0005883a 	mov	r2,zero
 4002a9c:	003f5e06 	br	4002818 <__ram_exceptions_end+0xfbfe25d0>
 4002aa0:	d9c02785 	stb	r7,158(sp)
 4002aa4:	00391706 	br	4000f04 <__ram_exceptions_end+0xfbfe0cbc>
 4002aa8:	d9c02785 	stb	r7,158(sp)
 4002aac:	0038e606 	br	4000e48 <__ram_exceptions_end+0xfbfe0c00>
 4002ab0:	d8802344 	addi	r2,sp,141
 4002ab4:	003f0806 	br	40026d8 <__ram_exceptions_end+0xfbfe2490>
 4002ab8:	d9c02785 	stb	r7,158(sp)
 4002abc:	0038b706 	br	4000d9c <__ram_exceptions_end+0xfbfe0b54>
 4002ac0:	d9c02785 	stb	r7,158(sp)
 4002ac4:	003adc06 	br	4001638 <__ram_exceptions_end+0xfbfe13f0>
 4002ac8:	d9403917 	ldw	r5,228(sp)
 4002acc:	00800304 	movi	r2,12
 4002ad0:	28800015 	stw	r2,0(r5)
 4002ad4:	00bfffc4 	movi	r2,-1
 4002ad8:	00387806 	br	4000cbc <__ram_exceptions_end+0xfbfe0a74>
 4002adc:	d9c02785 	stb	r7,158(sp)
 4002ae0:	003abf06 	br	40015e0 <__ram_exceptions_end+0xfbfe1398>
 4002ae4:	d9c02785 	stb	r7,158(sp)
 4002ae8:	003a9b06 	br	4001558 <__ram_exceptions_end+0xfbfe1310>

04002aec <___vfprintf_internal_r>:
 4002aec:	deffb804 	addi	sp,sp,-288
 4002af0:	dfc04715 	stw	ra,284(sp)
 4002af4:	ddc04515 	stw	r23,276(sp)
 4002af8:	dd404315 	stw	r21,268(sp)
 4002afc:	d9002c15 	stw	r4,176(sp)
 4002b00:	282f883a 	mov	r23,r5
 4002b04:	302b883a 	mov	r21,r6
 4002b08:	d9c02d15 	stw	r7,180(sp)
 4002b0c:	df004615 	stw	fp,280(sp)
 4002b10:	dd804415 	stw	r22,272(sp)
 4002b14:	dd004215 	stw	r20,264(sp)
 4002b18:	dcc04115 	stw	r19,260(sp)
 4002b1c:	dc804015 	stw	r18,256(sp)
 4002b20:	dc403f15 	stw	r17,252(sp)
 4002b24:	dc003e15 	stw	r16,248(sp)
 4002b28:	40079040 	call	4007904 <_localeconv_r>
 4002b2c:	10800017 	ldw	r2,0(r2)
 4002b30:	1009883a 	mov	r4,r2
 4002b34:	d8803415 	stw	r2,208(sp)
 4002b38:	400087c0 	call	400087c <strlen>
 4002b3c:	d8803715 	stw	r2,220(sp)
 4002b40:	d8802c17 	ldw	r2,176(sp)
 4002b44:	10000226 	beq	r2,zero,4002b50 <___vfprintf_internal_r+0x64>
 4002b48:	10800e17 	ldw	r2,56(r2)
 4002b4c:	1000f926 	beq	r2,zero,4002f34 <___vfprintf_internal_r+0x448>
 4002b50:	b880030b 	ldhu	r2,12(r23)
 4002b54:	10c8000c 	andi	r3,r2,8192
 4002b58:	1800061e 	bne	r3,zero,4002b74 <___vfprintf_internal_r+0x88>
 4002b5c:	b9001917 	ldw	r4,100(r23)
 4002b60:	00f7ffc4 	movi	r3,-8193
 4002b64:	10880014 	ori	r2,r2,8192
 4002b68:	20c6703a 	and	r3,r4,r3
 4002b6c:	b880030d 	sth	r2,12(r23)
 4002b70:	b8c01915 	stw	r3,100(r23)
 4002b74:	10c0020c 	andi	r3,r2,8
 4002b78:	1800c126 	beq	r3,zero,4002e80 <___vfprintf_internal_r+0x394>
 4002b7c:	b8c00417 	ldw	r3,16(r23)
 4002b80:	1800bf26 	beq	r3,zero,4002e80 <___vfprintf_internal_r+0x394>
 4002b84:	1080068c 	andi	r2,r2,26
 4002b88:	00c00284 	movi	r3,10
 4002b8c:	10c0c426 	beq	r2,r3,4002ea0 <___vfprintf_internal_r+0x3b4>
 4002b90:	d8c00404 	addi	r3,sp,16
 4002b94:	05010074 	movhi	r20,1025
 4002b98:	d9001e04 	addi	r4,sp,120
 4002b9c:	a50de284 	addi	r20,r20,14218
 4002ba0:	d8c01e15 	stw	r3,120(sp)
 4002ba4:	d8002015 	stw	zero,128(sp)
 4002ba8:	d8001f15 	stw	zero,124(sp)
 4002bac:	d8003315 	stw	zero,204(sp)
 4002bb0:	d8003615 	stw	zero,216(sp)
 4002bb4:	d8003815 	stw	zero,224(sp)
 4002bb8:	1811883a 	mov	r8,r3
 4002bbc:	d8003915 	stw	zero,228(sp)
 4002bc0:	d8003a15 	stw	zero,232(sp)
 4002bc4:	d8002f15 	stw	zero,188(sp)
 4002bc8:	d9002815 	stw	r4,160(sp)
 4002bcc:	a8800007 	ldb	r2,0(r21)
 4002bd0:	10027b26 	beq	r2,zero,40035c0 <___vfprintf_internal_r+0xad4>
 4002bd4:	00c00944 	movi	r3,37
 4002bd8:	a821883a 	mov	r16,r21
 4002bdc:	10c0021e 	bne	r2,r3,4002be8 <___vfprintf_internal_r+0xfc>
 4002be0:	00001406 	br	4002c34 <___vfprintf_internal_r+0x148>
 4002be4:	10c00326 	beq	r2,r3,4002bf4 <___vfprintf_internal_r+0x108>
 4002be8:	84000044 	addi	r16,r16,1
 4002bec:	80800007 	ldb	r2,0(r16)
 4002bf0:	103ffc1e 	bne	r2,zero,4002be4 <__ram_exceptions_end+0xfbfe299c>
 4002bf4:	8563c83a 	sub	r17,r16,r21
 4002bf8:	88000e26 	beq	r17,zero,4002c34 <___vfprintf_internal_r+0x148>
 4002bfc:	d8c02017 	ldw	r3,128(sp)
 4002c00:	d8801f17 	ldw	r2,124(sp)
 4002c04:	45400015 	stw	r21,0(r8)
 4002c08:	1c47883a 	add	r3,r3,r17
 4002c0c:	10800044 	addi	r2,r2,1
 4002c10:	d8c02015 	stw	r3,128(sp)
 4002c14:	44400115 	stw	r17,4(r8)
 4002c18:	d8801f15 	stw	r2,124(sp)
 4002c1c:	00c001c4 	movi	r3,7
 4002c20:	1880a716 	blt	r3,r2,4002ec0 <___vfprintf_internal_r+0x3d4>
 4002c24:	42000204 	addi	r8,r8,8
 4002c28:	d9402f17 	ldw	r5,188(sp)
 4002c2c:	2c4b883a 	add	r5,r5,r17
 4002c30:	d9402f15 	stw	r5,188(sp)
 4002c34:	80800007 	ldb	r2,0(r16)
 4002c38:	1000a826 	beq	r2,zero,4002edc <___vfprintf_internal_r+0x3f0>
 4002c3c:	84400047 	ldb	r17,1(r16)
 4002c40:	00bfffc4 	movi	r2,-1
 4002c44:	85400044 	addi	r21,r16,1
 4002c48:	d8002785 	stb	zero,158(sp)
 4002c4c:	0007883a 	mov	r3,zero
 4002c50:	000f883a 	mov	r7,zero
 4002c54:	d8802915 	stw	r2,164(sp)
 4002c58:	d8003115 	stw	zero,196(sp)
 4002c5c:	0025883a 	mov	r18,zero
 4002c60:	01401604 	movi	r5,88
 4002c64:	01800244 	movi	r6,9
 4002c68:	02800a84 	movi	r10,42
 4002c6c:	02401b04 	movi	r9,108
 4002c70:	ad400044 	addi	r21,r21,1
 4002c74:	88bff804 	addi	r2,r17,-32
 4002c78:	28830436 	bltu	r5,r2,400388c <___vfprintf_internal_r+0xda0>
 4002c7c:	100490ba 	slli	r2,r2,2
 4002c80:	01010034 	movhi	r4,1024
 4002c84:	210b2504 	addi	r4,r4,11412
 4002c88:	1105883a 	add	r2,r2,r4
 4002c8c:	10800017 	ldw	r2,0(r2)
 4002c90:	1000683a 	jmp	r2
 4002c94:	040037ac 	andhi	r16,zero,222
 4002c98:	0400388c 	andi	r16,zero,226
 4002c9c:	0400388c 	andi	r16,zero,226
 4002ca0:	040037cc 	andi	r16,zero,223
 4002ca4:	0400388c 	andi	r16,zero,226
 4002ca8:	0400388c 	andi	r16,zero,226
 4002cac:	0400388c 	andi	r16,zero,226
 4002cb0:	0400388c 	andi	r16,zero,226
 4002cb4:	0400388c 	andi	r16,zero,226
 4002cb8:	0400388c 	andi	r16,zero,226
 4002cbc:	04002f40 	call	4002f4 <_start-0x3bffd0c>
 4002cc0:	040036e8 	cmpgeui	r16,zero,219
 4002cc4:	0400388c 	andi	r16,zero,226
 4002cc8:	04002e08 	cmpgei	r16,zero,184
 4002ccc:	04002f68 	cmpgeui	r16,zero,189
 4002cd0:	0400388c 	andi	r16,zero,226
 4002cd4:	04002fa8 	cmpgeui	r16,zero,190
 4002cd8:	04002fb4 	movhi	r16,190
 4002cdc:	04002fb4 	movhi	r16,190
 4002ce0:	04002fb4 	movhi	r16,190
 4002ce4:	04002fb4 	movhi	r16,190
 4002ce8:	04002fb4 	movhi	r16,190
 4002cec:	04002fb4 	movhi	r16,190
 4002cf0:	04002fb4 	movhi	r16,190
 4002cf4:	04002fb4 	movhi	r16,190
 4002cf8:	04002fb4 	movhi	r16,190
 4002cfc:	0400388c 	andi	r16,zero,226
 4002d00:	0400388c 	andi	r16,zero,226
 4002d04:	0400388c 	andi	r16,zero,226
 4002d08:	0400388c 	andi	r16,zero,226
 4002d0c:	0400388c 	andi	r16,zero,226
 4002d10:	0400388c 	andi	r16,zero,226
 4002d14:	0400388c 	andi	r16,zero,226
 4002d18:	0400388c 	andi	r16,zero,226
 4002d1c:	0400388c 	andi	r16,zero,226
 4002d20:	0400388c 	andi	r16,zero,226
 4002d24:	04002fe8 	cmpgeui	r16,zero,191
 4002d28:	040030a4 	muli	r16,zero,194
 4002d2c:	0400388c 	andi	r16,zero,226
 4002d30:	040030a4 	muli	r16,zero,194
 4002d34:	0400388c 	andi	r16,zero,226
 4002d38:	0400388c 	andi	r16,zero,226
 4002d3c:	0400388c 	andi	r16,zero,226
 4002d40:	0400388c 	andi	r16,zero,226
 4002d44:	04003144 	movi	r16,197
 4002d48:	0400388c 	andi	r16,zero,226
 4002d4c:	0400388c 	andi	r16,zero,226
 4002d50:	04003150 	cmplti	r16,zero,197
 4002d54:	0400388c 	andi	r16,zero,226
 4002d58:	0400388c 	andi	r16,zero,226
 4002d5c:	0400388c 	andi	r16,zero,226
 4002d60:	0400388c 	andi	r16,zero,226
 4002d64:	0400388c 	andi	r16,zero,226
 4002d68:	040035c8 	cmpgei	r16,zero,215
 4002d6c:	0400388c 	andi	r16,zero,226
 4002d70:	0400388c 	andi	r16,zero,226
 4002d74:	04003628 	cmpgeui	r16,zero,216
 4002d78:	0400388c 	andi	r16,zero,226
 4002d7c:	0400388c 	andi	r16,zero,226
 4002d80:	0400388c 	andi	r16,zero,226
 4002d84:	0400388c 	andi	r16,zero,226
 4002d88:	0400388c 	andi	r16,zero,226
 4002d8c:	0400388c 	andi	r16,zero,226
 4002d90:	0400388c 	andi	r16,zero,226
 4002d94:	0400388c 	andi	r16,zero,226
 4002d98:	0400388c 	andi	r16,zero,226
 4002d9c:	0400388c 	andi	r16,zero,226
 4002da0:	04003838 	rdprs	r16,zero,224
 4002da4:	040037d8 	cmpnei	r16,zero,223
 4002da8:	040030a4 	muli	r16,zero,194
 4002dac:	040030a4 	muli	r16,zero,194
 4002db0:	040030a4 	muli	r16,zero,194
 4002db4:	040037e8 	cmpgeui	r16,zero,223
 4002db8:	040037d8 	cmpnei	r16,zero,223
 4002dbc:	0400388c 	andi	r16,zero,226
 4002dc0:	0400388c 	andi	r16,zero,226
 4002dc4:	040037f4 	movhi	r16,223
 4002dc8:	0400388c 	andi	r16,zero,226
 4002dcc:	04003804 	movi	r16,224
 4002dd0:	040036d8 	cmpnei	r16,zero,219
 4002dd4:	04002e14 	movui	r16,184
 4002dd8:	040036f8 	rdprs	r16,zero,219
 4002ddc:	0400388c 	andi	r16,zero,226
 4002de0:	04003704 	movi	r16,220
 4002de4:	0400388c 	andi	r16,zero,226
 4002de8:	04003760 	cmpeqi	r16,zero,221
 4002dec:	0400388c 	andi	r16,zero,226
 4002df0:	0400388c 	andi	r16,zero,226
 4002df4:	04003770 	cmpltui	r16,zero,221
 4002df8:	d9003117 	ldw	r4,196(sp)
 4002dfc:	d8802d15 	stw	r2,180(sp)
 4002e00:	0109c83a 	sub	r4,zero,r4
 4002e04:	d9003115 	stw	r4,196(sp)
 4002e08:	94800114 	ori	r18,r18,4
 4002e0c:	ac400007 	ldb	r17,0(r21)
 4002e10:	003f9706 	br	4002c70 <__ram_exceptions_end+0xfbfe2a28>
 4002e14:	00800c04 	movi	r2,48
 4002e18:	d9002d17 	ldw	r4,180(sp)
 4002e1c:	d9402917 	ldw	r5,164(sp)
 4002e20:	d8802705 	stb	r2,156(sp)
 4002e24:	00801e04 	movi	r2,120
 4002e28:	d8802745 	stb	r2,157(sp)
 4002e2c:	d8002785 	stb	zero,158(sp)
 4002e30:	20c00104 	addi	r3,r4,4
 4002e34:	24c00017 	ldw	r19,0(r4)
 4002e38:	002d883a 	mov	r22,zero
 4002e3c:	90800094 	ori	r2,r18,2
 4002e40:	28029a16 	blt	r5,zero,40038ac <___vfprintf_internal_r+0xdc0>
 4002e44:	00bfdfc4 	movi	r2,-129
 4002e48:	90a4703a 	and	r18,r18,r2
 4002e4c:	d8c02d15 	stw	r3,180(sp)
 4002e50:	94800094 	ori	r18,r18,2
 4002e54:	9802871e 	bne	r19,zero,4003874 <___vfprintf_internal_r+0xd88>
 4002e58:	00810074 	movhi	r2,1025
 4002e5c:	108dd304 	addi	r2,r2,14156
 4002e60:	d8803915 	stw	r2,228(sp)
 4002e64:	04401e04 	movi	r17,120
 4002e68:	d8802917 	ldw	r2,164(sp)
 4002e6c:	0039883a 	mov	fp,zero
 4002e70:	1001e926 	beq	r2,zero,4003618 <___vfprintf_internal_r+0xb2c>
 4002e74:	0027883a 	mov	r19,zero
 4002e78:	002d883a 	mov	r22,zero
 4002e7c:	00020506 	br	4003694 <___vfprintf_internal_r+0xba8>
 4002e80:	d9002c17 	ldw	r4,176(sp)
 4002e84:	b80b883a 	mov	r5,r23
 4002e88:	4004dbc0 	call	4004dbc <__swsetup_r>
 4002e8c:	1005ac1e 	bne	r2,zero,4004540 <___vfprintf_internal_r+0x1a54>
 4002e90:	b880030b 	ldhu	r2,12(r23)
 4002e94:	00c00284 	movi	r3,10
 4002e98:	1080068c 	andi	r2,r2,26
 4002e9c:	10ff3c1e 	bne	r2,r3,4002b90 <__ram_exceptions_end+0xfbfe2948>
 4002ea0:	b880038f 	ldh	r2,14(r23)
 4002ea4:	103f3a16 	blt	r2,zero,4002b90 <__ram_exceptions_end+0xfbfe2948>
 4002ea8:	d9c02d17 	ldw	r7,180(sp)
 4002eac:	d9002c17 	ldw	r4,176(sp)
 4002eb0:	a80d883a 	mov	r6,r21
 4002eb4:	b80b883a 	mov	r5,r23
 4002eb8:	4004d000 	call	4004d00 <__sbprintf>
 4002ebc:	00001106 	br	4002f04 <___vfprintf_internal_r+0x418>
 4002ec0:	d9002c17 	ldw	r4,176(sp)
 4002ec4:	d9801e04 	addi	r6,sp,120
 4002ec8:	b80b883a 	mov	r5,r23
 4002ecc:	400b5800 	call	400b580 <__sprint_r>
 4002ed0:	1000081e 	bne	r2,zero,4002ef4 <___vfprintf_internal_r+0x408>
 4002ed4:	da000404 	addi	r8,sp,16
 4002ed8:	003f5306 	br	4002c28 <__ram_exceptions_end+0xfbfe29e0>
 4002edc:	d8802017 	ldw	r2,128(sp)
 4002ee0:	10000426 	beq	r2,zero,4002ef4 <___vfprintf_internal_r+0x408>
 4002ee4:	d9002c17 	ldw	r4,176(sp)
 4002ee8:	d9801e04 	addi	r6,sp,120
 4002eec:	b80b883a 	mov	r5,r23
 4002ef0:	400b5800 	call	400b580 <__sprint_r>
 4002ef4:	b880030b 	ldhu	r2,12(r23)
 4002ef8:	1080100c 	andi	r2,r2,64
 4002efc:	1005901e 	bne	r2,zero,4004540 <___vfprintf_internal_r+0x1a54>
 4002f00:	d8802f17 	ldw	r2,188(sp)
 4002f04:	dfc04717 	ldw	ra,284(sp)
 4002f08:	df004617 	ldw	fp,280(sp)
 4002f0c:	ddc04517 	ldw	r23,276(sp)
 4002f10:	dd804417 	ldw	r22,272(sp)
 4002f14:	dd404317 	ldw	r21,268(sp)
 4002f18:	dd004217 	ldw	r20,264(sp)
 4002f1c:	dcc04117 	ldw	r19,260(sp)
 4002f20:	dc804017 	ldw	r18,256(sp)
 4002f24:	dc403f17 	ldw	r17,252(sp)
 4002f28:	dc003e17 	ldw	r16,248(sp)
 4002f2c:	dec04804 	addi	sp,sp,288
 4002f30:	f800283a 	ret
 4002f34:	d9002c17 	ldw	r4,176(sp)
 4002f38:	4006d900 	call	4006d90 <__sinit>
 4002f3c:	003f0406 	br	4002b50 <__ram_exceptions_end+0xfbfe2908>
 4002f40:	d8802d17 	ldw	r2,180(sp)
 4002f44:	d9002d17 	ldw	r4,180(sp)
 4002f48:	10800017 	ldw	r2,0(r2)
 4002f4c:	d8803115 	stw	r2,196(sp)
 4002f50:	20800104 	addi	r2,r4,4
 4002f54:	d9003117 	ldw	r4,196(sp)
 4002f58:	203fa716 	blt	r4,zero,4002df8 <__ram_exceptions_end+0xfbfe2bb0>
 4002f5c:	d8802d15 	stw	r2,180(sp)
 4002f60:	ac400007 	ldb	r17,0(r21)
 4002f64:	003f4206 	br	4002c70 <__ram_exceptions_end+0xfbfe2a28>
 4002f68:	ac400007 	ldb	r17,0(r21)
 4002f6c:	aac00044 	addi	r11,r21,1
 4002f70:	8a872826 	beq	r17,r10,4004c14 <___vfprintf_internal_r+0x2128>
 4002f74:	88bff404 	addi	r2,r17,-48
 4002f78:	0009883a 	mov	r4,zero
 4002f7c:	30867d36 	bltu	r6,r2,4004974 <___vfprintf_internal_r+0x1e88>
 4002f80:	5c400007 	ldb	r17,0(r11)
 4002f84:	210002a4 	muli	r4,r4,10
 4002f88:	5d400044 	addi	r21,r11,1
 4002f8c:	a817883a 	mov	r11,r21
 4002f90:	2089883a 	add	r4,r4,r2
 4002f94:	88bff404 	addi	r2,r17,-48
 4002f98:	30bff92e 	bgeu	r6,r2,4002f80 <__ram_exceptions_end+0xfbfe2d38>
 4002f9c:	2005c916 	blt	r4,zero,40046c4 <___vfprintf_internal_r+0x1bd8>
 4002fa0:	d9002915 	stw	r4,164(sp)
 4002fa4:	003f3306 	br	4002c74 <__ram_exceptions_end+0xfbfe2a2c>
 4002fa8:	94802014 	ori	r18,r18,128
 4002fac:	ac400007 	ldb	r17,0(r21)
 4002fb0:	003f2f06 	br	4002c70 <__ram_exceptions_end+0xfbfe2a28>
 4002fb4:	a809883a 	mov	r4,r21
 4002fb8:	d8003115 	stw	zero,196(sp)
 4002fbc:	88bff404 	addi	r2,r17,-48
 4002fc0:	0017883a 	mov	r11,zero
 4002fc4:	24400007 	ldb	r17,0(r4)
 4002fc8:	5ac002a4 	muli	r11,r11,10
 4002fcc:	ad400044 	addi	r21,r21,1
 4002fd0:	a809883a 	mov	r4,r21
 4002fd4:	12d7883a 	add	r11,r2,r11
 4002fd8:	88bff404 	addi	r2,r17,-48
 4002fdc:	30bff92e 	bgeu	r6,r2,4002fc4 <__ram_exceptions_end+0xfbfe2d7c>
 4002fe0:	dac03115 	stw	r11,196(sp)
 4002fe4:	003f2306 	br	4002c74 <__ram_exceptions_end+0xfbfe2a2c>
 4002fe8:	18c03fcc 	andi	r3,r3,255
 4002fec:	18072b1e 	bne	r3,zero,4004c9c <___vfprintf_internal_r+0x21b0>
 4002ff0:	94800414 	ori	r18,r18,16
 4002ff4:	9080080c 	andi	r2,r18,32
 4002ff8:	10037b26 	beq	r2,zero,4003de8 <___vfprintf_internal_r+0x12fc>
 4002ffc:	d9402d17 	ldw	r5,180(sp)
 4003000:	28800117 	ldw	r2,4(r5)
 4003004:	2cc00017 	ldw	r19,0(r5)
 4003008:	29400204 	addi	r5,r5,8
 400300c:	d9402d15 	stw	r5,180(sp)
 4003010:	102d883a 	mov	r22,r2
 4003014:	10044b16 	blt	r2,zero,4004144 <___vfprintf_internal_r+0x1658>
 4003018:	d9402917 	ldw	r5,164(sp)
 400301c:	df002783 	ldbu	fp,158(sp)
 4003020:	2803bc16 	blt	r5,zero,4003f14 <___vfprintf_internal_r+0x1428>
 4003024:	00ffdfc4 	movi	r3,-129
 4003028:	9d84b03a 	or	r2,r19,r22
 400302c:	90e4703a 	and	r18,r18,r3
 4003030:	10017726 	beq	r2,zero,4003610 <___vfprintf_internal_r+0xb24>
 4003034:	b0038326 	beq	r22,zero,4003e44 <___vfprintf_internal_r+0x1358>
 4003038:	dc402a15 	stw	r17,168(sp)
 400303c:	dc001e04 	addi	r16,sp,120
 4003040:	b023883a 	mov	r17,r22
 4003044:	402d883a 	mov	r22,r8
 4003048:	9809883a 	mov	r4,r19
 400304c:	880b883a 	mov	r5,r17
 4003050:	01800284 	movi	r6,10
 4003054:	000f883a 	mov	r7,zero
 4003058:	400d9780 	call	400d978 <__umoddi3>
 400305c:	10800c04 	addi	r2,r2,48
 4003060:	843fffc4 	addi	r16,r16,-1
 4003064:	9809883a 	mov	r4,r19
 4003068:	880b883a 	mov	r5,r17
 400306c:	80800005 	stb	r2,0(r16)
 4003070:	01800284 	movi	r6,10
 4003074:	000f883a 	mov	r7,zero
 4003078:	400d4000 	call	400d400 <__udivdi3>
 400307c:	1027883a 	mov	r19,r2
 4003080:	10c4b03a 	or	r2,r2,r3
 4003084:	1823883a 	mov	r17,r3
 4003088:	103fef1e 	bne	r2,zero,4003048 <__ram_exceptions_end+0xfbfe2e00>
 400308c:	d8c02817 	ldw	r3,160(sp)
 4003090:	dc402a17 	ldw	r17,168(sp)
 4003094:	b011883a 	mov	r8,r22
 4003098:	1c07c83a 	sub	r3,r3,r16
 400309c:	d8c02e15 	stw	r3,184(sp)
 40030a0:	00005906 	br	4003208 <___vfprintf_internal_r+0x71c>
 40030a4:	18c03fcc 	andi	r3,r3,255
 40030a8:	1806fa1e 	bne	r3,zero,4004c94 <___vfprintf_internal_r+0x21a8>
 40030ac:	9080020c 	andi	r2,r18,8
 40030b0:	10048a26 	beq	r2,zero,40042dc <___vfprintf_internal_r+0x17f0>
 40030b4:	d8c02d17 	ldw	r3,180(sp)
 40030b8:	d9002d17 	ldw	r4,180(sp)
 40030bc:	d9402d17 	ldw	r5,180(sp)
 40030c0:	18c00017 	ldw	r3,0(r3)
 40030c4:	21000117 	ldw	r4,4(r4)
 40030c8:	29400204 	addi	r5,r5,8
 40030cc:	d8c03615 	stw	r3,216(sp)
 40030d0:	d9003815 	stw	r4,224(sp)
 40030d4:	d9402d15 	stw	r5,180(sp)
 40030d8:	d9003617 	ldw	r4,216(sp)
 40030dc:	d9403817 	ldw	r5,224(sp)
 40030e0:	da003d15 	stw	r8,244(sp)
 40030e4:	04000044 	movi	r16,1
 40030e8:	4009e740 	call	4009e74 <__fpclassifyd>
 40030ec:	da003d17 	ldw	r8,244(sp)
 40030f0:	14041f1e 	bne	r2,r16,4004170 <___vfprintf_internal_r+0x1684>
 40030f4:	d9003617 	ldw	r4,216(sp)
 40030f8:	d9403817 	ldw	r5,224(sp)
 40030fc:	000d883a 	mov	r6,zero
 4003100:	000f883a 	mov	r7,zero
 4003104:	400f35c0 	call	400f35c <__ledf2>
 4003108:	da003d17 	ldw	r8,244(sp)
 400310c:	1005be16 	blt	r2,zero,4004808 <___vfprintf_internal_r+0x1d1c>
 4003110:	df002783 	ldbu	fp,158(sp)
 4003114:	008011c4 	movi	r2,71
 4003118:	1445330e 	bge	r2,r17,40045e8 <___vfprintf_internal_r+0x1afc>
 400311c:	04010074 	movhi	r16,1025
 4003120:	840dcb04 	addi	r16,r16,14124
 4003124:	00c000c4 	movi	r3,3
 4003128:	00bfdfc4 	movi	r2,-129
 400312c:	d8c02a15 	stw	r3,168(sp)
 4003130:	90a4703a 	and	r18,r18,r2
 4003134:	d8c02e15 	stw	r3,184(sp)
 4003138:	d8002915 	stw	zero,164(sp)
 400313c:	d8003215 	stw	zero,200(sp)
 4003140:	00003706 	br	4003220 <___vfprintf_internal_r+0x734>
 4003144:	94800214 	ori	r18,r18,8
 4003148:	ac400007 	ldb	r17,0(r21)
 400314c:	003ec806 	br	4002c70 <__ram_exceptions_end+0xfbfe2a28>
 4003150:	18c03fcc 	andi	r3,r3,255
 4003154:	1806db1e 	bne	r3,zero,4004cc4 <___vfprintf_internal_r+0x21d8>
 4003158:	94800414 	ori	r18,r18,16
 400315c:	9080080c 	andi	r2,r18,32
 4003160:	1002d826 	beq	r2,zero,4003cc4 <___vfprintf_internal_r+0x11d8>
 4003164:	d9402d17 	ldw	r5,180(sp)
 4003168:	d8c02917 	ldw	r3,164(sp)
 400316c:	d8002785 	stb	zero,158(sp)
 4003170:	28800204 	addi	r2,r5,8
 4003174:	2cc00017 	ldw	r19,0(r5)
 4003178:	2d800117 	ldw	r22,4(r5)
 400317c:	18048f16 	blt	r3,zero,40043bc <___vfprintf_internal_r+0x18d0>
 4003180:	013fdfc4 	movi	r4,-129
 4003184:	9d86b03a 	or	r3,r19,r22
 4003188:	d8802d15 	stw	r2,180(sp)
 400318c:	9124703a 	and	r18,r18,r4
 4003190:	1802d91e 	bne	r3,zero,4003cf8 <___vfprintf_internal_r+0x120c>
 4003194:	d8c02917 	ldw	r3,164(sp)
 4003198:	0039883a 	mov	fp,zero
 400319c:	1805c326 	beq	r3,zero,40048ac <___vfprintf_internal_r+0x1dc0>
 40031a0:	0027883a 	mov	r19,zero
 40031a4:	002d883a 	mov	r22,zero
 40031a8:	dc001e04 	addi	r16,sp,120
 40031ac:	9806d0fa 	srli	r3,r19,3
 40031b0:	b008977a 	slli	r4,r22,29
 40031b4:	b02cd0fa 	srli	r22,r22,3
 40031b8:	9cc001cc 	andi	r19,r19,7
 40031bc:	98800c04 	addi	r2,r19,48
 40031c0:	843fffc4 	addi	r16,r16,-1
 40031c4:	20e6b03a 	or	r19,r4,r3
 40031c8:	80800005 	stb	r2,0(r16)
 40031cc:	9d86b03a 	or	r3,r19,r22
 40031d0:	183ff61e 	bne	r3,zero,40031ac <__ram_exceptions_end+0xfbfe2f64>
 40031d4:	90c0004c 	andi	r3,r18,1
 40031d8:	18013b26 	beq	r3,zero,40036c8 <___vfprintf_internal_r+0xbdc>
 40031dc:	10803fcc 	andi	r2,r2,255
 40031e0:	1080201c 	xori	r2,r2,128
 40031e4:	10bfe004 	addi	r2,r2,-128
 40031e8:	00c00c04 	movi	r3,48
 40031ec:	10c13626 	beq	r2,r3,40036c8 <___vfprintf_internal_r+0xbdc>
 40031f0:	80ffffc5 	stb	r3,-1(r16)
 40031f4:	d8c02817 	ldw	r3,160(sp)
 40031f8:	80bfffc4 	addi	r2,r16,-1
 40031fc:	1021883a 	mov	r16,r2
 4003200:	1887c83a 	sub	r3,r3,r2
 4003204:	d8c02e15 	stw	r3,184(sp)
 4003208:	d8802e17 	ldw	r2,184(sp)
 400320c:	d9002917 	ldw	r4,164(sp)
 4003210:	1100010e 	bge	r2,r4,4003218 <___vfprintf_internal_r+0x72c>
 4003214:	2005883a 	mov	r2,r4
 4003218:	d8802a15 	stw	r2,168(sp)
 400321c:	d8003215 	stw	zero,200(sp)
 4003220:	e7003fcc 	andi	fp,fp,255
 4003224:	e700201c 	xori	fp,fp,128
 4003228:	e73fe004 	addi	fp,fp,-128
 400322c:	e0000326 	beq	fp,zero,400323c <___vfprintf_internal_r+0x750>
 4003230:	d8c02a17 	ldw	r3,168(sp)
 4003234:	18c00044 	addi	r3,r3,1
 4003238:	d8c02a15 	stw	r3,168(sp)
 400323c:	90c0008c 	andi	r3,r18,2
 4003240:	d8c02b15 	stw	r3,172(sp)
 4003244:	18000326 	beq	r3,zero,4003254 <___vfprintf_internal_r+0x768>
 4003248:	d8c02a17 	ldw	r3,168(sp)
 400324c:	18c00084 	addi	r3,r3,2
 4003250:	d8c02a15 	stw	r3,168(sp)
 4003254:	90c0210c 	andi	r3,r18,132
 4003258:	d8c03015 	stw	r3,192(sp)
 400325c:	1801a31e 	bne	r3,zero,40038ec <___vfprintf_internal_r+0xe00>
 4003260:	d9003117 	ldw	r4,196(sp)
 4003264:	d8c02a17 	ldw	r3,168(sp)
 4003268:	20e7c83a 	sub	r19,r4,r3
 400326c:	04c19f0e 	bge	zero,r19,40038ec <___vfprintf_internal_r+0xe00>
 4003270:	02400404 	movi	r9,16
 4003274:	d8c02017 	ldw	r3,128(sp)
 4003278:	d8801f17 	ldw	r2,124(sp)
 400327c:	4cc50d0e 	bge	r9,r19,40046b4 <___vfprintf_internal_r+0x1bc8>
 4003280:	01410074 	movhi	r5,1025
 4003284:	294de684 	addi	r5,r5,14234
 4003288:	dc403b15 	stw	r17,236(sp)
 400328c:	d9403515 	stw	r5,212(sp)
 4003290:	9823883a 	mov	r17,r19
 4003294:	482d883a 	mov	r22,r9
 4003298:	9027883a 	mov	r19,r18
 400329c:	070001c4 	movi	fp,7
 40032a0:	8025883a 	mov	r18,r16
 40032a4:	dc002c17 	ldw	r16,176(sp)
 40032a8:	00000306 	br	40032b8 <___vfprintf_internal_r+0x7cc>
 40032ac:	8c7ffc04 	addi	r17,r17,-16
 40032b0:	42000204 	addi	r8,r8,8
 40032b4:	b440130e 	bge	r22,r17,4003304 <___vfprintf_internal_r+0x818>
 40032b8:	01010074 	movhi	r4,1025
 40032bc:	18c00404 	addi	r3,r3,16
 40032c0:	10800044 	addi	r2,r2,1
 40032c4:	210de684 	addi	r4,r4,14234
 40032c8:	41000015 	stw	r4,0(r8)
 40032cc:	45800115 	stw	r22,4(r8)
 40032d0:	d8c02015 	stw	r3,128(sp)
 40032d4:	d8801f15 	stw	r2,124(sp)
 40032d8:	e0bff40e 	bge	fp,r2,40032ac <__ram_exceptions_end+0xfbfe3064>
 40032dc:	d9801e04 	addi	r6,sp,120
 40032e0:	b80b883a 	mov	r5,r23
 40032e4:	8009883a 	mov	r4,r16
 40032e8:	400b5800 	call	400b580 <__sprint_r>
 40032ec:	103f011e 	bne	r2,zero,4002ef4 <__ram_exceptions_end+0xfbfe2cac>
 40032f0:	8c7ffc04 	addi	r17,r17,-16
 40032f4:	d8c02017 	ldw	r3,128(sp)
 40032f8:	d8801f17 	ldw	r2,124(sp)
 40032fc:	da000404 	addi	r8,sp,16
 4003300:	b47fed16 	blt	r22,r17,40032b8 <__ram_exceptions_end+0xfbfe3070>
 4003304:	9021883a 	mov	r16,r18
 4003308:	9825883a 	mov	r18,r19
 400330c:	8827883a 	mov	r19,r17
 4003310:	dc403b17 	ldw	r17,236(sp)
 4003314:	d9403517 	ldw	r5,212(sp)
 4003318:	98c7883a 	add	r3,r19,r3
 400331c:	10800044 	addi	r2,r2,1
 4003320:	41400015 	stw	r5,0(r8)
 4003324:	44c00115 	stw	r19,4(r8)
 4003328:	d8c02015 	stw	r3,128(sp)
 400332c:	d8801f15 	stw	r2,124(sp)
 4003330:	010001c4 	movi	r4,7
 4003334:	2082a316 	blt	r4,r2,4003dc4 <___vfprintf_internal_r+0x12d8>
 4003338:	df002787 	ldb	fp,158(sp)
 400333c:	42000204 	addi	r8,r8,8
 4003340:	e0000c26 	beq	fp,zero,4003374 <___vfprintf_internal_r+0x888>
 4003344:	d8801f17 	ldw	r2,124(sp)
 4003348:	d9002784 	addi	r4,sp,158
 400334c:	18c00044 	addi	r3,r3,1
 4003350:	10800044 	addi	r2,r2,1
 4003354:	41000015 	stw	r4,0(r8)
 4003358:	01000044 	movi	r4,1
 400335c:	41000115 	stw	r4,4(r8)
 4003360:	d8c02015 	stw	r3,128(sp)
 4003364:	d8801f15 	stw	r2,124(sp)
 4003368:	010001c4 	movi	r4,7
 400336c:	20823c16 	blt	r4,r2,4003c60 <___vfprintf_internal_r+0x1174>
 4003370:	42000204 	addi	r8,r8,8
 4003374:	d8802b17 	ldw	r2,172(sp)
 4003378:	10000c26 	beq	r2,zero,40033ac <___vfprintf_internal_r+0x8c0>
 400337c:	d8801f17 	ldw	r2,124(sp)
 4003380:	d9002704 	addi	r4,sp,156
 4003384:	18c00084 	addi	r3,r3,2
 4003388:	10800044 	addi	r2,r2,1
 400338c:	41000015 	stw	r4,0(r8)
 4003390:	01000084 	movi	r4,2
 4003394:	41000115 	stw	r4,4(r8)
 4003398:	d8c02015 	stw	r3,128(sp)
 400339c:	d8801f15 	stw	r2,124(sp)
 40033a0:	010001c4 	movi	r4,7
 40033a4:	20823616 	blt	r4,r2,4003c80 <___vfprintf_internal_r+0x1194>
 40033a8:	42000204 	addi	r8,r8,8
 40033ac:	d9003017 	ldw	r4,192(sp)
 40033b0:	00802004 	movi	r2,128
 40033b4:	20819926 	beq	r4,r2,4003a1c <___vfprintf_internal_r+0xf30>
 40033b8:	d9402917 	ldw	r5,164(sp)
 40033bc:	d8802e17 	ldw	r2,184(sp)
 40033c0:	28adc83a 	sub	r22,r5,r2
 40033c4:	0580310e 	bge	zero,r22,400348c <___vfprintf_internal_r+0x9a0>
 40033c8:	07000404 	movi	fp,16
 40033cc:	d8801f17 	ldw	r2,124(sp)
 40033d0:	e584140e 	bge	fp,r22,4004424 <___vfprintf_internal_r+0x1938>
 40033d4:	01410074 	movhi	r5,1025
 40033d8:	294de284 	addi	r5,r5,14218
 40033dc:	dc402915 	stw	r17,164(sp)
 40033e0:	d9402b15 	stw	r5,172(sp)
 40033e4:	b023883a 	mov	r17,r22
 40033e8:	04c001c4 	movi	r19,7
 40033ec:	a82d883a 	mov	r22,r21
 40033f0:	902b883a 	mov	r21,r18
 40033f4:	8025883a 	mov	r18,r16
 40033f8:	dc002c17 	ldw	r16,176(sp)
 40033fc:	00000306 	br	400340c <___vfprintf_internal_r+0x920>
 4003400:	8c7ffc04 	addi	r17,r17,-16
 4003404:	42000204 	addi	r8,r8,8
 4003408:	e440110e 	bge	fp,r17,4003450 <___vfprintf_internal_r+0x964>
 400340c:	18c00404 	addi	r3,r3,16
 4003410:	10800044 	addi	r2,r2,1
 4003414:	45000015 	stw	r20,0(r8)
 4003418:	47000115 	stw	fp,4(r8)
 400341c:	d8c02015 	stw	r3,128(sp)
 4003420:	d8801f15 	stw	r2,124(sp)
 4003424:	98bff60e 	bge	r19,r2,4003400 <__ram_exceptions_end+0xfbfe31b8>
 4003428:	d9801e04 	addi	r6,sp,120
 400342c:	b80b883a 	mov	r5,r23
 4003430:	8009883a 	mov	r4,r16
 4003434:	400b5800 	call	400b580 <__sprint_r>
 4003438:	103eae1e 	bne	r2,zero,4002ef4 <__ram_exceptions_end+0xfbfe2cac>
 400343c:	8c7ffc04 	addi	r17,r17,-16
 4003440:	d8c02017 	ldw	r3,128(sp)
 4003444:	d8801f17 	ldw	r2,124(sp)
 4003448:	da000404 	addi	r8,sp,16
 400344c:	e47fef16 	blt	fp,r17,400340c <__ram_exceptions_end+0xfbfe31c4>
 4003450:	9021883a 	mov	r16,r18
 4003454:	a825883a 	mov	r18,r21
 4003458:	b02b883a 	mov	r21,r22
 400345c:	882d883a 	mov	r22,r17
 4003460:	dc402917 	ldw	r17,164(sp)
 4003464:	d9002b17 	ldw	r4,172(sp)
 4003468:	1d87883a 	add	r3,r3,r22
 400346c:	10800044 	addi	r2,r2,1
 4003470:	41000015 	stw	r4,0(r8)
 4003474:	45800115 	stw	r22,4(r8)
 4003478:	d8c02015 	stw	r3,128(sp)
 400347c:	d8801f15 	stw	r2,124(sp)
 4003480:	010001c4 	movi	r4,7
 4003484:	2081ee16 	blt	r4,r2,4003c40 <___vfprintf_internal_r+0x1154>
 4003488:	42000204 	addi	r8,r8,8
 400348c:	9080400c 	andi	r2,r18,256
 4003490:	1001181e 	bne	r2,zero,40038f4 <___vfprintf_internal_r+0xe08>
 4003494:	d9402e17 	ldw	r5,184(sp)
 4003498:	d8801f17 	ldw	r2,124(sp)
 400349c:	44000015 	stw	r16,0(r8)
 40034a0:	1947883a 	add	r3,r3,r5
 40034a4:	10800044 	addi	r2,r2,1
 40034a8:	41400115 	stw	r5,4(r8)
 40034ac:	d8c02015 	stw	r3,128(sp)
 40034b0:	d8801f15 	stw	r2,124(sp)
 40034b4:	010001c4 	movi	r4,7
 40034b8:	2081d316 	blt	r4,r2,4003c08 <___vfprintf_internal_r+0x111c>
 40034bc:	42000204 	addi	r8,r8,8
 40034c0:	9480010c 	andi	r18,r18,4
 40034c4:	90003226 	beq	r18,zero,4003590 <___vfprintf_internal_r+0xaa4>
 40034c8:	d9403117 	ldw	r5,196(sp)
 40034cc:	d8802a17 	ldw	r2,168(sp)
 40034d0:	28a1c83a 	sub	r16,r5,r2
 40034d4:	04002e0e 	bge	zero,r16,4003590 <___vfprintf_internal_r+0xaa4>
 40034d8:	04400404 	movi	r17,16
 40034dc:	d8801f17 	ldw	r2,124(sp)
 40034e0:	8c04a20e 	bge	r17,r16,400476c <___vfprintf_internal_r+0x1c80>
 40034e4:	01410074 	movhi	r5,1025
 40034e8:	294de684 	addi	r5,r5,14234
 40034ec:	d9403515 	stw	r5,212(sp)
 40034f0:	048001c4 	movi	r18,7
 40034f4:	dcc02c17 	ldw	r19,176(sp)
 40034f8:	00000306 	br	4003508 <___vfprintf_internal_r+0xa1c>
 40034fc:	843ffc04 	addi	r16,r16,-16
 4003500:	42000204 	addi	r8,r8,8
 4003504:	8c00130e 	bge	r17,r16,4003554 <___vfprintf_internal_r+0xa68>
 4003508:	01010074 	movhi	r4,1025
 400350c:	18c00404 	addi	r3,r3,16
 4003510:	10800044 	addi	r2,r2,1
 4003514:	210de684 	addi	r4,r4,14234
 4003518:	41000015 	stw	r4,0(r8)
 400351c:	44400115 	stw	r17,4(r8)
 4003520:	d8c02015 	stw	r3,128(sp)
 4003524:	d8801f15 	stw	r2,124(sp)
 4003528:	90bff40e 	bge	r18,r2,40034fc <__ram_exceptions_end+0xfbfe32b4>
 400352c:	d9801e04 	addi	r6,sp,120
 4003530:	b80b883a 	mov	r5,r23
 4003534:	9809883a 	mov	r4,r19
 4003538:	400b5800 	call	400b580 <__sprint_r>
 400353c:	103e6d1e 	bne	r2,zero,4002ef4 <__ram_exceptions_end+0xfbfe2cac>
 4003540:	843ffc04 	addi	r16,r16,-16
 4003544:	d8c02017 	ldw	r3,128(sp)
 4003548:	d8801f17 	ldw	r2,124(sp)
 400354c:	da000404 	addi	r8,sp,16
 4003550:	8c3fed16 	blt	r17,r16,4003508 <__ram_exceptions_end+0xfbfe32c0>
 4003554:	d9403517 	ldw	r5,212(sp)
 4003558:	1c07883a 	add	r3,r3,r16
 400355c:	10800044 	addi	r2,r2,1
 4003560:	41400015 	stw	r5,0(r8)
 4003564:	44000115 	stw	r16,4(r8)
 4003568:	d8c02015 	stw	r3,128(sp)
 400356c:	d8801f15 	stw	r2,124(sp)
 4003570:	010001c4 	movi	r4,7
 4003574:	2080060e 	bge	r4,r2,4003590 <___vfprintf_internal_r+0xaa4>
 4003578:	d9002c17 	ldw	r4,176(sp)
 400357c:	d9801e04 	addi	r6,sp,120
 4003580:	b80b883a 	mov	r5,r23
 4003584:	400b5800 	call	400b580 <__sprint_r>
 4003588:	103e5a1e 	bne	r2,zero,4002ef4 <__ram_exceptions_end+0xfbfe2cac>
 400358c:	d8c02017 	ldw	r3,128(sp)
 4003590:	d8803117 	ldw	r2,196(sp)
 4003594:	d9002a17 	ldw	r4,168(sp)
 4003598:	1100010e 	bge	r2,r4,40035a0 <___vfprintf_internal_r+0xab4>
 400359c:	2005883a 	mov	r2,r4
 40035a0:	d9402f17 	ldw	r5,188(sp)
 40035a4:	288b883a 	add	r5,r5,r2
 40035a8:	d9402f15 	stw	r5,188(sp)
 40035ac:	18019e1e 	bne	r3,zero,4003c28 <___vfprintf_internal_r+0x113c>
 40035b0:	a8800007 	ldb	r2,0(r21)
 40035b4:	d8001f15 	stw	zero,124(sp)
 40035b8:	da000404 	addi	r8,sp,16
 40035bc:	103d851e 	bne	r2,zero,4002bd4 <__ram_exceptions_end+0xfbfe298c>
 40035c0:	a821883a 	mov	r16,r21
 40035c4:	003d9b06 	br	4002c34 <__ram_exceptions_end+0xfbfe29ec>
 40035c8:	18c03fcc 	andi	r3,r3,255
 40035cc:	1805c11e 	bne	r3,zero,4004cd4 <___vfprintf_internal_r+0x21e8>
 40035d0:	94800414 	ori	r18,r18,16
 40035d4:	9080080c 	andi	r2,r18,32
 40035d8:	10020c26 	beq	r2,zero,4003e0c <___vfprintf_internal_r+0x1320>
 40035dc:	d8802d17 	ldw	r2,180(sp)
 40035e0:	d9002917 	ldw	r4,164(sp)
 40035e4:	d8002785 	stb	zero,158(sp)
 40035e8:	10c00204 	addi	r3,r2,8
 40035ec:	14c00017 	ldw	r19,0(r2)
 40035f0:	15800117 	ldw	r22,4(r2)
 40035f4:	20040f16 	blt	r4,zero,4004634 <___vfprintf_internal_r+0x1b48>
 40035f8:	013fdfc4 	movi	r4,-129
 40035fc:	9d84b03a 	or	r2,r19,r22
 4003600:	d8c02d15 	stw	r3,180(sp)
 4003604:	9124703a 	and	r18,r18,r4
 4003608:	0039883a 	mov	fp,zero
 400360c:	103e891e 	bne	r2,zero,4003034 <__ram_exceptions_end+0xfbfe2dec>
 4003610:	d9002917 	ldw	r4,164(sp)
 4003614:	2002c11e 	bne	r4,zero,400411c <___vfprintf_internal_r+0x1630>
 4003618:	d8002915 	stw	zero,164(sp)
 400361c:	d8002e15 	stw	zero,184(sp)
 4003620:	dc001e04 	addi	r16,sp,120
 4003624:	003ef806 	br	4003208 <__ram_exceptions_end+0xfbfe2fc0>
 4003628:	18c03fcc 	andi	r3,r3,255
 400362c:	18059d1e 	bne	r3,zero,4004ca4 <___vfprintf_internal_r+0x21b8>
 4003630:	01410074 	movhi	r5,1025
 4003634:	294dce04 	addi	r5,r5,14136
 4003638:	d9403915 	stw	r5,228(sp)
 400363c:	9080080c 	andi	r2,r18,32
 4003640:	10005226 	beq	r2,zero,400378c <___vfprintf_internal_r+0xca0>
 4003644:	d8802d17 	ldw	r2,180(sp)
 4003648:	14c00017 	ldw	r19,0(r2)
 400364c:	15800117 	ldw	r22,4(r2)
 4003650:	10800204 	addi	r2,r2,8
 4003654:	d8802d15 	stw	r2,180(sp)
 4003658:	9080004c 	andi	r2,r18,1
 400365c:	10019026 	beq	r2,zero,4003ca0 <___vfprintf_internal_r+0x11b4>
 4003660:	9d84b03a 	or	r2,r19,r22
 4003664:	10036926 	beq	r2,zero,400440c <___vfprintf_internal_r+0x1920>
 4003668:	d8c02917 	ldw	r3,164(sp)
 400366c:	00800c04 	movi	r2,48
 4003670:	d8802705 	stb	r2,156(sp)
 4003674:	dc402745 	stb	r17,157(sp)
 4003678:	d8002785 	stb	zero,158(sp)
 400367c:	90800094 	ori	r2,r18,2
 4003680:	18045d16 	blt	r3,zero,40047f8 <___vfprintf_internal_r+0x1d0c>
 4003684:	00bfdfc4 	movi	r2,-129
 4003688:	90a4703a 	and	r18,r18,r2
 400368c:	94800094 	ori	r18,r18,2
 4003690:	0039883a 	mov	fp,zero
 4003694:	d9003917 	ldw	r4,228(sp)
 4003698:	dc001e04 	addi	r16,sp,120
 400369c:	988003cc 	andi	r2,r19,15
 40036a0:	b006973a 	slli	r3,r22,28
 40036a4:	2085883a 	add	r2,r4,r2
 40036a8:	9826d13a 	srli	r19,r19,4
 40036ac:	10800003 	ldbu	r2,0(r2)
 40036b0:	b02cd13a 	srli	r22,r22,4
 40036b4:	843fffc4 	addi	r16,r16,-1
 40036b8:	1ce6b03a 	or	r19,r3,r19
 40036bc:	80800005 	stb	r2,0(r16)
 40036c0:	9d84b03a 	or	r2,r19,r22
 40036c4:	103ff51e 	bne	r2,zero,400369c <__ram_exceptions_end+0xfbfe3454>
 40036c8:	d8c02817 	ldw	r3,160(sp)
 40036cc:	1c07c83a 	sub	r3,r3,r16
 40036d0:	d8c02e15 	stw	r3,184(sp)
 40036d4:	003ecc06 	br	4003208 <__ram_exceptions_end+0xfbfe2fc0>
 40036d8:	18c03fcc 	andi	r3,r3,255
 40036dc:	183e9f26 	beq	r3,zero,400315c <__ram_exceptions_end+0xfbfe2f14>
 40036e0:	d9c02785 	stb	r7,158(sp)
 40036e4:	003e9d06 	br	400315c <__ram_exceptions_end+0xfbfe2f14>
 40036e8:	00c00044 	movi	r3,1
 40036ec:	01c00ac4 	movi	r7,43
 40036f0:	ac400007 	ldb	r17,0(r21)
 40036f4:	003d5e06 	br	4002c70 <__ram_exceptions_end+0xfbfe2a28>
 40036f8:	94800814 	ori	r18,r18,32
 40036fc:	ac400007 	ldb	r17,0(r21)
 4003700:	003d5b06 	br	4002c70 <__ram_exceptions_end+0xfbfe2a28>
 4003704:	d8c02d17 	ldw	r3,180(sp)
 4003708:	d8002785 	stb	zero,158(sp)
 400370c:	1c000017 	ldw	r16,0(r3)
 4003710:	1cc00104 	addi	r19,r3,4
 4003714:	80041926 	beq	r16,zero,400477c <___vfprintf_internal_r+0x1c90>
 4003718:	d9002917 	ldw	r4,164(sp)
 400371c:	2003d016 	blt	r4,zero,4004660 <___vfprintf_internal_r+0x1b74>
 4003720:	200d883a 	mov	r6,r4
 4003724:	000b883a 	mov	r5,zero
 4003728:	8009883a 	mov	r4,r16
 400372c:	da003d15 	stw	r8,244(sp)
 4003730:	40082fc0 	call	40082fc <memchr>
 4003734:	da003d17 	ldw	r8,244(sp)
 4003738:	10045426 	beq	r2,zero,400488c <___vfprintf_internal_r+0x1da0>
 400373c:	1405c83a 	sub	r2,r2,r16
 4003740:	d8802e15 	stw	r2,184(sp)
 4003744:	1003cc16 	blt	r2,zero,4004678 <___vfprintf_internal_r+0x1b8c>
 4003748:	df002783 	ldbu	fp,158(sp)
 400374c:	d8802a15 	stw	r2,168(sp)
 4003750:	dcc02d15 	stw	r19,180(sp)
 4003754:	d8002915 	stw	zero,164(sp)
 4003758:	d8003215 	stw	zero,200(sp)
 400375c:	003eb006 	br	4003220 <__ram_exceptions_end+0xfbfe2fd8>
 4003760:	18c03fcc 	andi	r3,r3,255
 4003764:	183f9b26 	beq	r3,zero,40035d4 <__ram_exceptions_end+0xfbfe338c>
 4003768:	d9c02785 	stb	r7,158(sp)
 400376c:	003f9906 	br	40035d4 <__ram_exceptions_end+0xfbfe338c>
 4003770:	18c03fcc 	andi	r3,r3,255
 4003774:	1805551e 	bne	r3,zero,4004ccc <___vfprintf_internal_r+0x21e0>
 4003778:	01410074 	movhi	r5,1025
 400377c:	294dd304 	addi	r5,r5,14156
 4003780:	d9403915 	stw	r5,228(sp)
 4003784:	9080080c 	andi	r2,r18,32
 4003788:	103fae1e 	bne	r2,zero,4003644 <__ram_exceptions_end+0xfbfe33fc>
 400378c:	9080040c 	andi	r2,r18,16
 4003790:	1002de26 	beq	r2,zero,400430c <___vfprintf_internal_r+0x1820>
 4003794:	d8c02d17 	ldw	r3,180(sp)
 4003798:	002d883a 	mov	r22,zero
 400379c:	1cc00017 	ldw	r19,0(r3)
 40037a0:	18c00104 	addi	r3,r3,4
 40037a4:	d8c02d15 	stw	r3,180(sp)
 40037a8:	003fab06 	br	4003658 <__ram_exceptions_end+0xfbfe3410>
 40037ac:	38803fcc 	andi	r2,r7,255
 40037b0:	1080201c 	xori	r2,r2,128
 40037b4:	10bfe004 	addi	r2,r2,-128
 40037b8:	1002d21e 	bne	r2,zero,4004304 <___vfprintf_internal_r+0x1818>
 40037bc:	00c00044 	movi	r3,1
 40037c0:	01c00804 	movi	r7,32
 40037c4:	ac400007 	ldb	r17,0(r21)
 40037c8:	003d2906 	br	4002c70 <__ram_exceptions_end+0xfbfe2a28>
 40037cc:	94800054 	ori	r18,r18,1
 40037d0:	ac400007 	ldb	r17,0(r21)
 40037d4:	003d2606 	br	4002c70 <__ram_exceptions_end+0xfbfe2a28>
 40037d8:	18c03fcc 	andi	r3,r3,255
 40037dc:	183e0526 	beq	r3,zero,4002ff4 <__ram_exceptions_end+0xfbfe2dac>
 40037e0:	d9c02785 	stb	r7,158(sp)
 40037e4:	003e0306 	br	4002ff4 <__ram_exceptions_end+0xfbfe2dac>
 40037e8:	94801014 	ori	r18,r18,64
 40037ec:	ac400007 	ldb	r17,0(r21)
 40037f0:	003d1f06 	br	4002c70 <__ram_exceptions_end+0xfbfe2a28>
 40037f4:	ac400007 	ldb	r17,0(r21)
 40037f8:	8a438726 	beq	r17,r9,4004618 <___vfprintf_internal_r+0x1b2c>
 40037fc:	94800414 	ori	r18,r18,16
 4003800:	003d1b06 	br	4002c70 <__ram_exceptions_end+0xfbfe2a28>
 4003804:	18c03fcc 	andi	r3,r3,255
 4003808:	1805341e 	bne	r3,zero,4004cdc <___vfprintf_internal_r+0x21f0>
 400380c:	9080080c 	andi	r2,r18,32
 4003810:	1002cd26 	beq	r2,zero,4004348 <___vfprintf_internal_r+0x185c>
 4003814:	d9402d17 	ldw	r5,180(sp)
 4003818:	d9002f17 	ldw	r4,188(sp)
 400381c:	28800017 	ldw	r2,0(r5)
 4003820:	2007d7fa 	srai	r3,r4,31
 4003824:	29400104 	addi	r5,r5,4
 4003828:	d9402d15 	stw	r5,180(sp)
 400382c:	11000015 	stw	r4,0(r2)
 4003830:	10c00115 	stw	r3,4(r2)
 4003834:	003ce506 	br	4002bcc <__ram_exceptions_end+0xfbfe2984>
 4003838:	d8c02d17 	ldw	r3,180(sp)
 400383c:	d9002d17 	ldw	r4,180(sp)
 4003840:	d8002785 	stb	zero,158(sp)
 4003844:	18800017 	ldw	r2,0(r3)
 4003848:	21000104 	addi	r4,r4,4
 400384c:	00c00044 	movi	r3,1
 4003850:	d8c02a15 	stw	r3,168(sp)
 4003854:	d8801405 	stb	r2,80(sp)
 4003858:	d9002d15 	stw	r4,180(sp)
 400385c:	d8c02e15 	stw	r3,184(sp)
 4003860:	d8002915 	stw	zero,164(sp)
 4003864:	d8003215 	stw	zero,200(sp)
 4003868:	dc001404 	addi	r16,sp,80
 400386c:	0039883a 	mov	fp,zero
 4003870:	003e7206 	br	400323c <__ram_exceptions_end+0xfbfe2ff4>
 4003874:	01010074 	movhi	r4,1025
 4003878:	210dd304 	addi	r4,r4,14156
 400387c:	0039883a 	mov	fp,zero
 4003880:	d9003915 	stw	r4,228(sp)
 4003884:	04401e04 	movi	r17,120
 4003888:	003f8206 	br	4003694 <__ram_exceptions_end+0xfbfe344c>
 400388c:	18c03fcc 	andi	r3,r3,255
 4003890:	1805061e 	bne	r3,zero,4004cac <___vfprintf_internal_r+0x21c0>
 4003894:	883d9126 	beq	r17,zero,4002edc <__ram_exceptions_end+0xfbfe2c94>
 4003898:	00c00044 	movi	r3,1
 400389c:	d8c02a15 	stw	r3,168(sp)
 40038a0:	dc401405 	stb	r17,80(sp)
 40038a4:	d8002785 	stb	zero,158(sp)
 40038a8:	003fec06 	br	400385c <__ram_exceptions_end+0xfbfe3614>
 40038ac:	01410074 	movhi	r5,1025
 40038b0:	294dd304 	addi	r5,r5,14156
 40038b4:	d9403915 	stw	r5,228(sp)
 40038b8:	d8c02d15 	stw	r3,180(sp)
 40038bc:	1025883a 	mov	r18,r2
 40038c0:	04401e04 	movi	r17,120
 40038c4:	9d84b03a 	or	r2,r19,r22
 40038c8:	1000fc1e 	bne	r2,zero,4003cbc <___vfprintf_internal_r+0x11d0>
 40038cc:	0039883a 	mov	fp,zero
 40038d0:	00800084 	movi	r2,2
 40038d4:	10803fcc 	andi	r2,r2,255
 40038d8:	00c00044 	movi	r3,1
 40038dc:	10c20f26 	beq	r2,r3,400411c <___vfprintf_internal_r+0x1630>
 40038e0:	00c00084 	movi	r3,2
 40038e4:	10fd6326 	beq	r2,r3,4002e74 <__ram_exceptions_end+0xfbfe2c2c>
 40038e8:	003e2d06 	br	40031a0 <__ram_exceptions_end+0xfbfe2f58>
 40038ec:	d8c02017 	ldw	r3,128(sp)
 40038f0:	003e9306 	br	4003340 <__ram_exceptions_end+0xfbfe30f8>
 40038f4:	00801944 	movi	r2,101
 40038f8:	14407e0e 	bge	r2,r17,4003af4 <___vfprintf_internal_r+0x1008>
 40038fc:	d9003617 	ldw	r4,216(sp)
 4003900:	d9403817 	ldw	r5,224(sp)
 4003904:	000d883a 	mov	r6,zero
 4003908:	000f883a 	mov	r7,zero
 400390c:	d8c03c15 	stw	r3,240(sp)
 4003910:	da003d15 	stw	r8,244(sp)
 4003914:	400f1f80 	call	400f1f8 <__eqdf2>
 4003918:	d8c03c17 	ldw	r3,240(sp)
 400391c:	da003d17 	ldw	r8,244(sp)
 4003920:	1000f71e 	bne	r2,zero,4003d00 <___vfprintf_internal_r+0x1214>
 4003924:	d8801f17 	ldw	r2,124(sp)
 4003928:	01010074 	movhi	r4,1025
 400392c:	210dda04 	addi	r4,r4,14184
 4003930:	18c00044 	addi	r3,r3,1
 4003934:	10800044 	addi	r2,r2,1
 4003938:	41000015 	stw	r4,0(r8)
 400393c:	01000044 	movi	r4,1
 4003940:	41000115 	stw	r4,4(r8)
 4003944:	d8c02015 	stw	r3,128(sp)
 4003948:	d8801f15 	stw	r2,124(sp)
 400394c:	010001c4 	movi	r4,7
 4003950:	2082b816 	blt	r4,r2,4004434 <___vfprintf_internal_r+0x1948>
 4003954:	42000204 	addi	r8,r8,8
 4003958:	d8802617 	ldw	r2,152(sp)
 400395c:	d9403317 	ldw	r5,204(sp)
 4003960:	11400216 	blt	r2,r5,400396c <___vfprintf_internal_r+0xe80>
 4003964:	9080004c 	andi	r2,r18,1
 4003968:	103ed526 	beq	r2,zero,40034c0 <__ram_exceptions_end+0xfbfe3278>
 400396c:	d8803717 	ldw	r2,220(sp)
 4003970:	d9003417 	ldw	r4,208(sp)
 4003974:	d9403717 	ldw	r5,220(sp)
 4003978:	1887883a 	add	r3,r3,r2
 400397c:	d8801f17 	ldw	r2,124(sp)
 4003980:	41000015 	stw	r4,0(r8)
 4003984:	41400115 	stw	r5,4(r8)
 4003988:	10800044 	addi	r2,r2,1
 400398c:	d8c02015 	stw	r3,128(sp)
 4003990:	d8801f15 	stw	r2,124(sp)
 4003994:	010001c4 	movi	r4,7
 4003998:	20832916 	blt	r4,r2,4004640 <___vfprintf_internal_r+0x1b54>
 400399c:	42000204 	addi	r8,r8,8
 40039a0:	d8803317 	ldw	r2,204(sp)
 40039a4:	143fffc4 	addi	r16,r2,-1
 40039a8:	043ec50e 	bge	zero,r16,40034c0 <__ram_exceptions_end+0xfbfe3278>
 40039ac:	04400404 	movi	r17,16
 40039b0:	d8801f17 	ldw	r2,124(sp)
 40039b4:	8c00880e 	bge	r17,r16,4003bd8 <___vfprintf_internal_r+0x10ec>
 40039b8:	01410074 	movhi	r5,1025
 40039bc:	294de284 	addi	r5,r5,14218
 40039c0:	d9402b15 	stw	r5,172(sp)
 40039c4:	058001c4 	movi	r22,7
 40039c8:	dcc02c17 	ldw	r19,176(sp)
 40039cc:	00000306 	br	40039dc <___vfprintf_internal_r+0xef0>
 40039d0:	42000204 	addi	r8,r8,8
 40039d4:	843ffc04 	addi	r16,r16,-16
 40039d8:	8c00820e 	bge	r17,r16,4003be4 <___vfprintf_internal_r+0x10f8>
 40039dc:	18c00404 	addi	r3,r3,16
 40039e0:	10800044 	addi	r2,r2,1
 40039e4:	45000015 	stw	r20,0(r8)
 40039e8:	44400115 	stw	r17,4(r8)
 40039ec:	d8c02015 	stw	r3,128(sp)
 40039f0:	d8801f15 	stw	r2,124(sp)
 40039f4:	b0bff60e 	bge	r22,r2,40039d0 <__ram_exceptions_end+0xfbfe3788>
 40039f8:	d9801e04 	addi	r6,sp,120
 40039fc:	b80b883a 	mov	r5,r23
 4003a00:	9809883a 	mov	r4,r19
 4003a04:	400b5800 	call	400b580 <__sprint_r>
 4003a08:	103d3a1e 	bne	r2,zero,4002ef4 <__ram_exceptions_end+0xfbfe2cac>
 4003a0c:	d8c02017 	ldw	r3,128(sp)
 4003a10:	d8801f17 	ldw	r2,124(sp)
 4003a14:	da000404 	addi	r8,sp,16
 4003a18:	003fee06 	br	40039d4 <__ram_exceptions_end+0xfbfe378c>
 4003a1c:	d9403117 	ldw	r5,196(sp)
 4003a20:	d8802a17 	ldw	r2,168(sp)
 4003a24:	28adc83a 	sub	r22,r5,r2
 4003a28:	05be630e 	bge	zero,r22,40033b8 <__ram_exceptions_end+0xfbfe3170>
 4003a2c:	07000404 	movi	fp,16
 4003a30:	d8801f17 	ldw	r2,124(sp)
 4003a34:	e5838f0e 	bge	fp,r22,4004874 <___vfprintf_internal_r+0x1d88>
 4003a38:	01410074 	movhi	r5,1025
 4003a3c:	294de284 	addi	r5,r5,14218
 4003a40:	dc403015 	stw	r17,192(sp)
 4003a44:	d9402b15 	stw	r5,172(sp)
 4003a48:	b023883a 	mov	r17,r22
 4003a4c:	04c001c4 	movi	r19,7
 4003a50:	a82d883a 	mov	r22,r21
 4003a54:	902b883a 	mov	r21,r18
 4003a58:	8025883a 	mov	r18,r16
 4003a5c:	dc002c17 	ldw	r16,176(sp)
 4003a60:	00000306 	br	4003a70 <___vfprintf_internal_r+0xf84>
 4003a64:	8c7ffc04 	addi	r17,r17,-16
 4003a68:	42000204 	addi	r8,r8,8
 4003a6c:	e440110e 	bge	fp,r17,4003ab4 <___vfprintf_internal_r+0xfc8>
 4003a70:	18c00404 	addi	r3,r3,16
 4003a74:	10800044 	addi	r2,r2,1
 4003a78:	45000015 	stw	r20,0(r8)
 4003a7c:	47000115 	stw	fp,4(r8)
 4003a80:	d8c02015 	stw	r3,128(sp)
 4003a84:	d8801f15 	stw	r2,124(sp)
 4003a88:	98bff60e 	bge	r19,r2,4003a64 <__ram_exceptions_end+0xfbfe381c>
 4003a8c:	d9801e04 	addi	r6,sp,120
 4003a90:	b80b883a 	mov	r5,r23
 4003a94:	8009883a 	mov	r4,r16
 4003a98:	400b5800 	call	400b580 <__sprint_r>
 4003a9c:	103d151e 	bne	r2,zero,4002ef4 <__ram_exceptions_end+0xfbfe2cac>
 4003aa0:	8c7ffc04 	addi	r17,r17,-16
 4003aa4:	d8c02017 	ldw	r3,128(sp)
 4003aa8:	d8801f17 	ldw	r2,124(sp)
 4003aac:	da000404 	addi	r8,sp,16
 4003ab0:	e47fef16 	blt	fp,r17,4003a70 <__ram_exceptions_end+0xfbfe3828>
 4003ab4:	9021883a 	mov	r16,r18
 4003ab8:	a825883a 	mov	r18,r21
 4003abc:	b02b883a 	mov	r21,r22
 4003ac0:	882d883a 	mov	r22,r17
 4003ac4:	dc403017 	ldw	r17,192(sp)
 4003ac8:	d9002b17 	ldw	r4,172(sp)
 4003acc:	1d87883a 	add	r3,r3,r22
 4003ad0:	10800044 	addi	r2,r2,1
 4003ad4:	41000015 	stw	r4,0(r8)
 4003ad8:	45800115 	stw	r22,4(r8)
 4003adc:	d8c02015 	stw	r3,128(sp)
 4003ae0:	d8801f15 	stw	r2,124(sp)
 4003ae4:	010001c4 	movi	r4,7
 4003ae8:	20818e16 	blt	r4,r2,4004124 <___vfprintf_internal_r+0x1638>
 4003aec:	42000204 	addi	r8,r8,8
 4003af0:	003e3106 	br	40033b8 <__ram_exceptions_end+0xfbfe3170>
 4003af4:	d9403317 	ldw	r5,204(sp)
 4003af8:	00800044 	movi	r2,1
 4003afc:	18c00044 	addi	r3,r3,1
 4003b00:	1141530e 	bge	r2,r5,4004050 <___vfprintf_internal_r+0x1564>
 4003b04:	dc401f17 	ldw	r17,124(sp)
 4003b08:	00800044 	movi	r2,1
 4003b0c:	40800115 	stw	r2,4(r8)
 4003b10:	8c400044 	addi	r17,r17,1
 4003b14:	44000015 	stw	r16,0(r8)
 4003b18:	d8c02015 	stw	r3,128(sp)
 4003b1c:	dc401f15 	stw	r17,124(sp)
 4003b20:	008001c4 	movi	r2,7
 4003b24:	14416b16 	blt	r2,r17,40040d4 <___vfprintf_internal_r+0x15e8>
 4003b28:	42000204 	addi	r8,r8,8
 4003b2c:	d8803717 	ldw	r2,220(sp)
 4003b30:	d9003417 	ldw	r4,208(sp)
 4003b34:	8c400044 	addi	r17,r17,1
 4003b38:	10c7883a 	add	r3,r2,r3
 4003b3c:	40800115 	stw	r2,4(r8)
 4003b40:	41000015 	stw	r4,0(r8)
 4003b44:	d8c02015 	stw	r3,128(sp)
 4003b48:	dc401f15 	stw	r17,124(sp)
 4003b4c:	008001c4 	movi	r2,7
 4003b50:	14416916 	blt	r2,r17,40040f8 <___vfprintf_internal_r+0x160c>
 4003b54:	45800204 	addi	r22,r8,8
 4003b58:	d9003617 	ldw	r4,216(sp)
 4003b5c:	d9403817 	ldw	r5,224(sp)
 4003b60:	000d883a 	mov	r6,zero
 4003b64:	000f883a 	mov	r7,zero
 4003b68:	d8c03c15 	stw	r3,240(sp)
 4003b6c:	400f1f80 	call	400f1f8 <__eqdf2>
 4003b70:	d8c03c17 	ldw	r3,240(sp)
 4003b74:	1000bc26 	beq	r2,zero,4003e68 <___vfprintf_internal_r+0x137c>
 4003b78:	d9403317 	ldw	r5,204(sp)
 4003b7c:	84000044 	addi	r16,r16,1
 4003b80:	8c400044 	addi	r17,r17,1
 4003b84:	28bfffc4 	addi	r2,r5,-1
 4003b88:	1887883a 	add	r3,r3,r2
 4003b8c:	b0800115 	stw	r2,4(r22)
 4003b90:	b4000015 	stw	r16,0(r22)
 4003b94:	d8c02015 	stw	r3,128(sp)
 4003b98:	dc401f15 	stw	r17,124(sp)
 4003b9c:	008001c4 	movi	r2,7
 4003ba0:	14414316 	blt	r2,r17,40040b0 <___vfprintf_internal_r+0x15c4>
 4003ba4:	b5800204 	addi	r22,r22,8
 4003ba8:	d9003a17 	ldw	r4,232(sp)
 4003bac:	df0022c4 	addi	fp,sp,139
 4003bb0:	8c400044 	addi	r17,r17,1
 4003bb4:	20c7883a 	add	r3,r4,r3
 4003bb8:	b7000015 	stw	fp,0(r22)
 4003bbc:	b1000115 	stw	r4,4(r22)
 4003bc0:	d8c02015 	stw	r3,128(sp)
 4003bc4:	dc401f15 	stw	r17,124(sp)
 4003bc8:	008001c4 	movi	r2,7
 4003bcc:	14400e16 	blt	r2,r17,4003c08 <___vfprintf_internal_r+0x111c>
 4003bd0:	b2000204 	addi	r8,r22,8
 4003bd4:	003e3a06 	br	40034c0 <__ram_exceptions_end+0xfbfe3278>
 4003bd8:	01010074 	movhi	r4,1025
 4003bdc:	210de284 	addi	r4,r4,14218
 4003be0:	d9002b15 	stw	r4,172(sp)
 4003be4:	d9002b17 	ldw	r4,172(sp)
 4003be8:	1c07883a 	add	r3,r3,r16
 4003bec:	44000115 	stw	r16,4(r8)
 4003bf0:	41000015 	stw	r4,0(r8)
 4003bf4:	10800044 	addi	r2,r2,1
 4003bf8:	d8c02015 	stw	r3,128(sp)
 4003bfc:	d8801f15 	stw	r2,124(sp)
 4003c00:	010001c4 	movi	r4,7
 4003c04:	20be2d0e 	bge	r4,r2,40034bc <__ram_exceptions_end+0xfbfe3274>
 4003c08:	d9002c17 	ldw	r4,176(sp)
 4003c0c:	d9801e04 	addi	r6,sp,120
 4003c10:	b80b883a 	mov	r5,r23
 4003c14:	400b5800 	call	400b580 <__sprint_r>
 4003c18:	103cb61e 	bne	r2,zero,4002ef4 <__ram_exceptions_end+0xfbfe2cac>
 4003c1c:	d8c02017 	ldw	r3,128(sp)
 4003c20:	da000404 	addi	r8,sp,16
 4003c24:	003e2606 	br	40034c0 <__ram_exceptions_end+0xfbfe3278>
 4003c28:	d9002c17 	ldw	r4,176(sp)
 4003c2c:	d9801e04 	addi	r6,sp,120
 4003c30:	b80b883a 	mov	r5,r23
 4003c34:	400b5800 	call	400b580 <__sprint_r>
 4003c38:	103e5d26 	beq	r2,zero,40035b0 <__ram_exceptions_end+0xfbfe3368>
 4003c3c:	003cad06 	br	4002ef4 <__ram_exceptions_end+0xfbfe2cac>
 4003c40:	d9002c17 	ldw	r4,176(sp)
 4003c44:	d9801e04 	addi	r6,sp,120
 4003c48:	b80b883a 	mov	r5,r23
 4003c4c:	400b5800 	call	400b580 <__sprint_r>
 4003c50:	103ca81e 	bne	r2,zero,4002ef4 <__ram_exceptions_end+0xfbfe2cac>
 4003c54:	d8c02017 	ldw	r3,128(sp)
 4003c58:	da000404 	addi	r8,sp,16
 4003c5c:	003e0b06 	br	400348c <__ram_exceptions_end+0xfbfe3244>
 4003c60:	d9002c17 	ldw	r4,176(sp)
 4003c64:	d9801e04 	addi	r6,sp,120
 4003c68:	b80b883a 	mov	r5,r23
 4003c6c:	400b5800 	call	400b580 <__sprint_r>
 4003c70:	103ca01e 	bne	r2,zero,4002ef4 <__ram_exceptions_end+0xfbfe2cac>
 4003c74:	d8c02017 	ldw	r3,128(sp)
 4003c78:	da000404 	addi	r8,sp,16
 4003c7c:	003dbd06 	br	4003374 <__ram_exceptions_end+0xfbfe312c>
 4003c80:	d9002c17 	ldw	r4,176(sp)
 4003c84:	d9801e04 	addi	r6,sp,120
 4003c88:	b80b883a 	mov	r5,r23
 4003c8c:	400b5800 	call	400b580 <__sprint_r>
 4003c90:	103c981e 	bne	r2,zero,4002ef4 <__ram_exceptions_end+0xfbfe2cac>
 4003c94:	d8c02017 	ldw	r3,128(sp)
 4003c98:	da000404 	addi	r8,sp,16
 4003c9c:	003dc306 	br	40033ac <__ram_exceptions_end+0xfbfe3164>
 4003ca0:	d8802917 	ldw	r2,164(sp)
 4003ca4:	d8002785 	stb	zero,158(sp)
 4003ca8:	103f0616 	blt	r2,zero,40038c4 <__ram_exceptions_end+0xfbfe367c>
 4003cac:	00ffdfc4 	movi	r3,-129
 4003cb0:	9d84b03a 	or	r2,r19,r22
 4003cb4:	90e4703a 	and	r18,r18,r3
 4003cb8:	103c6b26 	beq	r2,zero,4002e68 <__ram_exceptions_end+0xfbfe2c20>
 4003cbc:	0039883a 	mov	fp,zero
 4003cc0:	003e7406 	br	4003694 <__ram_exceptions_end+0xfbfe344c>
 4003cc4:	9080040c 	andi	r2,r18,16
 4003cc8:	1001b326 	beq	r2,zero,4004398 <___vfprintf_internal_r+0x18ac>
 4003ccc:	d9002d17 	ldw	r4,180(sp)
 4003cd0:	d9402917 	ldw	r5,164(sp)
 4003cd4:	d8002785 	stb	zero,158(sp)
 4003cd8:	20800104 	addi	r2,r4,4
 4003cdc:	24c00017 	ldw	r19,0(r4)
 4003ce0:	002d883a 	mov	r22,zero
 4003ce4:	2801b516 	blt	r5,zero,40043bc <___vfprintf_internal_r+0x18d0>
 4003ce8:	00ffdfc4 	movi	r3,-129
 4003cec:	d8802d15 	stw	r2,180(sp)
 4003cf0:	90e4703a 	and	r18,r18,r3
 4003cf4:	983d2726 	beq	r19,zero,4003194 <__ram_exceptions_end+0xfbfe2f4c>
 4003cf8:	0039883a 	mov	fp,zero
 4003cfc:	003d2a06 	br	40031a8 <__ram_exceptions_end+0xfbfe2f60>
 4003d00:	dc402617 	ldw	r17,152(sp)
 4003d04:	0441d30e 	bge	zero,r17,4004454 <___vfprintf_internal_r+0x1968>
 4003d08:	dc403217 	ldw	r17,200(sp)
 4003d0c:	d8803317 	ldw	r2,204(sp)
 4003d10:	1440010e 	bge	r2,r17,4003d18 <___vfprintf_internal_r+0x122c>
 4003d14:	1023883a 	mov	r17,r2
 4003d18:	04400a0e 	bge	zero,r17,4003d44 <___vfprintf_internal_r+0x1258>
 4003d1c:	d8801f17 	ldw	r2,124(sp)
 4003d20:	1c47883a 	add	r3,r3,r17
 4003d24:	44000015 	stw	r16,0(r8)
 4003d28:	10800044 	addi	r2,r2,1
 4003d2c:	44400115 	stw	r17,4(r8)
 4003d30:	d8c02015 	stw	r3,128(sp)
 4003d34:	d8801f15 	stw	r2,124(sp)
 4003d38:	010001c4 	movi	r4,7
 4003d3c:	20826516 	blt	r4,r2,40046d4 <___vfprintf_internal_r+0x1be8>
 4003d40:	42000204 	addi	r8,r8,8
 4003d44:	88026116 	blt	r17,zero,40046cc <___vfprintf_internal_r+0x1be0>
 4003d48:	d9003217 	ldw	r4,200(sp)
 4003d4c:	2463c83a 	sub	r17,r4,r17
 4003d50:	04407b0e 	bge	zero,r17,4003f40 <___vfprintf_internal_r+0x1454>
 4003d54:	05800404 	movi	r22,16
 4003d58:	d8801f17 	ldw	r2,124(sp)
 4003d5c:	b4419d0e 	bge	r22,r17,40043d4 <___vfprintf_internal_r+0x18e8>
 4003d60:	01010074 	movhi	r4,1025
 4003d64:	210de284 	addi	r4,r4,14218
 4003d68:	d9002b15 	stw	r4,172(sp)
 4003d6c:	070001c4 	movi	fp,7
 4003d70:	dcc02c17 	ldw	r19,176(sp)
 4003d74:	00000306 	br	4003d84 <___vfprintf_internal_r+0x1298>
 4003d78:	42000204 	addi	r8,r8,8
 4003d7c:	8c7ffc04 	addi	r17,r17,-16
 4003d80:	b441970e 	bge	r22,r17,40043e0 <___vfprintf_internal_r+0x18f4>
 4003d84:	18c00404 	addi	r3,r3,16
 4003d88:	10800044 	addi	r2,r2,1
 4003d8c:	45000015 	stw	r20,0(r8)
 4003d90:	45800115 	stw	r22,4(r8)
 4003d94:	d8c02015 	stw	r3,128(sp)
 4003d98:	d8801f15 	stw	r2,124(sp)
 4003d9c:	e0bff60e 	bge	fp,r2,4003d78 <__ram_exceptions_end+0xfbfe3b30>
 4003da0:	d9801e04 	addi	r6,sp,120
 4003da4:	b80b883a 	mov	r5,r23
 4003da8:	9809883a 	mov	r4,r19
 4003dac:	400b5800 	call	400b580 <__sprint_r>
 4003db0:	103c501e 	bne	r2,zero,4002ef4 <__ram_exceptions_end+0xfbfe2cac>
 4003db4:	d8c02017 	ldw	r3,128(sp)
 4003db8:	d8801f17 	ldw	r2,124(sp)
 4003dbc:	da000404 	addi	r8,sp,16
 4003dc0:	003fee06 	br	4003d7c <__ram_exceptions_end+0xfbfe3b34>
 4003dc4:	d9002c17 	ldw	r4,176(sp)
 4003dc8:	d9801e04 	addi	r6,sp,120
 4003dcc:	b80b883a 	mov	r5,r23
 4003dd0:	400b5800 	call	400b580 <__sprint_r>
 4003dd4:	103c471e 	bne	r2,zero,4002ef4 <__ram_exceptions_end+0xfbfe2cac>
 4003dd8:	d8c02017 	ldw	r3,128(sp)
 4003ddc:	df002787 	ldb	fp,158(sp)
 4003de0:	da000404 	addi	r8,sp,16
 4003de4:	003d5606 	br	4003340 <__ram_exceptions_end+0xfbfe30f8>
 4003de8:	9080040c 	andi	r2,r18,16
 4003dec:	10016126 	beq	r2,zero,4004374 <___vfprintf_internal_r+0x1888>
 4003df0:	d8802d17 	ldw	r2,180(sp)
 4003df4:	14c00017 	ldw	r19,0(r2)
 4003df8:	10800104 	addi	r2,r2,4
 4003dfc:	d8802d15 	stw	r2,180(sp)
 4003e00:	982dd7fa 	srai	r22,r19,31
 4003e04:	b005883a 	mov	r2,r22
 4003e08:	003c8206 	br	4003014 <__ram_exceptions_end+0xfbfe2dcc>
 4003e0c:	9080040c 	andi	r2,r18,16
 4003e10:	10003526 	beq	r2,zero,4003ee8 <___vfprintf_internal_r+0x13fc>
 4003e14:	d9402d17 	ldw	r5,180(sp)
 4003e18:	d8c02917 	ldw	r3,164(sp)
 4003e1c:	d8002785 	stb	zero,158(sp)
 4003e20:	28800104 	addi	r2,r5,4
 4003e24:	2cc00017 	ldw	r19,0(r5)
 4003e28:	002d883a 	mov	r22,zero
 4003e2c:	18003716 	blt	r3,zero,4003f0c <___vfprintf_internal_r+0x1420>
 4003e30:	00ffdfc4 	movi	r3,-129
 4003e34:	d8802d15 	stw	r2,180(sp)
 4003e38:	90e4703a 	and	r18,r18,r3
 4003e3c:	0039883a 	mov	fp,zero
 4003e40:	983df326 	beq	r19,zero,4003610 <__ram_exceptions_end+0xfbfe33c8>
 4003e44:	00800244 	movi	r2,9
 4003e48:	14fc7b36 	bltu	r2,r19,4003038 <__ram_exceptions_end+0xfbfe2df0>
 4003e4c:	d8c02817 	ldw	r3,160(sp)
 4003e50:	dc001dc4 	addi	r16,sp,119
 4003e54:	9cc00c04 	addi	r19,r19,48
 4003e58:	1c07c83a 	sub	r3,r3,r16
 4003e5c:	dcc01dc5 	stb	r19,119(sp)
 4003e60:	d8c02e15 	stw	r3,184(sp)
 4003e64:	003ce806 	br	4003208 <__ram_exceptions_end+0xfbfe2fc0>
 4003e68:	d8803317 	ldw	r2,204(sp)
 4003e6c:	143fffc4 	addi	r16,r2,-1
 4003e70:	043f4d0e 	bge	zero,r16,4003ba8 <__ram_exceptions_end+0xfbfe3960>
 4003e74:	07000404 	movi	fp,16
 4003e78:	e400810e 	bge	fp,r16,4004080 <___vfprintf_internal_r+0x1594>
 4003e7c:	01410074 	movhi	r5,1025
 4003e80:	294de284 	addi	r5,r5,14218
 4003e84:	d9402b15 	stw	r5,172(sp)
 4003e88:	01c001c4 	movi	r7,7
 4003e8c:	dcc02c17 	ldw	r19,176(sp)
 4003e90:	00000306 	br	4003ea0 <___vfprintf_internal_r+0x13b4>
 4003e94:	b5800204 	addi	r22,r22,8
 4003e98:	843ffc04 	addi	r16,r16,-16
 4003e9c:	e4007b0e 	bge	fp,r16,400408c <___vfprintf_internal_r+0x15a0>
 4003ea0:	18c00404 	addi	r3,r3,16
 4003ea4:	8c400044 	addi	r17,r17,1
 4003ea8:	b5000015 	stw	r20,0(r22)
 4003eac:	b7000115 	stw	fp,4(r22)
 4003eb0:	d8c02015 	stw	r3,128(sp)
 4003eb4:	dc401f15 	stw	r17,124(sp)
 4003eb8:	3c7ff60e 	bge	r7,r17,4003e94 <__ram_exceptions_end+0xfbfe3c4c>
 4003ebc:	d9801e04 	addi	r6,sp,120
 4003ec0:	b80b883a 	mov	r5,r23
 4003ec4:	9809883a 	mov	r4,r19
 4003ec8:	d9c03c15 	stw	r7,240(sp)
 4003ecc:	400b5800 	call	400b580 <__sprint_r>
 4003ed0:	d9c03c17 	ldw	r7,240(sp)
 4003ed4:	103c071e 	bne	r2,zero,4002ef4 <__ram_exceptions_end+0xfbfe2cac>
 4003ed8:	d8c02017 	ldw	r3,128(sp)
 4003edc:	dc401f17 	ldw	r17,124(sp)
 4003ee0:	dd800404 	addi	r22,sp,16
 4003ee4:	003fec06 	br	4003e98 <__ram_exceptions_end+0xfbfe3c50>
 4003ee8:	9080100c 	andi	r2,r18,64
 4003eec:	d8002785 	stb	zero,158(sp)
 4003ef0:	10010e26 	beq	r2,zero,400432c <___vfprintf_internal_r+0x1840>
 4003ef4:	d9002d17 	ldw	r4,180(sp)
 4003ef8:	d9402917 	ldw	r5,164(sp)
 4003efc:	002d883a 	mov	r22,zero
 4003f00:	20800104 	addi	r2,r4,4
 4003f04:	24c0000b 	ldhu	r19,0(r4)
 4003f08:	283fc90e 	bge	r5,zero,4003e30 <__ram_exceptions_end+0xfbfe3be8>
 4003f0c:	d8802d15 	stw	r2,180(sp)
 4003f10:	0039883a 	mov	fp,zero
 4003f14:	9d84b03a 	or	r2,r19,r22
 4003f18:	103c461e 	bne	r2,zero,4003034 <__ram_exceptions_end+0xfbfe2dec>
 4003f1c:	00800044 	movi	r2,1
 4003f20:	003e6c06 	br	40038d4 <__ram_exceptions_end+0xfbfe368c>
 4003f24:	d9002c17 	ldw	r4,176(sp)
 4003f28:	d9801e04 	addi	r6,sp,120
 4003f2c:	b80b883a 	mov	r5,r23
 4003f30:	400b5800 	call	400b580 <__sprint_r>
 4003f34:	103bef1e 	bne	r2,zero,4002ef4 <__ram_exceptions_end+0xfbfe2cac>
 4003f38:	d8c02017 	ldw	r3,128(sp)
 4003f3c:	da000404 	addi	r8,sp,16
 4003f40:	d9003217 	ldw	r4,200(sp)
 4003f44:	d8802617 	ldw	r2,152(sp)
 4003f48:	d9403317 	ldw	r5,204(sp)
 4003f4c:	8123883a 	add	r17,r16,r4
 4003f50:	11400216 	blt	r2,r5,4003f5c <___vfprintf_internal_r+0x1470>
 4003f54:	9100004c 	andi	r4,r18,1
 4003f58:	20000d26 	beq	r4,zero,4003f90 <___vfprintf_internal_r+0x14a4>
 4003f5c:	d9003717 	ldw	r4,220(sp)
 4003f60:	d9403417 	ldw	r5,208(sp)
 4003f64:	1907883a 	add	r3,r3,r4
 4003f68:	d9001f17 	ldw	r4,124(sp)
 4003f6c:	41400015 	stw	r5,0(r8)
 4003f70:	d9403717 	ldw	r5,220(sp)
 4003f74:	21000044 	addi	r4,r4,1
 4003f78:	d8c02015 	stw	r3,128(sp)
 4003f7c:	41400115 	stw	r5,4(r8)
 4003f80:	d9001f15 	stw	r4,124(sp)
 4003f84:	014001c4 	movi	r5,7
 4003f88:	2901e816 	blt	r5,r4,400472c <___vfprintf_internal_r+0x1c40>
 4003f8c:	42000204 	addi	r8,r8,8
 4003f90:	d9003317 	ldw	r4,204(sp)
 4003f94:	8121883a 	add	r16,r16,r4
 4003f98:	2085c83a 	sub	r2,r4,r2
 4003f9c:	8461c83a 	sub	r16,r16,r17
 4003fa0:	1400010e 	bge	r2,r16,4003fa8 <___vfprintf_internal_r+0x14bc>
 4003fa4:	1021883a 	mov	r16,r2
 4003fa8:	04000a0e 	bge	zero,r16,4003fd4 <___vfprintf_internal_r+0x14e8>
 4003fac:	d9001f17 	ldw	r4,124(sp)
 4003fb0:	1c07883a 	add	r3,r3,r16
 4003fb4:	44400015 	stw	r17,0(r8)
 4003fb8:	21000044 	addi	r4,r4,1
 4003fbc:	44000115 	stw	r16,4(r8)
 4003fc0:	d8c02015 	stw	r3,128(sp)
 4003fc4:	d9001f15 	stw	r4,124(sp)
 4003fc8:	014001c4 	movi	r5,7
 4003fcc:	2901fb16 	blt	r5,r4,40047bc <___vfprintf_internal_r+0x1cd0>
 4003fd0:	42000204 	addi	r8,r8,8
 4003fd4:	8001f716 	blt	r16,zero,40047b4 <___vfprintf_internal_r+0x1cc8>
 4003fd8:	1421c83a 	sub	r16,r2,r16
 4003fdc:	043d380e 	bge	zero,r16,40034c0 <__ram_exceptions_end+0xfbfe3278>
 4003fe0:	04400404 	movi	r17,16
 4003fe4:	d8801f17 	ldw	r2,124(sp)
 4003fe8:	8c3efb0e 	bge	r17,r16,4003bd8 <__ram_exceptions_end+0xfbfe3990>
 4003fec:	01410074 	movhi	r5,1025
 4003ff0:	294de284 	addi	r5,r5,14218
 4003ff4:	d9402b15 	stw	r5,172(sp)
 4003ff8:	058001c4 	movi	r22,7
 4003ffc:	dcc02c17 	ldw	r19,176(sp)
 4004000:	00000306 	br	4004010 <___vfprintf_internal_r+0x1524>
 4004004:	42000204 	addi	r8,r8,8
 4004008:	843ffc04 	addi	r16,r16,-16
 400400c:	8c3ef50e 	bge	r17,r16,4003be4 <__ram_exceptions_end+0xfbfe399c>
 4004010:	18c00404 	addi	r3,r3,16
 4004014:	10800044 	addi	r2,r2,1
 4004018:	45000015 	stw	r20,0(r8)
 400401c:	44400115 	stw	r17,4(r8)
 4004020:	d8c02015 	stw	r3,128(sp)
 4004024:	d8801f15 	stw	r2,124(sp)
 4004028:	b0bff60e 	bge	r22,r2,4004004 <__ram_exceptions_end+0xfbfe3dbc>
 400402c:	d9801e04 	addi	r6,sp,120
 4004030:	b80b883a 	mov	r5,r23
 4004034:	9809883a 	mov	r4,r19
 4004038:	400b5800 	call	400b580 <__sprint_r>
 400403c:	103bad1e 	bne	r2,zero,4002ef4 <__ram_exceptions_end+0xfbfe2cac>
 4004040:	d8c02017 	ldw	r3,128(sp)
 4004044:	d8801f17 	ldw	r2,124(sp)
 4004048:	da000404 	addi	r8,sp,16
 400404c:	003fee06 	br	4004008 <__ram_exceptions_end+0xfbfe3dc0>
 4004050:	9088703a 	and	r4,r18,r2
 4004054:	203eab1e 	bne	r4,zero,4003b04 <__ram_exceptions_end+0xfbfe38bc>
 4004058:	dc401f17 	ldw	r17,124(sp)
 400405c:	40800115 	stw	r2,4(r8)
 4004060:	44000015 	stw	r16,0(r8)
 4004064:	8c400044 	addi	r17,r17,1
 4004068:	d8c02015 	stw	r3,128(sp)
 400406c:	dc401f15 	stw	r17,124(sp)
 4004070:	008001c4 	movi	r2,7
 4004074:	14400e16 	blt	r2,r17,40040b0 <___vfprintf_internal_r+0x15c4>
 4004078:	45800204 	addi	r22,r8,8
 400407c:	003eca06 	br	4003ba8 <__ram_exceptions_end+0xfbfe3960>
 4004080:	01010074 	movhi	r4,1025
 4004084:	210de284 	addi	r4,r4,14218
 4004088:	d9002b15 	stw	r4,172(sp)
 400408c:	d8802b17 	ldw	r2,172(sp)
 4004090:	1c07883a 	add	r3,r3,r16
 4004094:	8c400044 	addi	r17,r17,1
 4004098:	b0800015 	stw	r2,0(r22)
 400409c:	b4000115 	stw	r16,4(r22)
 40040a0:	d8c02015 	stw	r3,128(sp)
 40040a4:	dc401f15 	stw	r17,124(sp)
 40040a8:	008001c4 	movi	r2,7
 40040ac:	147ebd0e 	bge	r2,r17,4003ba4 <__ram_exceptions_end+0xfbfe395c>
 40040b0:	d9002c17 	ldw	r4,176(sp)
 40040b4:	d9801e04 	addi	r6,sp,120
 40040b8:	b80b883a 	mov	r5,r23
 40040bc:	400b5800 	call	400b580 <__sprint_r>
 40040c0:	103b8c1e 	bne	r2,zero,4002ef4 <__ram_exceptions_end+0xfbfe2cac>
 40040c4:	d8c02017 	ldw	r3,128(sp)
 40040c8:	dc401f17 	ldw	r17,124(sp)
 40040cc:	dd800404 	addi	r22,sp,16
 40040d0:	003eb506 	br	4003ba8 <__ram_exceptions_end+0xfbfe3960>
 40040d4:	d9002c17 	ldw	r4,176(sp)
 40040d8:	d9801e04 	addi	r6,sp,120
 40040dc:	b80b883a 	mov	r5,r23
 40040e0:	400b5800 	call	400b580 <__sprint_r>
 40040e4:	103b831e 	bne	r2,zero,4002ef4 <__ram_exceptions_end+0xfbfe2cac>
 40040e8:	d8c02017 	ldw	r3,128(sp)
 40040ec:	dc401f17 	ldw	r17,124(sp)
 40040f0:	da000404 	addi	r8,sp,16
 40040f4:	003e8d06 	br	4003b2c <__ram_exceptions_end+0xfbfe38e4>
 40040f8:	d9002c17 	ldw	r4,176(sp)
 40040fc:	d9801e04 	addi	r6,sp,120
 4004100:	b80b883a 	mov	r5,r23
 4004104:	400b5800 	call	400b580 <__sprint_r>
 4004108:	103b7a1e 	bne	r2,zero,4002ef4 <__ram_exceptions_end+0xfbfe2cac>
 400410c:	d8c02017 	ldw	r3,128(sp)
 4004110:	dc401f17 	ldw	r17,124(sp)
 4004114:	dd800404 	addi	r22,sp,16
 4004118:	003e8f06 	br	4003b58 <__ram_exceptions_end+0xfbfe3910>
 400411c:	0027883a 	mov	r19,zero
 4004120:	003f4a06 	br	4003e4c <__ram_exceptions_end+0xfbfe3c04>
 4004124:	d9002c17 	ldw	r4,176(sp)
 4004128:	d9801e04 	addi	r6,sp,120
 400412c:	b80b883a 	mov	r5,r23
 4004130:	400b5800 	call	400b580 <__sprint_r>
 4004134:	103b6f1e 	bne	r2,zero,4002ef4 <__ram_exceptions_end+0xfbfe2cac>
 4004138:	d8c02017 	ldw	r3,128(sp)
 400413c:	da000404 	addi	r8,sp,16
 4004140:	003c9d06 	br	40033b8 <__ram_exceptions_end+0xfbfe3170>
 4004144:	04e7c83a 	sub	r19,zero,r19
 4004148:	9804c03a 	cmpne	r2,r19,zero
 400414c:	05adc83a 	sub	r22,zero,r22
 4004150:	b0adc83a 	sub	r22,r22,r2
 4004154:	d8802917 	ldw	r2,164(sp)
 4004158:	07000b44 	movi	fp,45
 400415c:	df002785 	stb	fp,158(sp)
 4004160:	10017b16 	blt	r2,zero,4004750 <___vfprintf_internal_r+0x1c64>
 4004164:	00bfdfc4 	movi	r2,-129
 4004168:	90a4703a 	and	r18,r18,r2
 400416c:	003bb106 	br	4003034 <__ram_exceptions_end+0xfbfe2dec>
 4004170:	d9003617 	ldw	r4,216(sp)
 4004174:	d9403817 	ldw	r5,224(sp)
 4004178:	da003d15 	stw	r8,244(sp)
 400417c:	4009e740 	call	4009e74 <__fpclassifyd>
 4004180:	da003d17 	ldw	r8,244(sp)
 4004184:	1000f026 	beq	r2,zero,4004548 <___vfprintf_internal_r+0x1a5c>
 4004188:	d9002917 	ldw	r4,164(sp)
 400418c:	05bff7c4 	movi	r22,-33
 4004190:	00bfffc4 	movi	r2,-1
 4004194:	8dac703a 	and	r22,r17,r22
 4004198:	20820026 	beq	r4,r2,400499c <___vfprintf_internal_r+0x1eb0>
 400419c:	008011c4 	movi	r2,71
 40041a0:	b081f726 	beq	r22,r2,4004980 <___vfprintf_internal_r+0x1e94>
 40041a4:	d9003817 	ldw	r4,224(sp)
 40041a8:	90c04014 	ori	r3,r18,256
 40041ac:	d8c02b15 	stw	r3,172(sp)
 40041b0:	20021516 	blt	r4,zero,4004a08 <___vfprintf_internal_r+0x1f1c>
 40041b4:	dcc03817 	ldw	r19,224(sp)
 40041b8:	d8002a05 	stb	zero,168(sp)
 40041bc:	00801984 	movi	r2,102
 40041c0:	8881f926 	beq	r17,r2,40049a8 <___vfprintf_internal_r+0x1ebc>
 40041c4:	00801184 	movi	r2,70
 40041c8:	88821c26 	beq	r17,r2,4004a3c <___vfprintf_internal_r+0x1f50>
 40041cc:	00801144 	movi	r2,69
 40041d0:	b081ef26 	beq	r22,r2,4004990 <___vfprintf_internal_r+0x1ea4>
 40041d4:	d8c02917 	ldw	r3,164(sp)
 40041d8:	d8802104 	addi	r2,sp,132
 40041dc:	d8800315 	stw	r2,12(sp)
 40041e0:	d9403617 	ldw	r5,216(sp)
 40041e4:	d8802504 	addi	r2,sp,148
 40041e8:	d9002c17 	ldw	r4,176(sp)
 40041ec:	d8800215 	stw	r2,8(sp)
 40041f0:	d8802604 	addi	r2,sp,152
 40041f4:	d8c00015 	stw	r3,0(sp)
 40041f8:	d8800115 	stw	r2,4(sp)
 40041fc:	01c00084 	movi	r7,2
 4004200:	980d883a 	mov	r6,r19
 4004204:	d8c03c15 	stw	r3,240(sp)
 4004208:	da003d15 	stw	r8,244(sp)
 400420c:	40051100 	call	4005110 <_dtoa_r>
 4004210:	1021883a 	mov	r16,r2
 4004214:	008019c4 	movi	r2,103
 4004218:	d8c03c17 	ldw	r3,240(sp)
 400421c:	da003d17 	ldw	r8,244(sp)
 4004220:	88817126 	beq	r17,r2,40047e8 <___vfprintf_internal_r+0x1cfc>
 4004224:	008011c4 	movi	r2,71
 4004228:	88829226 	beq	r17,r2,4004c74 <___vfprintf_internal_r+0x2188>
 400422c:	80f9883a 	add	fp,r16,r3
 4004230:	d9003617 	ldw	r4,216(sp)
 4004234:	000d883a 	mov	r6,zero
 4004238:	000f883a 	mov	r7,zero
 400423c:	980b883a 	mov	r5,r19
 4004240:	da003d15 	stw	r8,244(sp)
 4004244:	400f1f80 	call	400f1f8 <__eqdf2>
 4004248:	da003d17 	ldw	r8,244(sp)
 400424c:	10018d26 	beq	r2,zero,4004884 <___vfprintf_internal_r+0x1d98>
 4004250:	d8802117 	ldw	r2,132(sp)
 4004254:	1700062e 	bgeu	r2,fp,4004270 <___vfprintf_internal_r+0x1784>
 4004258:	01000c04 	movi	r4,48
 400425c:	10c00044 	addi	r3,r2,1
 4004260:	d8c02115 	stw	r3,132(sp)
 4004264:	11000005 	stb	r4,0(r2)
 4004268:	d8802117 	ldw	r2,132(sp)
 400426c:	173ffb36 	bltu	r2,fp,400425c <__ram_exceptions_end+0xfbfe4014>
 4004270:	1405c83a 	sub	r2,r2,r16
 4004274:	d8803315 	stw	r2,204(sp)
 4004278:	008011c4 	movi	r2,71
 400427c:	b0817626 	beq	r22,r2,4004858 <___vfprintf_internal_r+0x1d6c>
 4004280:	00801944 	movi	r2,101
 4004284:	1442810e 	bge	r2,r17,4004c8c <___vfprintf_internal_r+0x21a0>
 4004288:	d8c02617 	ldw	r3,152(sp)
 400428c:	00801984 	movi	r2,102
 4004290:	d8c03215 	stw	r3,200(sp)
 4004294:	8881fe26 	beq	r17,r2,4004a90 <___vfprintf_internal_r+0x1fa4>
 4004298:	d8c03217 	ldw	r3,200(sp)
 400429c:	d9003317 	ldw	r4,204(sp)
 40042a0:	1901dd16 	blt	r3,r4,4004a18 <___vfprintf_internal_r+0x1f2c>
 40042a4:	9480004c 	andi	r18,r18,1
 40042a8:	90022b1e 	bne	r18,zero,4004b58 <___vfprintf_internal_r+0x206c>
 40042ac:	1805883a 	mov	r2,r3
 40042b0:	18028016 	blt	r3,zero,4004cb4 <___vfprintf_internal_r+0x21c8>
 40042b4:	d8c03217 	ldw	r3,200(sp)
 40042b8:	044019c4 	movi	r17,103
 40042bc:	d8c02e15 	stw	r3,184(sp)
 40042c0:	df002a07 	ldb	fp,168(sp)
 40042c4:	e001531e 	bne	fp,zero,4004814 <___vfprintf_internal_r+0x1d28>
 40042c8:	df002783 	ldbu	fp,158(sp)
 40042cc:	d8802a15 	stw	r2,168(sp)
 40042d0:	dc802b17 	ldw	r18,172(sp)
 40042d4:	d8002915 	stw	zero,164(sp)
 40042d8:	003bd106 	br	4003220 <__ram_exceptions_end+0xfbfe2fd8>
 40042dc:	d8802d17 	ldw	r2,180(sp)
 40042e0:	d8c02d17 	ldw	r3,180(sp)
 40042e4:	d9002d17 	ldw	r4,180(sp)
 40042e8:	10800017 	ldw	r2,0(r2)
 40042ec:	18c00117 	ldw	r3,4(r3)
 40042f0:	21000204 	addi	r4,r4,8
 40042f4:	d8803615 	stw	r2,216(sp)
 40042f8:	d8c03815 	stw	r3,224(sp)
 40042fc:	d9002d15 	stw	r4,180(sp)
 4004300:	003b7506 	br	40030d8 <__ram_exceptions_end+0xfbfe2e90>
 4004304:	ac400007 	ldb	r17,0(r21)
 4004308:	003a5906 	br	4002c70 <__ram_exceptions_end+0xfbfe2a28>
 400430c:	9080100c 	andi	r2,r18,64
 4004310:	1000a826 	beq	r2,zero,40045b4 <___vfprintf_internal_r+0x1ac8>
 4004314:	d9002d17 	ldw	r4,180(sp)
 4004318:	002d883a 	mov	r22,zero
 400431c:	24c0000b 	ldhu	r19,0(r4)
 4004320:	21000104 	addi	r4,r4,4
 4004324:	d9002d15 	stw	r4,180(sp)
 4004328:	003ccb06 	br	4003658 <__ram_exceptions_end+0xfbfe3410>
 400432c:	d8c02d17 	ldw	r3,180(sp)
 4004330:	d9002917 	ldw	r4,164(sp)
 4004334:	002d883a 	mov	r22,zero
 4004338:	18800104 	addi	r2,r3,4
 400433c:	1cc00017 	ldw	r19,0(r3)
 4004340:	203ebb0e 	bge	r4,zero,4003e30 <__ram_exceptions_end+0xfbfe3be8>
 4004344:	003ef106 	br	4003f0c <__ram_exceptions_end+0xfbfe3cc4>
 4004348:	9080040c 	andi	r2,r18,16
 400434c:	1000921e 	bne	r2,zero,4004598 <___vfprintf_internal_r+0x1aac>
 4004350:	9480100c 	andi	r18,r18,64
 4004354:	90013926 	beq	r18,zero,400483c <___vfprintf_internal_r+0x1d50>
 4004358:	d9002d17 	ldw	r4,180(sp)
 400435c:	d9402f17 	ldw	r5,188(sp)
 4004360:	20800017 	ldw	r2,0(r4)
 4004364:	21000104 	addi	r4,r4,4
 4004368:	d9002d15 	stw	r4,180(sp)
 400436c:	1140000d 	sth	r5,0(r2)
 4004370:	003a1606 	br	4002bcc <__ram_exceptions_end+0xfbfe2984>
 4004374:	9080100c 	andi	r2,r18,64
 4004378:	10008026 	beq	r2,zero,400457c <___vfprintf_internal_r+0x1a90>
 400437c:	d8c02d17 	ldw	r3,180(sp)
 4004380:	1cc0000f 	ldh	r19,0(r3)
 4004384:	18c00104 	addi	r3,r3,4
 4004388:	d8c02d15 	stw	r3,180(sp)
 400438c:	982dd7fa 	srai	r22,r19,31
 4004390:	b005883a 	mov	r2,r22
 4004394:	003b1f06 	br	4003014 <__ram_exceptions_end+0xfbfe2dcc>
 4004398:	9080100c 	andi	r2,r18,64
 400439c:	d8002785 	stb	zero,158(sp)
 40043a0:	10008a1e 	bne	r2,zero,40045cc <___vfprintf_internal_r+0x1ae0>
 40043a4:	d9402d17 	ldw	r5,180(sp)
 40043a8:	d8c02917 	ldw	r3,164(sp)
 40043ac:	002d883a 	mov	r22,zero
 40043b0:	28800104 	addi	r2,r5,4
 40043b4:	2cc00017 	ldw	r19,0(r5)
 40043b8:	183e4b0e 	bge	r3,zero,4003ce8 <__ram_exceptions_end+0xfbfe3aa0>
 40043bc:	9d86b03a 	or	r3,r19,r22
 40043c0:	d8802d15 	stw	r2,180(sp)
 40043c4:	183e4c1e 	bne	r3,zero,4003cf8 <__ram_exceptions_end+0xfbfe3ab0>
 40043c8:	0039883a 	mov	fp,zero
 40043cc:	0005883a 	mov	r2,zero
 40043d0:	003d4006 	br	40038d4 <__ram_exceptions_end+0xfbfe368c>
 40043d4:	01410074 	movhi	r5,1025
 40043d8:	294de284 	addi	r5,r5,14218
 40043dc:	d9402b15 	stw	r5,172(sp)
 40043e0:	d9402b17 	ldw	r5,172(sp)
 40043e4:	1c47883a 	add	r3,r3,r17
 40043e8:	10800044 	addi	r2,r2,1
 40043ec:	41400015 	stw	r5,0(r8)
 40043f0:	44400115 	stw	r17,4(r8)
 40043f4:	d8c02015 	stw	r3,128(sp)
 40043f8:	d8801f15 	stw	r2,124(sp)
 40043fc:	010001c4 	movi	r4,7
 4004400:	20bec816 	blt	r4,r2,4003f24 <__ram_exceptions_end+0xfbfe3cdc>
 4004404:	42000204 	addi	r8,r8,8
 4004408:	003ecd06 	br	4003f40 <__ram_exceptions_end+0xfbfe3cf8>
 400440c:	d9002917 	ldw	r4,164(sp)
 4004410:	d8002785 	stb	zero,158(sp)
 4004414:	203d2d16 	blt	r4,zero,40038cc <__ram_exceptions_end+0xfbfe3684>
 4004418:	00bfdfc4 	movi	r2,-129
 400441c:	90a4703a 	and	r18,r18,r2
 4004420:	003a9106 	br	4002e68 <__ram_exceptions_end+0xfbfe2c20>
 4004424:	01010074 	movhi	r4,1025
 4004428:	210de284 	addi	r4,r4,14218
 400442c:	d9002b15 	stw	r4,172(sp)
 4004430:	003c0c06 	br	4003464 <__ram_exceptions_end+0xfbfe321c>
 4004434:	d9002c17 	ldw	r4,176(sp)
 4004438:	d9801e04 	addi	r6,sp,120
 400443c:	b80b883a 	mov	r5,r23
 4004440:	400b5800 	call	400b580 <__sprint_r>
 4004444:	103aab1e 	bne	r2,zero,4002ef4 <__ram_exceptions_end+0xfbfe2cac>
 4004448:	d8c02017 	ldw	r3,128(sp)
 400444c:	da000404 	addi	r8,sp,16
 4004450:	003d4106 	br	4003958 <__ram_exceptions_end+0xfbfe3710>
 4004454:	d8801f17 	ldw	r2,124(sp)
 4004458:	01410074 	movhi	r5,1025
 400445c:	01000044 	movi	r4,1
 4004460:	18c00044 	addi	r3,r3,1
 4004464:	10800044 	addi	r2,r2,1
 4004468:	294dda04 	addi	r5,r5,14184
 400446c:	41000115 	stw	r4,4(r8)
 4004470:	41400015 	stw	r5,0(r8)
 4004474:	d8c02015 	stw	r3,128(sp)
 4004478:	d8801f15 	stw	r2,124(sp)
 400447c:	010001c4 	movi	r4,7
 4004480:	20805c16 	blt	r4,r2,40045f4 <___vfprintf_internal_r+0x1b08>
 4004484:	42000204 	addi	r8,r8,8
 4004488:	8800041e 	bne	r17,zero,400449c <___vfprintf_internal_r+0x19b0>
 400448c:	d8803317 	ldw	r2,204(sp)
 4004490:	1000021e 	bne	r2,zero,400449c <___vfprintf_internal_r+0x19b0>
 4004494:	9080004c 	andi	r2,r18,1
 4004498:	103c0926 	beq	r2,zero,40034c0 <__ram_exceptions_end+0xfbfe3278>
 400449c:	d9003717 	ldw	r4,220(sp)
 40044a0:	d8801f17 	ldw	r2,124(sp)
 40044a4:	d9403417 	ldw	r5,208(sp)
 40044a8:	20c7883a 	add	r3,r4,r3
 40044ac:	10800044 	addi	r2,r2,1
 40044b0:	41000115 	stw	r4,4(r8)
 40044b4:	41400015 	stw	r5,0(r8)
 40044b8:	d8c02015 	stw	r3,128(sp)
 40044bc:	d8801f15 	stw	r2,124(sp)
 40044c0:	010001c4 	movi	r4,7
 40044c4:	20812116 	blt	r4,r2,400494c <___vfprintf_internal_r+0x1e60>
 40044c8:	42000204 	addi	r8,r8,8
 40044cc:	0463c83a 	sub	r17,zero,r17
 40044d0:	0440730e 	bge	zero,r17,40046a0 <___vfprintf_internal_r+0x1bb4>
 40044d4:	05800404 	movi	r22,16
 40044d8:	b440860e 	bge	r22,r17,40046f4 <___vfprintf_internal_r+0x1c08>
 40044dc:	01410074 	movhi	r5,1025
 40044e0:	294de284 	addi	r5,r5,14218
 40044e4:	d9402b15 	stw	r5,172(sp)
 40044e8:	070001c4 	movi	fp,7
 40044ec:	dcc02c17 	ldw	r19,176(sp)
 40044f0:	00000306 	br	4004500 <___vfprintf_internal_r+0x1a14>
 40044f4:	42000204 	addi	r8,r8,8
 40044f8:	8c7ffc04 	addi	r17,r17,-16
 40044fc:	b440800e 	bge	r22,r17,4004700 <___vfprintf_internal_r+0x1c14>
 4004500:	18c00404 	addi	r3,r3,16
 4004504:	10800044 	addi	r2,r2,1
 4004508:	45000015 	stw	r20,0(r8)
 400450c:	45800115 	stw	r22,4(r8)
 4004510:	d8c02015 	stw	r3,128(sp)
 4004514:	d8801f15 	stw	r2,124(sp)
 4004518:	e0bff60e 	bge	fp,r2,40044f4 <__ram_exceptions_end+0xfbfe42ac>
 400451c:	d9801e04 	addi	r6,sp,120
 4004520:	b80b883a 	mov	r5,r23
 4004524:	9809883a 	mov	r4,r19
 4004528:	400b5800 	call	400b580 <__sprint_r>
 400452c:	103a711e 	bne	r2,zero,4002ef4 <__ram_exceptions_end+0xfbfe2cac>
 4004530:	d8c02017 	ldw	r3,128(sp)
 4004534:	d8801f17 	ldw	r2,124(sp)
 4004538:	da000404 	addi	r8,sp,16
 400453c:	003fee06 	br	40044f8 <__ram_exceptions_end+0xfbfe42b0>
 4004540:	00bfffc4 	movi	r2,-1
 4004544:	003a6f06 	br	4002f04 <__ram_exceptions_end+0xfbfe2cbc>
 4004548:	008011c4 	movi	r2,71
 400454c:	1440b816 	blt	r2,r17,4004830 <___vfprintf_internal_r+0x1d44>
 4004550:	04010074 	movhi	r16,1025
 4004554:	840dcc04 	addi	r16,r16,14128
 4004558:	00c000c4 	movi	r3,3
 400455c:	00bfdfc4 	movi	r2,-129
 4004560:	d8c02a15 	stw	r3,168(sp)
 4004564:	90a4703a 	and	r18,r18,r2
 4004568:	df002783 	ldbu	fp,158(sp)
 400456c:	d8c02e15 	stw	r3,184(sp)
 4004570:	d8002915 	stw	zero,164(sp)
 4004574:	d8003215 	stw	zero,200(sp)
 4004578:	003b2906 	br	4003220 <__ram_exceptions_end+0xfbfe2fd8>
 400457c:	d9002d17 	ldw	r4,180(sp)
 4004580:	24c00017 	ldw	r19,0(r4)
 4004584:	21000104 	addi	r4,r4,4
 4004588:	d9002d15 	stw	r4,180(sp)
 400458c:	982dd7fa 	srai	r22,r19,31
 4004590:	b005883a 	mov	r2,r22
 4004594:	003a9f06 	br	4003014 <__ram_exceptions_end+0xfbfe2dcc>
 4004598:	d9402d17 	ldw	r5,180(sp)
 400459c:	d8c02f17 	ldw	r3,188(sp)
 40045a0:	28800017 	ldw	r2,0(r5)
 40045a4:	29400104 	addi	r5,r5,4
 40045a8:	d9402d15 	stw	r5,180(sp)
 40045ac:	10c00015 	stw	r3,0(r2)
 40045b0:	00398606 	br	4002bcc <__ram_exceptions_end+0xfbfe2984>
 40045b4:	d9402d17 	ldw	r5,180(sp)
 40045b8:	002d883a 	mov	r22,zero
 40045bc:	2cc00017 	ldw	r19,0(r5)
 40045c0:	29400104 	addi	r5,r5,4
 40045c4:	d9402d15 	stw	r5,180(sp)
 40045c8:	003c2306 	br	4003658 <__ram_exceptions_end+0xfbfe3410>
 40045cc:	d8c02d17 	ldw	r3,180(sp)
 40045d0:	d9002917 	ldw	r4,164(sp)
 40045d4:	002d883a 	mov	r22,zero
 40045d8:	18800104 	addi	r2,r3,4
 40045dc:	1cc0000b 	ldhu	r19,0(r3)
 40045e0:	203dc10e 	bge	r4,zero,4003ce8 <__ram_exceptions_end+0xfbfe3aa0>
 40045e4:	003f7506 	br	40043bc <__ram_exceptions_end+0xfbfe4174>
 40045e8:	04010074 	movhi	r16,1025
 40045ec:	840dca04 	addi	r16,r16,14120
 40045f0:	003acc06 	br	4003124 <__ram_exceptions_end+0xfbfe2edc>
 40045f4:	d9002c17 	ldw	r4,176(sp)
 40045f8:	d9801e04 	addi	r6,sp,120
 40045fc:	b80b883a 	mov	r5,r23
 4004600:	400b5800 	call	400b580 <__sprint_r>
 4004604:	103a3b1e 	bne	r2,zero,4002ef4 <__ram_exceptions_end+0xfbfe2cac>
 4004608:	dc402617 	ldw	r17,152(sp)
 400460c:	d8c02017 	ldw	r3,128(sp)
 4004610:	da000404 	addi	r8,sp,16
 4004614:	003f9c06 	br	4004488 <__ram_exceptions_end+0xfbfe4240>
 4004618:	ac400043 	ldbu	r17,1(r21)
 400461c:	94800814 	ori	r18,r18,32
 4004620:	ad400044 	addi	r21,r21,1
 4004624:	8c403fcc 	andi	r17,r17,255
 4004628:	8c40201c 	xori	r17,r17,128
 400462c:	8c7fe004 	addi	r17,r17,-128
 4004630:	00398f06 	br	4002c70 <__ram_exceptions_end+0xfbfe2a28>
 4004634:	d8c02d15 	stw	r3,180(sp)
 4004638:	0039883a 	mov	fp,zero
 400463c:	003e3506 	br	4003f14 <__ram_exceptions_end+0xfbfe3ccc>
 4004640:	d9002c17 	ldw	r4,176(sp)
 4004644:	d9801e04 	addi	r6,sp,120
 4004648:	b80b883a 	mov	r5,r23
 400464c:	400b5800 	call	400b580 <__sprint_r>
 4004650:	103a281e 	bne	r2,zero,4002ef4 <__ram_exceptions_end+0xfbfe2cac>
 4004654:	d8c02017 	ldw	r3,128(sp)
 4004658:	da000404 	addi	r8,sp,16
 400465c:	003cd006 	br	40039a0 <__ram_exceptions_end+0xfbfe3758>
 4004660:	8009883a 	mov	r4,r16
 4004664:	da003d15 	stw	r8,244(sp)
 4004668:	400087c0 	call	400087c <strlen>
 400466c:	d8802e15 	stw	r2,184(sp)
 4004670:	da003d17 	ldw	r8,244(sp)
 4004674:	103c340e 	bge	r2,zero,4003748 <__ram_exceptions_end+0xfbfe3500>
 4004678:	0005883a 	mov	r2,zero
 400467c:	003c3206 	br	4003748 <__ram_exceptions_end+0xfbfe3500>
 4004680:	d9002c17 	ldw	r4,176(sp)
 4004684:	d9801e04 	addi	r6,sp,120
 4004688:	b80b883a 	mov	r5,r23
 400468c:	400b5800 	call	400b580 <__sprint_r>
 4004690:	103a181e 	bne	r2,zero,4002ef4 <__ram_exceptions_end+0xfbfe2cac>
 4004694:	d8c02017 	ldw	r3,128(sp)
 4004698:	d8801f17 	ldw	r2,124(sp)
 400469c:	da000404 	addi	r8,sp,16
 40046a0:	d9403317 	ldw	r5,204(sp)
 40046a4:	10800044 	addi	r2,r2,1
 40046a8:	44000015 	stw	r16,0(r8)
 40046ac:	28c7883a 	add	r3,r5,r3
 40046b0:	003b7d06 	br	40034a8 <__ram_exceptions_end+0xfbfe3260>
 40046b4:	01010074 	movhi	r4,1025
 40046b8:	210de684 	addi	r4,r4,14234
 40046bc:	d9003515 	stw	r4,212(sp)
 40046c0:	003b1406 	br	4003314 <__ram_exceptions_end+0xfbfe30cc>
 40046c4:	013fffc4 	movi	r4,-1
 40046c8:	003a3506 	br	4002fa0 <__ram_exceptions_end+0xfbfe2d58>
 40046cc:	0023883a 	mov	r17,zero
 40046d0:	003d9d06 	br	4003d48 <__ram_exceptions_end+0xfbfe3b00>
 40046d4:	d9002c17 	ldw	r4,176(sp)
 40046d8:	d9801e04 	addi	r6,sp,120
 40046dc:	b80b883a 	mov	r5,r23
 40046e0:	400b5800 	call	400b580 <__sprint_r>
 40046e4:	103a031e 	bne	r2,zero,4002ef4 <__ram_exceptions_end+0xfbfe2cac>
 40046e8:	d8c02017 	ldw	r3,128(sp)
 40046ec:	da000404 	addi	r8,sp,16
 40046f0:	003d9406 	br	4003d44 <__ram_exceptions_end+0xfbfe3afc>
 40046f4:	01010074 	movhi	r4,1025
 40046f8:	210de284 	addi	r4,r4,14218
 40046fc:	d9002b15 	stw	r4,172(sp)
 4004700:	d9002b17 	ldw	r4,172(sp)
 4004704:	1c47883a 	add	r3,r3,r17
 4004708:	10800044 	addi	r2,r2,1
 400470c:	41000015 	stw	r4,0(r8)
 4004710:	44400115 	stw	r17,4(r8)
 4004714:	d8c02015 	stw	r3,128(sp)
 4004718:	d8801f15 	stw	r2,124(sp)
 400471c:	010001c4 	movi	r4,7
 4004720:	20bfd716 	blt	r4,r2,4004680 <__ram_exceptions_end+0xfbfe4438>
 4004724:	42000204 	addi	r8,r8,8
 4004728:	003fdd06 	br	40046a0 <__ram_exceptions_end+0xfbfe4458>
 400472c:	d9002c17 	ldw	r4,176(sp)
 4004730:	d9801e04 	addi	r6,sp,120
 4004734:	b80b883a 	mov	r5,r23
 4004738:	400b5800 	call	400b580 <__sprint_r>
 400473c:	1039ed1e 	bne	r2,zero,4002ef4 <__ram_exceptions_end+0xfbfe2cac>
 4004740:	d8802617 	ldw	r2,152(sp)
 4004744:	d8c02017 	ldw	r3,128(sp)
 4004748:	da000404 	addi	r8,sp,16
 400474c:	003e1006 	br	4003f90 <__ram_exceptions_end+0xfbfe3d48>
 4004750:	00800044 	movi	r2,1
 4004754:	10803fcc 	andi	r2,r2,255
 4004758:	00c00044 	movi	r3,1
 400475c:	10fa3526 	beq	r2,r3,4003034 <__ram_exceptions_end+0xfbfe2dec>
 4004760:	00c00084 	movi	r3,2
 4004764:	10fbcb26 	beq	r2,r3,4003694 <__ram_exceptions_end+0xfbfe344c>
 4004768:	003a8f06 	br	40031a8 <__ram_exceptions_end+0xfbfe2f60>
 400476c:	01010074 	movhi	r4,1025
 4004770:	210de684 	addi	r4,r4,14234
 4004774:	d9003515 	stw	r4,212(sp)
 4004778:	003b7606 	br	4003554 <__ram_exceptions_end+0xfbfe330c>
 400477c:	d8802917 	ldw	r2,164(sp)
 4004780:	00c00184 	movi	r3,6
 4004784:	1880012e 	bgeu	r3,r2,400478c <___vfprintf_internal_r+0x1ca0>
 4004788:	1805883a 	mov	r2,r3
 400478c:	d8802e15 	stw	r2,184(sp)
 4004790:	1000ef16 	blt	r2,zero,4004b50 <___vfprintf_internal_r+0x2064>
 4004794:	04010074 	movhi	r16,1025
 4004798:	d8802a15 	stw	r2,168(sp)
 400479c:	dcc02d15 	stw	r19,180(sp)
 40047a0:	d8002915 	stw	zero,164(sp)
 40047a4:	d8003215 	stw	zero,200(sp)
 40047a8:	840dd804 	addi	r16,r16,14176
 40047ac:	0039883a 	mov	fp,zero
 40047b0:	003aa206 	br	400323c <__ram_exceptions_end+0xfbfe2ff4>
 40047b4:	0021883a 	mov	r16,zero
 40047b8:	003e0706 	br	4003fd8 <__ram_exceptions_end+0xfbfe3d90>
 40047bc:	d9002c17 	ldw	r4,176(sp)
 40047c0:	d9801e04 	addi	r6,sp,120
 40047c4:	b80b883a 	mov	r5,r23
 40047c8:	400b5800 	call	400b580 <__sprint_r>
 40047cc:	1039c91e 	bne	r2,zero,4002ef4 <__ram_exceptions_end+0xfbfe2cac>
 40047d0:	d8802617 	ldw	r2,152(sp)
 40047d4:	d9403317 	ldw	r5,204(sp)
 40047d8:	d8c02017 	ldw	r3,128(sp)
 40047dc:	da000404 	addi	r8,sp,16
 40047e0:	2885c83a 	sub	r2,r5,r2
 40047e4:	003dfb06 	br	4003fd4 <__ram_exceptions_end+0xfbfe3d8c>
 40047e8:	9080004c 	andi	r2,r18,1
 40047ec:	103e8f1e 	bne	r2,zero,400422c <__ram_exceptions_end+0xfbfe3fe4>
 40047f0:	d8802117 	ldw	r2,132(sp)
 40047f4:	003e9e06 	br	4004270 <__ram_exceptions_end+0xfbfe4028>
 40047f8:	1025883a 	mov	r18,r2
 40047fc:	0039883a 	mov	fp,zero
 4004800:	00800084 	movi	r2,2
 4004804:	003fd306 	br	4004754 <__ram_exceptions_end+0xfbfe450c>
 4004808:	07000b44 	movi	fp,45
 400480c:	df002785 	stb	fp,158(sp)
 4004810:	003a4006 	br	4003114 <__ram_exceptions_end+0xfbfe2ecc>
 4004814:	00c00b44 	movi	r3,45
 4004818:	d8c02785 	stb	r3,158(sp)
 400481c:	d8802a15 	stw	r2,168(sp)
 4004820:	dc802b17 	ldw	r18,172(sp)
 4004824:	d8002915 	stw	zero,164(sp)
 4004828:	07000b44 	movi	fp,45
 400482c:	003a8006 	br	4003230 <__ram_exceptions_end+0xfbfe2fe8>
 4004830:	04010074 	movhi	r16,1025
 4004834:	840dcd04 	addi	r16,r16,14132
 4004838:	003f4706 	br	4004558 <__ram_exceptions_end+0xfbfe4310>
 400483c:	d8c02d17 	ldw	r3,180(sp)
 4004840:	d9002f17 	ldw	r4,188(sp)
 4004844:	18800017 	ldw	r2,0(r3)
 4004848:	18c00104 	addi	r3,r3,4
 400484c:	d8c02d15 	stw	r3,180(sp)
 4004850:	11000015 	stw	r4,0(r2)
 4004854:	0038dd06 	br	4002bcc <__ram_exceptions_end+0xfbfe2984>
 4004858:	dd802617 	ldw	r22,152(sp)
 400485c:	00bfff44 	movi	r2,-3
 4004860:	b0801c16 	blt	r22,r2,40048d4 <___vfprintf_internal_r+0x1de8>
 4004864:	d9402917 	ldw	r5,164(sp)
 4004868:	2d801a16 	blt	r5,r22,40048d4 <___vfprintf_internal_r+0x1de8>
 400486c:	dd803215 	stw	r22,200(sp)
 4004870:	003e8906 	br	4004298 <__ram_exceptions_end+0xfbfe4050>
 4004874:	01010074 	movhi	r4,1025
 4004878:	210de284 	addi	r4,r4,14218
 400487c:	d9002b15 	stw	r4,172(sp)
 4004880:	003c9106 	br	4003ac8 <__ram_exceptions_end+0xfbfe3880>
 4004884:	e005883a 	mov	r2,fp
 4004888:	003e7906 	br	4004270 <__ram_exceptions_end+0xfbfe4028>
 400488c:	d9402917 	ldw	r5,164(sp)
 4004890:	df002783 	ldbu	fp,158(sp)
 4004894:	dcc02d15 	stw	r19,180(sp)
 4004898:	d9402a15 	stw	r5,168(sp)
 400489c:	d9402e15 	stw	r5,184(sp)
 40048a0:	d8002915 	stw	zero,164(sp)
 40048a4:	d8003215 	stw	zero,200(sp)
 40048a8:	003a5d06 	br	4003220 <__ram_exceptions_end+0xfbfe2fd8>
 40048ac:	9080004c 	andi	r2,r18,1
 40048b0:	0039883a 	mov	fp,zero
 40048b4:	10000426 	beq	r2,zero,40048c8 <___vfprintf_internal_r+0x1ddc>
 40048b8:	00800c04 	movi	r2,48
 40048bc:	dc001dc4 	addi	r16,sp,119
 40048c0:	d8801dc5 	stb	r2,119(sp)
 40048c4:	003b8006 	br	40036c8 <__ram_exceptions_end+0xfbfe3480>
 40048c8:	d8002e15 	stw	zero,184(sp)
 40048cc:	dc001e04 	addi	r16,sp,120
 40048d0:	003a4d06 	br	4003208 <__ram_exceptions_end+0xfbfe2fc0>
 40048d4:	8c7fff84 	addi	r17,r17,-2
 40048d8:	b5bfffc4 	addi	r22,r22,-1
 40048dc:	dd802615 	stw	r22,152(sp)
 40048e0:	dc4022c5 	stb	r17,139(sp)
 40048e4:	b000bf16 	blt	r22,zero,4004be4 <___vfprintf_internal_r+0x20f8>
 40048e8:	00800ac4 	movi	r2,43
 40048ec:	d8802305 	stb	r2,140(sp)
 40048f0:	00800244 	movi	r2,9
 40048f4:	15807016 	blt	r2,r22,4004ab8 <___vfprintf_internal_r+0x1fcc>
 40048f8:	00800c04 	movi	r2,48
 40048fc:	b5800c04 	addi	r22,r22,48
 4004900:	d8802345 	stb	r2,141(sp)
 4004904:	dd802385 	stb	r22,142(sp)
 4004908:	d88023c4 	addi	r2,sp,143
 400490c:	df0022c4 	addi	fp,sp,139
 4004910:	d8c03317 	ldw	r3,204(sp)
 4004914:	1739c83a 	sub	fp,r2,fp
 4004918:	d9003317 	ldw	r4,204(sp)
 400491c:	e0c7883a 	add	r3,fp,r3
 4004920:	df003a15 	stw	fp,232(sp)
 4004924:	d8c02e15 	stw	r3,184(sp)
 4004928:	00800044 	movi	r2,1
 400492c:	1100b30e 	bge	r2,r4,4004bfc <___vfprintf_internal_r+0x2110>
 4004930:	d8c02e17 	ldw	r3,184(sp)
 4004934:	18c00044 	addi	r3,r3,1
 4004938:	d8c02e15 	stw	r3,184(sp)
 400493c:	1805883a 	mov	r2,r3
 4004940:	1800ac16 	blt	r3,zero,4004bf4 <___vfprintf_internal_r+0x2108>
 4004944:	d8003215 	stw	zero,200(sp)
 4004948:	003e5d06 	br	40042c0 <__ram_exceptions_end+0xfbfe4078>
 400494c:	d9002c17 	ldw	r4,176(sp)
 4004950:	d9801e04 	addi	r6,sp,120
 4004954:	b80b883a 	mov	r5,r23
 4004958:	400b5800 	call	400b580 <__sprint_r>
 400495c:	1039651e 	bne	r2,zero,4002ef4 <__ram_exceptions_end+0xfbfe2cac>
 4004960:	dc402617 	ldw	r17,152(sp)
 4004964:	d8c02017 	ldw	r3,128(sp)
 4004968:	d8801f17 	ldw	r2,124(sp)
 400496c:	da000404 	addi	r8,sp,16
 4004970:	003ed606 	br	40044cc <__ram_exceptions_end+0xfbfe4284>
 4004974:	582b883a 	mov	r21,r11
 4004978:	d8002915 	stw	zero,164(sp)
 400497c:	0038bd06 	br	4002c74 <__ram_exceptions_end+0xfbfe2a2c>
 4004980:	d8802917 	ldw	r2,164(sp)
 4004984:	103e071e 	bne	r2,zero,40041a4 <__ram_exceptions_end+0xfbfe3f5c>
 4004988:	dc002915 	stw	r16,164(sp)
 400498c:	003e0506 	br	40041a4 <__ram_exceptions_end+0xfbfe3f5c>
 4004990:	d9002917 	ldw	r4,164(sp)
 4004994:	20c00044 	addi	r3,r4,1
 4004998:	003e0f06 	br	40041d8 <__ram_exceptions_end+0xfbfe3f90>
 400499c:	01400184 	movi	r5,6
 40049a0:	d9402915 	stw	r5,164(sp)
 40049a4:	003dff06 	br	40041a4 <__ram_exceptions_end+0xfbfe3f5c>
 40049a8:	d8802104 	addi	r2,sp,132
 40049ac:	d8800315 	stw	r2,12(sp)
 40049b0:	d8802504 	addi	r2,sp,148
 40049b4:	d8800215 	stw	r2,8(sp)
 40049b8:	d8802604 	addi	r2,sp,152
 40049bc:	d8800115 	stw	r2,4(sp)
 40049c0:	d8802917 	ldw	r2,164(sp)
 40049c4:	d9403617 	ldw	r5,216(sp)
 40049c8:	d9002c17 	ldw	r4,176(sp)
 40049cc:	d8800015 	stw	r2,0(sp)
 40049d0:	01c000c4 	movi	r7,3
 40049d4:	980d883a 	mov	r6,r19
 40049d8:	da003d15 	stw	r8,244(sp)
 40049dc:	40051100 	call	4005110 <_dtoa_r>
 40049e0:	d8c02917 	ldw	r3,164(sp)
 40049e4:	da003d17 	ldw	r8,244(sp)
 40049e8:	1021883a 	mov	r16,r2
 40049ec:	10f9883a 	add	fp,r2,r3
 40049f0:	81000007 	ldb	r4,0(r16)
 40049f4:	00800c04 	movi	r2,48
 40049f8:	20805e26 	beq	r4,r2,4004b74 <___vfprintf_internal_r+0x2088>
 40049fc:	d8c02617 	ldw	r3,152(sp)
 4004a00:	e0f9883a 	add	fp,fp,r3
 4004a04:	003e0a06 	br	4004230 <__ram_exceptions_end+0xfbfe3fe8>
 4004a08:	00c00b44 	movi	r3,45
 4004a0c:	24e0003c 	xorhi	r19,r4,32768
 4004a10:	d8c02a05 	stb	r3,168(sp)
 4004a14:	003de906 	br	40041bc <__ram_exceptions_end+0xfbfe3f74>
 4004a18:	d8c03217 	ldw	r3,200(sp)
 4004a1c:	00c07a0e 	bge	zero,r3,4004c08 <___vfprintf_internal_r+0x211c>
 4004a20:	00800044 	movi	r2,1
 4004a24:	d9003317 	ldw	r4,204(sp)
 4004a28:	1105883a 	add	r2,r2,r4
 4004a2c:	d8802e15 	stw	r2,184(sp)
 4004a30:	10004e16 	blt	r2,zero,4004b6c <___vfprintf_internal_r+0x2080>
 4004a34:	044019c4 	movi	r17,103
 4004a38:	003e2106 	br	40042c0 <__ram_exceptions_end+0xfbfe4078>
 4004a3c:	d9002917 	ldw	r4,164(sp)
 4004a40:	d8802104 	addi	r2,sp,132
 4004a44:	d8800315 	stw	r2,12(sp)
 4004a48:	d9000015 	stw	r4,0(sp)
 4004a4c:	d8802504 	addi	r2,sp,148
 4004a50:	d9403617 	ldw	r5,216(sp)
 4004a54:	d9002c17 	ldw	r4,176(sp)
 4004a58:	d8800215 	stw	r2,8(sp)
 4004a5c:	d8802604 	addi	r2,sp,152
 4004a60:	d8800115 	stw	r2,4(sp)
 4004a64:	01c000c4 	movi	r7,3
 4004a68:	980d883a 	mov	r6,r19
 4004a6c:	da003d15 	stw	r8,244(sp)
 4004a70:	40051100 	call	4005110 <_dtoa_r>
 4004a74:	d8c02917 	ldw	r3,164(sp)
 4004a78:	da003d17 	ldw	r8,244(sp)
 4004a7c:	1021883a 	mov	r16,r2
 4004a80:	00801184 	movi	r2,70
 4004a84:	80f9883a 	add	fp,r16,r3
 4004a88:	88bfd926 	beq	r17,r2,40049f0 <__ram_exceptions_end+0xfbfe47a8>
 4004a8c:	003de806 	br	4004230 <__ram_exceptions_end+0xfbfe3fe8>
 4004a90:	d9002917 	ldw	r4,164(sp)
 4004a94:	00c04d0e 	bge	zero,r3,4004bcc <___vfprintf_internal_r+0x20e0>
 4004a98:	2000441e 	bne	r4,zero,4004bac <___vfprintf_internal_r+0x20c0>
 4004a9c:	9480004c 	andi	r18,r18,1
 4004aa0:	9000421e 	bne	r18,zero,4004bac <___vfprintf_internal_r+0x20c0>
 4004aa4:	1805883a 	mov	r2,r3
 4004aa8:	18007016 	blt	r3,zero,4004c6c <___vfprintf_internal_r+0x2180>
 4004aac:	d8c03217 	ldw	r3,200(sp)
 4004ab0:	d8c02e15 	stw	r3,184(sp)
 4004ab4:	003e0206 	br	40042c0 <__ram_exceptions_end+0xfbfe4078>
 4004ab8:	df0022c4 	addi	fp,sp,139
 4004abc:	dc002915 	stw	r16,164(sp)
 4004ac0:	4027883a 	mov	r19,r8
 4004ac4:	e021883a 	mov	r16,fp
 4004ac8:	b009883a 	mov	r4,r22
 4004acc:	01400284 	movi	r5,10
 4004ad0:	400df340 	call	400df34 <__modsi3>
 4004ad4:	10800c04 	addi	r2,r2,48
 4004ad8:	843fffc4 	addi	r16,r16,-1
 4004adc:	b009883a 	mov	r4,r22
 4004ae0:	01400284 	movi	r5,10
 4004ae4:	80800005 	stb	r2,0(r16)
 4004ae8:	400deb00 	call	400deb0 <__divsi3>
 4004aec:	102d883a 	mov	r22,r2
 4004af0:	00800244 	movi	r2,9
 4004af4:	15bff416 	blt	r2,r22,4004ac8 <__ram_exceptions_end+0xfbfe4880>
 4004af8:	9811883a 	mov	r8,r19
 4004afc:	b0800c04 	addi	r2,r22,48
 4004b00:	8027883a 	mov	r19,r16
 4004b04:	997fffc4 	addi	r5,r19,-1
 4004b08:	98bfffc5 	stb	r2,-1(r19)
 4004b0c:	dc002917 	ldw	r16,164(sp)
 4004b10:	2f006a2e 	bgeu	r5,fp,4004cbc <___vfprintf_internal_r+0x21d0>
 4004b14:	d9c02384 	addi	r7,sp,142
 4004b18:	3ccfc83a 	sub	r7,r7,r19
 4004b1c:	d9002344 	addi	r4,sp,141
 4004b20:	e1cf883a 	add	r7,fp,r7
 4004b24:	00000106 	br	4004b2c <___vfprintf_internal_r+0x2040>
 4004b28:	28800003 	ldbu	r2,0(r5)
 4004b2c:	20800005 	stb	r2,0(r4)
 4004b30:	21000044 	addi	r4,r4,1
 4004b34:	29400044 	addi	r5,r5,1
 4004b38:	393ffb1e 	bne	r7,r4,4004b28 <__ram_exceptions_end+0xfbfe48e0>
 4004b3c:	d8802304 	addi	r2,sp,140
 4004b40:	14c5c83a 	sub	r2,r2,r19
 4004b44:	d8c02344 	addi	r3,sp,141
 4004b48:	1885883a 	add	r2,r3,r2
 4004b4c:	003f7006 	br	4004910 <__ram_exceptions_end+0xfbfe46c8>
 4004b50:	0005883a 	mov	r2,zero
 4004b54:	003f0f06 	br	4004794 <__ram_exceptions_end+0xfbfe454c>
 4004b58:	d8c03217 	ldw	r3,200(sp)
 4004b5c:	18c00044 	addi	r3,r3,1
 4004b60:	d8c02e15 	stw	r3,184(sp)
 4004b64:	1805883a 	mov	r2,r3
 4004b68:	183fb20e 	bge	r3,zero,4004a34 <__ram_exceptions_end+0xfbfe47ec>
 4004b6c:	0005883a 	mov	r2,zero
 4004b70:	003fb006 	br	4004a34 <__ram_exceptions_end+0xfbfe47ec>
 4004b74:	d9003617 	ldw	r4,216(sp)
 4004b78:	000d883a 	mov	r6,zero
 4004b7c:	000f883a 	mov	r7,zero
 4004b80:	980b883a 	mov	r5,r19
 4004b84:	d8c03c15 	stw	r3,240(sp)
 4004b88:	da003d15 	stw	r8,244(sp)
 4004b8c:	400f1f80 	call	400f1f8 <__eqdf2>
 4004b90:	d8c03c17 	ldw	r3,240(sp)
 4004b94:	da003d17 	ldw	r8,244(sp)
 4004b98:	103f9826 	beq	r2,zero,40049fc <__ram_exceptions_end+0xfbfe47b4>
 4004b9c:	00800044 	movi	r2,1
 4004ba0:	10c7c83a 	sub	r3,r2,r3
 4004ba4:	d8c02615 	stw	r3,152(sp)
 4004ba8:	003f9506 	br	4004a00 <__ram_exceptions_end+0xfbfe47b8>
 4004bac:	d9002917 	ldw	r4,164(sp)
 4004bb0:	d8c03217 	ldw	r3,200(sp)
 4004bb4:	20800044 	addi	r2,r4,1
 4004bb8:	1885883a 	add	r2,r3,r2
 4004bbc:	d8802e15 	stw	r2,184(sp)
 4004bc0:	103dbf0e 	bge	r2,zero,40042c0 <__ram_exceptions_end+0xfbfe4078>
 4004bc4:	0005883a 	mov	r2,zero
 4004bc8:	003dbd06 	br	40042c0 <__ram_exceptions_end+0xfbfe4078>
 4004bcc:	2000211e 	bne	r4,zero,4004c54 <___vfprintf_internal_r+0x2168>
 4004bd0:	9480004c 	andi	r18,r18,1
 4004bd4:	90001f1e 	bne	r18,zero,4004c54 <___vfprintf_internal_r+0x2168>
 4004bd8:	00800044 	movi	r2,1
 4004bdc:	d8802e15 	stw	r2,184(sp)
 4004be0:	003db706 	br	40042c0 <__ram_exceptions_end+0xfbfe4078>
 4004be4:	00800b44 	movi	r2,45
 4004be8:	05adc83a 	sub	r22,zero,r22
 4004bec:	d8802305 	stb	r2,140(sp)
 4004bf0:	003f3f06 	br	40048f0 <__ram_exceptions_end+0xfbfe46a8>
 4004bf4:	0005883a 	mov	r2,zero
 4004bf8:	003f5206 	br	4004944 <__ram_exceptions_end+0xfbfe46fc>
 4004bfc:	90a4703a 	and	r18,r18,r2
 4004c00:	903f4e26 	beq	r18,zero,400493c <__ram_exceptions_end+0xfbfe46f4>
 4004c04:	003f4a06 	br	4004930 <__ram_exceptions_end+0xfbfe46e8>
 4004c08:	00800084 	movi	r2,2
 4004c0c:	10c5c83a 	sub	r2,r2,r3
 4004c10:	003f8406 	br	4004a24 <__ram_exceptions_end+0xfbfe47dc>
 4004c14:	d8802d17 	ldw	r2,180(sp)
 4004c18:	d9002d17 	ldw	r4,180(sp)
 4004c1c:	ac400043 	ldbu	r17,1(r21)
 4004c20:	10800017 	ldw	r2,0(r2)
 4004c24:	582b883a 	mov	r21,r11
 4004c28:	d8802915 	stw	r2,164(sp)
 4004c2c:	20800104 	addi	r2,r4,4
 4004c30:	d9002917 	ldw	r4,164(sp)
 4004c34:	d8802d15 	stw	r2,180(sp)
 4004c38:	203e7a0e 	bge	r4,zero,4004624 <__ram_exceptions_end+0xfbfe43dc>
 4004c3c:	8c403fcc 	andi	r17,r17,255
 4004c40:	00bfffc4 	movi	r2,-1
 4004c44:	8c40201c 	xori	r17,r17,128
 4004c48:	d8802915 	stw	r2,164(sp)
 4004c4c:	8c7fe004 	addi	r17,r17,-128
 4004c50:	00380706 	br	4002c70 <__ram_exceptions_end+0xfbfe2a28>
 4004c54:	d8c02917 	ldw	r3,164(sp)
 4004c58:	18c00084 	addi	r3,r3,2
 4004c5c:	d8c02e15 	stw	r3,184(sp)
 4004c60:	1805883a 	mov	r2,r3
 4004c64:	183d960e 	bge	r3,zero,40042c0 <__ram_exceptions_end+0xfbfe4078>
 4004c68:	003fd606 	br	4004bc4 <__ram_exceptions_end+0xfbfe497c>
 4004c6c:	0005883a 	mov	r2,zero
 4004c70:	003f8e06 	br	4004aac <__ram_exceptions_end+0xfbfe4864>
 4004c74:	9080004c 	andi	r2,r18,1
 4004c78:	103f811e 	bne	r2,zero,4004a80 <__ram_exceptions_end+0xfbfe4838>
 4004c7c:	d8802117 	ldw	r2,132(sp)
 4004c80:	1405c83a 	sub	r2,r2,r16
 4004c84:	d8803315 	stw	r2,204(sp)
 4004c88:	b47ef326 	beq	r22,r17,4004858 <__ram_exceptions_end+0xfbfe4610>
 4004c8c:	dd802617 	ldw	r22,152(sp)
 4004c90:	003f1106 	br	40048d8 <__ram_exceptions_end+0xfbfe4690>
 4004c94:	d9c02785 	stb	r7,158(sp)
 4004c98:	00390406 	br	40030ac <__ram_exceptions_end+0xfbfe2e64>
 4004c9c:	d9c02785 	stb	r7,158(sp)
 4004ca0:	0038d306 	br	4002ff0 <__ram_exceptions_end+0xfbfe2da8>
 4004ca4:	d9c02785 	stb	r7,158(sp)
 4004ca8:	003a6106 	br	4003630 <__ram_exceptions_end+0xfbfe33e8>
 4004cac:	d9c02785 	stb	r7,158(sp)
 4004cb0:	003af806 	br	4003894 <__ram_exceptions_end+0xfbfe364c>
 4004cb4:	0005883a 	mov	r2,zero
 4004cb8:	003d7e06 	br	40042b4 <__ram_exceptions_end+0xfbfe406c>
 4004cbc:	d8802344 	addi	r2,sp,141
 4004cc0:	003f1306 	br	4004910 <__ram_exceptions_end+0xfbfe46c8>
 4004cc4:	d9c02785 	stb	r7,158(sp)
 4004cc8:	00392306 	br	4003158 <__ram_exceptions_end+0xfbfe2f10>
 4004ccc:	d9c02785 	stb	r7,158(sp)
 4004cd0:	003aa906 	br	4003778 <__ram_exceptions_end+0xfbfe3530>
 4004cd4:	d9c02785 	stb	r7,158(sp)
 4004cd8:	003a3d06 	br	40035d0 <__ram_exceptions_end+0xfbfe3388>
 4004cdc:	d9c02785 	stb	r7,158(sp)
 4004ce0:	003aca06 	br	400380c <__ram_exceptions_end+0xfbfe35c4>

04004ce4 <__vfprintf_internal>:
 4004ce4:	00810074 	movhi	r2,1025
 4004ce8:	10962004 	addi	r2,r2,22656
 4004cec:	300f883a 	mov	r7,r6
 4004cf0:	280d883a 	mov	r6,r5
 4004cf4:	200b883a 	mov	r5,r4
 4004cf8:	11000017 	ldw	r4,0(r2)
 4004cfc:	4002aec1 	jmpi	4002aec <___vfprintf_internal_r>

04004d00 <__sbprintf>:
 4004d00:	2880030b 	ldhu	r2,12(r5)
 4004d04:	2ac01917 	ldw	r11,100(r5)
 4004d08:	2a80038b 	ldhu	r10,14(r5)
 4004d0c:	2a400717 	ldw	r9,28(r5)
 4004d10:	2a000917 	ldw	r8,36(r5)
 4004d14:	defee204 	addi	sp,sp,-1144
 4004d18:	00c10004 	movi	r3,1024
 4004d1c:	dc011a15 	stw	r16,1128(sp)
 4004d20:	10bfff4c 	andi	r2,r2,65533
 4004d24:	2821883a 	mov	r16,r5
 4004d28:	d8cb883a 	add	r5,sp,r3
 4004d2c:	dc811c15 	stw	r18,1136(sp)
 4004d30:	dc411b15 	stw	r17,1132(sp)
 4004d34:	dfc11d15 	stw	ra,1140(sp)
 4004d38:	2025883a 	mov	r18,r4
 4004d3c:	d881030d 	sth	r2,1036(sp)
 4004d40:	dac11915 	stw	r11,1124(sp)
 4004d44:	da81038d 	sth	r10,1038(sp)
 4004d48:	da410715 	stw	r9,1052(sp)
 4004d4c:	da010915 	stw	r8,1060(sp)
 4004d50:	dec10015 	stw	sp,1024(sp)
 4004d54:	dec10415 	stw	sp,1040(sp)
 4004d58:	d8c10215 	stw	r3,1032(sp)
 4004d5c:	d8c10515 	stw	r3,1044(sp)
 4004d60:	d8010615 	stw	zero,1048(sp)
 4004d64:	4002aec0 	call	4002aec <___vfprintf_internal_r>
 4004d68:	1023883a 	mov	r17,r2
 4004d6c:	10000416 	blt	r2,zero,4004d80 <__sbprintf+0x80>
 4004d70:	d9410004 	addi	r5,sp,1024
 4004d74:	9009883a 	mov	r4,r18
 4004d78:	40069b40 	call	40069b4 <_fflush_r>
 4004d7c:	10000d1e 	bne	r2,zero,4004db4 <__sbprintf+0xb4>
 4004d80:	d881030b 	ldhu	r2,1036(sp)
 4004d84:	1080100c 	andi	r2,r2,64
 4004d88:	10000326 	beq	r2,zero,4004d98 <__sbprintf+0x98>
 4004d8c:	8080030b 	ldhu	r2,12(r16)
 4004d90:	10801014 	ori	r2,r2,64
 4004d94:	8080030d 	sth	r2,12(r16)
 4004d98:	8805883a 	mov	r2,r17
 4004d9c:	dfc11d17 	ldw	ra,1140(sp)
 4004da0:	dc811c17 	ldw	r18,1136(sp)
 4004da4:	dc411b17 	ldw	r17,1132(sp)
 4004da8:	dc011a17 	ldw	r16,1128(sp)
 4004dac:	dec11e04 	addi	sp,sp,1144
 4004db0:	f800283a 	ret
 4004db4:	047fffc4 	movi	r17,-1
 4004db8:	003ff106 	br	4004d80 <__ram_exceptions_end+0xfbfe4b38>

04004dbc <__swsetup_r>:
 4004dbc:	00810074 	movhi	r2,1025
 4004dc0:	defffd04 	addi	sp,sp,-12
 4004dc4:	10962004 	addi	r2,r2,22656
 4004dc8:	dc400115 	stw	r17,4(sp)
 4004dcc:	2023883a 	mov	r17,r4
 4004dd0:	11000017 	ldw	r4,0(r2)
 4004dd4:	dc000015 	stw	r16,0(sp)
 4004dd8:	dfc00215 	stw	ra,8(sp)
 4004ddc:	2821883a 	mov	r16,r5
 4004de0:	20000226 	beq	r4,zero,4004dec <__swsetup_r+0x30>
 4004de4:	20800e17 	ldw	r2,56(r4)
 4004de8:	10003126 	beq	r2,zero,4004eb0 <__swsetup_r+0xf4>
 4004dec:	8080030b 	ldhu	r2,12(r16)
 4004df0:	10c0020c 	andi	r3,r2,8
 4004df4:	1009883a 	mov	r4,r2
 4004df8:	18000f26 	beq	r3,zero,4004e38 <__swsetup_r+0x7c>
 4004dfc:	80c00417 	ldw	r3,16(r16)
 4004e00:	18001526 	beq	r3,zero,4004e58 <__swsetup_r+0x9c>
 4004e04:	1100004c 	andi	r4,r2,1
 4004e08:	20001c1e 	bne	r4,zero,4004e7c <__swsetup_r+0xc0>
 4004e0c:	1080008c 	andi	r2,r2,2
 4004e10:	1000291e 	bne	r2,zero,4004eb8 <__swsetup_r+0xfc>
 4004e14:	80800517 	ldw	r2,20(r16)
 4004e18:	80800215 	stw	r2,8(r16)
 4004e1c:	18001c26 	beq	r3,zero,4004e90 <__swsetup_r+0xd4>
 4004e20:	0005883a 	mov	r2,zero
 4004e24:	dfc00217 	ldw	ra,8(sp)
 4004e28:	dc400117 	ldw	r17,4(sp)
 4004e2c:	dc000017 	ldw	r16,0(sp)
 4004e30:	dec00304 	addi	sp,sp,12
 4004e34:	f800283a 	ret
 4004e38:	2080040c 	andi	r2,r4,16
 4004e3c:	10002e26 	beq	r2,zero,4004ef8 <__swsetup_r+0x13c>
 4004e40:	2080010c 	andi	r2,r4,4
 4004e44:	10001e1e 	bne	r2,zero,4004ec0 <__swsetup_r+0x104>
 4004e48:	80c00417 	ldw	r3,16(r16)
 4004e4c:	20800214 	ori	r2,r4,8
 4004e50:	8080030d 	sth	r2,12(r16)
 4004e54:	183feb1e 	bne	r3,zero,4004e04 <__ram_exceptions_end+0xfbfe4bbc>
 4004e58:	1100a00c 	andi	r4,r2,640
 4004e5c:	01408004 	movi	r5,512
 4004e60:	217fe826 	beq	r4,r5,4004e04 <__ram_exceptions_end+0xfbfe4bbc>
 4004e64:	800b883a 	mov	r5,r16
 4004e68:	8809883a 	mov	r4,r17
 4004e6c:	40079340 	call	4007934 <__smakebuf_r>
 4004e70:	8080030b 	ldhu	r2,12(r16)
 4004e74:	80c00417 	ldw	r3,16(r16)
 4004e78:	003fe206 	br	4004e04 <__ram_exceptions_end+0xfbfe4bbc>
 4004e7c:	80800517 	ldw	r2,20(r16)
 4004e80:	80000215 	stw	zero,8(r16)
 4004e84:	0085c83a 	sub	r2,zero,r2
 4004e88:	80800615 	stw	r2,24(r16)
 4004e8c:	183fe41e 	bne	r3,zero,4004e20 <__ram_exceptions_end+0xfbfe4bd8>
 4004e90:	80c0030b 	ldhu	r3,12(r16)
 4004e94:	0005883a 	mov	r2,zero
 4004e98:	1900200c 	andi	r4,r3,128
 4004e9c:	203fe126 	beq	r4,zero,4004e24 <__ram_exceptions_end+0xfbfe4bdc>
 4004ea0:	18c01014 	ori	r3,r3,64
 4004ea4:	80c0030d 	sth	r3,12(r16)
 4004ea8:	00bfffc4 	movi	r2,-1
