
trivia.elf:     file format elf32-littlenios2
trivia.elf
architecture: nios2:r1, flags 0x00000112:
EXEC_P, HAS_SYMS, D_PAGED
start address 0x04000244

Program Header:
    LOAD off    0x00001000 vaddr 0x04000000 paddr 0x04000000 align 2**12
         filesz 0x00000020 memsz 0x00000020 flags r-x
    LOAD off    0x00001020 vaddr 0x04000020 paddr 0x04000020 align 2**12
         filesz 0x00010ed0 memsz 0x00010ed0 flags r-x
    LOAD off    0x00011ef0 vaddr 0x04010ef0 paddr 0x04012aa0 align 2**12
         filesz 0x00001bb0 memsz 0x00001bb0 flags rw-
    LOAD off    0x00014650 vaddr 0x04014650 paddr 0x04014650 align 2**12
         filesz 0x00000000 memsz 0x00000184 flags rw-

Sections:
Idx Name          Size      VMA       LMA       File off  Algn
  0 .entry        00000020  04000000  04000000  00001000  2**5
                  CONTENTS, ALLOC, LOAD, READONLY, CODE
  1 .exceptions   00000224  04000020  04000020  00001020  2**2
                  CONTENTS, ALLOC, LOAD, READONLY, CODE
  2 .text         0001086c  04000244  04000244  00001244  2**2
                  CONTENTS, ALLOC, LOAD, READONLY, CODE
  3 .rodata       00000440  04010ab0  04010ab0  00011ab0  2**2
                  CONTENTS, ALLOC, LOAD, READONLY, DATA
  4 .rwdata       00001bb0  04010ef0  04012aa0  00011ef0  2**2
                  CONTENTS, ALLOC, LOAD, DATA, SMALL_DATA
  5 .bss          00000184  04014650  04014650  00014650  2**2
                  ALLOC, SMALL_DATA
  6 .SDRAM        00000000  040147d4  040147d4  00013aa0  2**0
                  CONTENTS
  7 .SRAM         00000000  08020000  08020000  00013aa0  2**0
                  CONTENTS
  8 .comment      00000023  00000000  00000000  00013aa0  2**0
                  CONTENTS, READONLY
  9 .debug_aranges 00000ef8  00000000  00000000  00013ac8  2**3
                  CONTENTS, READONLY, DEBUGGING
 10 .debug_info   00024931  00000000  00000000  000149c0  2**0
                  CONTENTS, READONLY, DEBUGGING
 11 .debug_abbrev 0000939d  00000000  00000000  000392f1  2**0
                  CONTENTS, READONLY, DEBUGGING
 12 .debug_line   0000bb84  00000000  00000000  0004268e  2**0
                  CONTENTS, READONLY, DEBUGGING
 13 .debug_frame  0000243c  00000000  00000000  0004e214  2**2
                  CONTENTS, READONLY, DEBUGGING
 14 .debug_str    00003c56  00000000  00000000  00050650  2**0
                  CONTENTS, READONLY, DEBUGGING
 15 .debug_loc    00017868  00000000  00000000  000542a6  2**0
                  CONTENTS, READONLY, DEBUGGING
 16 .debug_alt_sim_info 00000030  00000000  00000000  0006bb10  2**2
                  CONTENTS, READONLY, DEBUGGING
 17 .debug_ranges 000018c0  00000000  00000000  0006bb40  2**3
                  CONTENTS, READONLY, DEBUGGING
 18 .thread_model 00000003  00000000  00000000  00070a42  2**0
                  CONTENTS, READONLY
 19 .cpu          00000006  00000000  00000000  00070a45  2**0
                  CONTENTS, READONLY
 20 .qsys         00000001  00000000  00000000  00070a4b  2**0
                  CONTENTS, READONLY
 21 .simulation_enabled 00000001  00000000  00000000  00070a4c  2**0
                  CONTENTS, READONLY
 22 .sysid_hash   00000004  00000000  00000000  00070a4d  2**0
                  CONTENTS, READONLY
 23 .sysid_base   00000004  00000000  00000000  00070a51  2**0
                  CONTENTS, READONLY
 24 .sysid_time   00000004  00000000  00000000  00070a55  2**0
                  CONTENTS, READONLY
 25 .stderr_dev   00000004  00000000  00000000  00070a59  2**0
                  CONTENTS, READONLY
 26 .stdin_dev    00000004  00000000  00000000  00070a5d  2**0
                  CONTENTS, READONLY
 27 .stdout_dev   00000004  00000000  00000000  00070a61  2**0
                  CONTENTS, READONLY
 28 .sopc_system_name 00000004  00000000  00000000  00070a65  2**0
                  CONTENTS, READONLY
 29 .quartus_project_dir 0000003b  00000000  00000000  00070a69  2**0
                  CONTENTS, READONLY
 30 .jdi          00004829  00000000  00000000  00070aa4  2**0
                  CONTENTS, READONLY
 31 .sopcinfo     000adf9a  00000000  00000000  000752cd  2**0
                  CONTENTS, READONLY
SYMBOL TABLE:
04000000 l    d  .entry	00000000 .entry
04000020 l    d  .exceptions	00000000 .exceptions
04000244 l    d  .text	00000000 .text
04010ab0 l    d  .rodata	00000000 .rodata
04010ef0 l    d  .rwdata	00000000 .rwdata
04014650 l    d  .bss	00000000 .bss
040147d4 l    d  .SDRAM	00000000 .SDRAM
08020000 l    d  .SRAM	00000000 .SRAM
00000000 l    d  .comment	00000000 .comment
00000000 l    d  .debug_aranges	00000000 .debug_aranges
00000000 l    d  .debug_info	00000000 .debug_info
00000000 l    d  .debug_abbrev	00000000 .debug_abbrev
00000000 l    d  .debug_line	00000000 .debug_line
00000000 l    d  .debug_frame	00000000 .debug_frame
00000000 l    d  .debug_str	00000000 .debug_str
00000000 l    d  .debug_loc	00000000 .debug_loc
00000000 l    d  .debug_alt_sim_info	00000000 .debug_alt_sim_info
00000000 l    d  .debug_ranges	00000000 .debug_ranges
00000000 l    df *ABS*	00000000 ../trivia_bsp//obj/HAL/src/crt0.o
0400028c l       .text	00000000 alt_after_alt_main
00000000 l    df *ABS*	00000000 alt_irq_handler.c
00000000 l    df *ABS*	00000000 alt_instruction_exception_entry.c
00000000 l    df *ABS*	00000000 hello_world.c
04000420 l     F .text	000000a4 timer_isr
00000000 l    df *ABS*	00000000 printf.c
00000000 l    df *ABS*	00000000 puts.c
00000000 l    df *ABS*	00000000 strlen.c
00000000 l    df *ABS*	00000000 vfprintf.c
04010bce l     O .rodata	00000010 zeroes.4404
040029a4 l     F .text	000000bc __sbprintf
04010bde l     O .rodata	00000010 blanks.4403
00000000 l    df *ABS*	00000000 wsetup.c
00000000 l    df *ABS*	00000000 dtoa.c
04002bb4 l     F .text	00000200 quorem
00000000 l    df *ABS*	00000000 fflush.c
00000000 l    df *ABS*	00000000 findfp.c
040046e4 l     F .text	00000008 __fp_unlock
040046f8 l     F .text	0000019c __sinit.part.1
04004894 l     F .text	00000008 __fp_lock
00000000 l    df *ABS*	00000000 mallocr.c
00000000 l    df *ABS*	00000000 fvwrite.c
00000000 l    df *ABS*	00000000 fwalk.c
00000000 l    df *ABS*	00000000 impure.c
04010f18 l     O .rwdata	00000424 impure_data
00000000 l    df *ABS*	00000000 locale.c
0401135c l     O .rwdata	00000020 lc_ctype_charset
0401133c l     O .rwdata	00000020 lc_message_charset
0401137c l     O .rwdata	00000038 lconv
00000000 l    df *ABS*	00000000 makebuf.c
00000000 l    df *ABS*	00000000 mallocr.c
00000000 l    df *ABS*	00000000 memchr.c
00000000 l    df *ABS*	00000000 memcpy.c
00000000 l    df *ABS*	00000000 memmove.c
00000000 l    df *ABS*	00000000 memset.c
00000000 l    df *ABS*	00000000 mprec.c
04010c10 l     O .rodata	0000000c p05.2768
00000000 l    df *ABS*	00000000 mallocr.c
00000000 l    df *ABS*	00000000 s_fpclassify.c
00000000 l    df *ABS*	00000000 sbrkr.c
00000000 l    df *ABS*	00000000 stdio.c
00000000 l    df *ABS*	00000000 strcmp.c
00000000 l    df *ABS*	00000000 vfprintf.c
04007c90 l     F .text	000000fc __sprint_r.part.0
04010d44 l     O .rodata	00000010 blanks.4348
04010d34 l     O .rodata	00000010 zeroes.4349
0400921c l     F .text	000000bc __sbprintf
00000000 l    df *ABS*	00000000 writer.c
00000000 l    df *ABS*	00000000 closer.c
00000000 l    df *ABS*	00000000 mallocr.c
00000000 l    df *ABS*	00000000 fclose.c
00000000 l    df *ABS*	00000000 fputwc.c
00000000 l    df *ABS*	00000000 fstatr.c
00000000 l    df *ABS*	00000000 int_errno.c
00000000 l    df *ABS*	00000000 isattyr.c
00000000 l    df *ABS*	00000000 lseekr.c
00000000 l    df *ABS*	00000000 readr.c
00000000 l    df *ABS*	00000000 wbuf.c
00000000 l    df *ABS*	00000000 wcrtomb.c
00000000 l    df *ABS*	00000000 wctomb_r.c
00000000 l    df *ABS*	00000000 libgcc2.c
00000000 l    df *ABS*	00000000 libgcc2.c
00000000 l    df *ABS*	00000000 lib2-divmod.c
00000000 l    df *ABS*	00000000 adddf3.c
00000000 l    df *ABS*	00000000 divdf3.c
00000000 l    df *ABS*	00000000 eqdf2.c
00000000 l    df *ABS*	00000000 gedf2.c
00000000 l    df *ABS*	00000000 ledf2.c
00000000 l    df *ABS*	00000000 muldf3.c
00000000 l    df *ABS*	00000000 subdf3.c
00000000 l    df *ABS*	00000000 fixdfsi.c
00000000 l    df *ABS*	00000000 floatsidf.c
00000000 l    df *ABS*	00000000 floatunsidf.c
00000000 l    df *ABS*	00000000 libgcc2.c
00000000 l    df *ABS*	00000000 libgcc2.c
00000000 l    df *ABS*	00000000 alt_close.c
0400ced8 l     F .text	0000003c alt_get_errno
00000000 l    df *ABS*	00000000 alt_dev.c
0400cfe4 l     F .text	0000002c alt_dev_null_write
00000000 l    df *ABS*	00000000 alt_errno.c
00000000 l    df *ABS*	00000000 alt_fstat.c
0400d010 l     F .text	0000003c alt_get_errno
00000000 l    df *ABS*	00000000 alt_iic.c
00000000 l    df *ABS*	00000000 alt_iic_isr_register.c
00000000 l    df *ABS*	00000000 alt_irq_vars.c
00000000 l    df *ABS*	00000000 alt_isatty.c
0400d39c l     F .text	0000003c alt_get_errno
00000000 l    df *ABS*	00000000 alt_load.c
0400d47c l     F .text	00000068 alt_load_section
00000000 l    df *ABS*	00000000 alt_lseek.c
0400d568 l     F .text	0000003c alt_get_errno
00000000 l    df *ABS*	00000000 alt_main.c
00000000 l    df *ABS*	00000000 alt_malloc_lock.c
00000000 l    df *ABS*	00000000 alt_read.c
0400d73c l     F .text	0000003c alt_get_errno
00000000 l    df *ABS*	00000000 alt_release_fd.c
00000000 l    df *ABS*	00000000 alt_sbrk.c
04012a94 l     O .rwdata	00000004 heap_end
00000000 l    df *ABS*	00000000 alt_write.c
0400d988 l     F .text	0000003c alt_get_errno
00000000 l    df *ABS*	00000000 alt_sys_init.c
0400dabc l     F .text	00000034 alt_dev_reg
04011964 l     O .rwdata	00001060 JTAG
040129c4 l     O .rwdata	00000048 Subsystem_0_VGA_Char_Buffer
04012a0c l     O .rwdata	00000054 Subsystem_0_VGA_Pixel_DMA
00000000 l    df *ABS*	00000000 altera_avalon_jtag_uart_fd.c
00000000 l    df *ABS*	00000000 altera_avalon_jtag_uart_init.c
0400e044 l     F .text	0000020c altera_avalon_jtag_uart_irq
0400e250 l     F .text	000000a0 altera_avalon_jtag_uart_timeout
00000000 l    df *ABS*	00000000 altera_avalon_jtag_uart_ioctl.c
00000000 l    df *ABS*	00000000 altera_avalon_jtag_uart_read.c
00000000 l    df *ABS*	00000000 altera_avalon_jtag_uart_write.c
00000000 l    df *ABS*	00000000 altera_avalon_timer_sc.c
0400e888 l     F .text	00000078 alt_avalon_timer_sc_irq
00000000 l    df *ABS*	00000000 altera_up_avalon_video_character_buffer_with_dma.c
00000000 l    df *ABS*	00000000 altera_up_avalon_video_pixel_buffer_dma.c
00000000 l    df *ABS*	00000000 alt_alarm_start.c
00000000 l    df *ABS*	00000000 alt_dcache_flush_all.c
00000000 l    df *ABS*	00000000 alt_dev_llist_insert.c
0400fc84 l     F .text	0000003c alt_get_errno
00000000 l    df *ABS*	00000000 alt_do_ctors.c
00000000 l    df *ABS*	00000000 alt_do_dtors.c
00000000 l    df *ABS*	00000000 alt_find_dev.c
00000000 l    df *ABS*	00000000 alt_icache_flush_all.c
00000000 l    df *ABS*	00000000 alt_io_redirect.c
0400ff84 l     F .text	000000c4 alt_open_fd
00000000 l    df *ABS*	00000000 alt_open.c
040100c4 l     F .text	0000003c alt_get_errno
04010100 l     F .text	000000c4 alt_file_locked
00000000 l    df *ABS*	00000000 alt_tick.c
00000000 l    df *ABS*	00000000 altera_nios2_gen2_irq.c
00000000 l    df *ABS*	00000000 alt_find_file.c
00000000 l    df *ABS*	00000000 alt_get_fd.c
00000000 l    df *ABS*	00000000 alt_icache_flush.c
00000000 l    df *ABS*	00000000 atexit.c
00000000 l    df *ABS*	00000000 exit.c
00000000 l    df *ABS*	00000000 memcmp.c
00000000 l    df *ABS*	00000000 __atexit.c
00000000 l    df *ABS*	00000000 __call_atexit.c
00000000 l    df *ABS*	00000000 alt_exit.c
0401468c g     O .bss	00000004 alt_instruction_exception_handler
040072d4 g     F .text	00000074 _mprec_log10
040073c0 g     F .text	0000008c __any_on
040097b8 g     F .text	00000054 _isatty_r
04010c1c g     O .rodata	00000028 __mprec_tinytens
0400d678 g     F .text	0000007c alt_main
0400f530 g     F .text	0000024c alt_up_pixel_buffer_dma_draw_vline
04000624 g     F .text	000000c0 _puts_r
040146d4 g     O .bss	00000100 alt_irq
0400980c g     F .text	00000060 _lseek_r
04012aa0 g       *ABS*	00000000 __flash_rwdata_start
040146c0 g     O .bss	00000014 questions
0400ba04 g     F .text	00000088 .hidden __eqdf2
040147d4 g       *ABS*	00000000 __alt_heap_start
040005e8 g     F .text	0000003c printf
04009a24 g     F .text	0000009c _wcrtomb_r
04007b50 g     F .text	0000005c __sseek
04004a34 g     F .text	00000010 __sinit
0400eb04 g     F .text	000000fc alt_up_char_buffer_string
040098cc g     F .text	00000140 __swbuf_r
040054fc g     F .text	0000007c _setlocale_r
0400489c g     F .text	00000068 __sfmoreglue
0400d718 g     F .text	00000024 __malloc_unlock
0400ea38 g     F .text	000000cc alt_up_char_buffer_draw
040061cc g     F .text	0000015c memmove
04004a1c g     F .text	00000018 _cleanup
04006450 g     F .text	000000a8 _Balloc
0400ec98 g     F .text	00000194 alt_up_pixel_buffer_dma_draw
0400ba8c g     F .text	000000dc .hidden __gtdf2
040104bc g     F .text	00000024 altera_nios2_gen2_irq_init
0400ec5c g     F .text	0000003c alt_up_pixel_buffer_dma_open_dev
04000000 g     F .entry	0000001c __reset
04000020 g       *ABS*	00000000 __flash_exceptions_start
0400975c g     F .text	0000005c _fstat_r
04014678 g     O .bss	00000004 errno
04007acc g     F .text	00000008 __seofread
040004c4 g     F .text	000000b0 init_hex_display
04014658 g     O .bss	00000004 char_buffer
04014684 g     O .bss	00000004 alt_argv
0401aa60 g       *ABS*	00000000 _gp
0400ee2c g     F .text	0000005c alt_up_pixel_buffer_dma_change_back_buffer_address
040117e4 g     O .rwdata	00000180 alt_fd_list
04000574 g     F .text	00000044 init_char_buffer
0400fe24 g     F .text	00000090 alt_find_dev
04006084 g     F .text	00000148 memcpy
0400ec00 g     F .text	0000005c alt_up_char_buffer_clear
040046ec g     F .text	0000000c _cleanup_r
0400ccf0 g     F .text	000000dc .hidden __floatsidf
04010048 g     F .text	0000007c alt_io_redirect
0400bb68 g     F .text	000000f4 .hidden __ltdf2
04010ab0 g       *ABS*	00000000 __DTOR_END__
040006e4 g     F .text	00000014 puts
0400fee8 g     F .text	0000009c alt_exception_cause_generated_bad_addr
040079b0 g     F .text	00000074 __fpclassifyd
04007230 g     F .text	000000a4 __ratio
04009200 g     F .text	0000001c __vfiprintf_internal
0400eee8 g     F .text	00000034 alt_up_pixel_buffer_dma_check_swap_buffers_status
0400e448 g     F .text	0000021c altera_avalon_jtag_uart_read
040005b8 g     F .text	00000030 _printf_r
0400a7b4 g     F .text	00000064 .hidden __udivsi3
0400d3d8 g     F .text	000000a4 isatty
04010c6c g     O .rodata	000000c8 __mprec_tens
0400f320 g     F .text	00000210 alt_up_pixel_buffer_dma_draw_hline
04005578 g     F .text	0000000c __locale_charset
0401068c g     F .text	00000090 alt_icache_flush
04014674 g     O .bss	00000004 __malloc_top_pad
04012a68 g     O .rwdata	00000004 __mb_cur_max
040055a8 g     F .text	0000000c _localeconv_r
0400685c g     F .text	0000003c __i2b
04004eb8 g     F .text	000004bc __sfvwrite_r
04007a24 g     F .text	00000054 _sbrk_r
0400f844 g     F .text	00000084 helper_plot_pixel
0400986c g     F .text	00000060 _read_r
04012a88 g     O .rwdata	00000004 alt_max_fd
04009450 g     F .text	000000f0 _fclose_r
040046b4 g     F .text	00000030 fflush
04014670 g     O .bss	00000004 __malloc_max_sbrked_mem
0400a870 g     F .text	000008ac .hidden __adddf3
04006fd8 g     F .text	0000010c __b2d
0400ef1c g     F .text	00000128 alt_up_pixel_buffer_dma_clear_screen
0400a184 g     F .text	00000538 .hidden __umoddi3
0400d5a4 g     F .text	000000d4 lseek
04012a60 g     O .rwdata	00000004 _global_impure_ptr
0400744c g     F .text	00000564 _realloc_r
040147d4 g       *ABS*	00000000 __bss_end
0400d2ac g     F .text	000000f0 alt_iic_isr_register
0400f044 g     F .text	000002dc alt_up_pixel_buffer_dma_draw_box
040103b4 g     F .text	00000108 alt_tick
04009c0c g     F .text	00000578 .hidden __udivdi3
040096b8 g     F .text	00000024 _fputwc_r
04010c44 g     O .rodata	00000028 __mprec_bigtens
04006640 g     F .text	00000104 __s2b
0400cdcc g     F .text	000000a8 .hidden __floatunsidf
04006d18 g     F .text	00000060 __mcmp
04004a54 g     F .text	00000018 __fp_lock_all
0400d260 g     F .text	0000004c alt_ic_irq_enabled
04010318 g     F .text	0000009c alt_alarm_stop
0401467c g     O .bss	00000004 alt_irq_active
040000fc g     F .exceptions	000000d4 alt_irq_handler
040117bc g     O .rwdata	00000028 alt_dev_null
0400fc3c g     F .text	00000048 alt_dcache_flush_all
04006744 g     F .text	00000068 __hi0bits
0400f77c g     F .text	000000c8 alt_up_pixel_buffer_dma_draw_rectangle
0400cc70 g     F .text	00000080 .hidden __fixdfsi
04012aa0 g       *ABS*	00000000 __ram_rwdata_end
04012a80 g     O .rwdata	00000008 alt_dev_list
0400d9c4 g     F .text	000000f8 write
0400f8c8 g     F .text	00000248 alt_up_pixel_buffer_dma_draw_line
04010ef0 g       *ABS*	00000000 __ram_rodata_end
0400d04c g     F .text	000000b0 fstat
04000000 g       *ABS*	00000000 __alt_mem_SDRAM
0400bb68 g     F .text	000000f4 .hidden __ledf2
04006a90 g     F .text	00000140 __pow5mult
04007da4 g     F .text	0000145c ___vfiprintf_internal_r
04014668 g     O .bss	00000004 __nlocale_changed
0400a818 g     F .text	00000058 .hidden __umodsi3
040147d4 g       *ABS*	00000000 end
0400e97c g     F .text	00000080 alt_up_char_buffer_init
0400df84 g     F .text	000000c0 altera_avalon_jtag_uart_init
040001d0 g     F .exceptions	00000074 alt_instruction_exception_entry
04010ab0 g       *ABS*	00000000 __CTOR_LIST__
08000000 g       *ABS*	00000000 __alt_stack_pointer
0400e900 g     F .text	0000007c alt_avalon_timer_sc_init
0400ce74 g     F .text	00000064 .hidden __clzsi2
0400e664 g     F .text	00000224 altera_avalon_jtag_uart_write
04004a44 g     F .text	00000004 __sfp_lock_acquire
04005fa0 g     F .text	000000e4 memchr
04000790 g     F .text	000021f8 ___vfprintf_internal_r
040003cc g     F .text	00000054 init_timer_interrupt
04004ba8 g     F .text	00000310 _free_r
04005584 g     F .text	00000010 __locale_mb_cur_max
040108fc g     F .text	00000180 __call_exitprocs
04014664 g     O .bss	00000004 __mlocale_changed
04012a6c g     O .rwdata	00000004 __malloc_sbrk_base
04000244 g     F .text	0000004c _start
04014690 g     O .bss	00000004 _alt_tick_rate
04014654 g     O .bss	00000004 countdown
04006bd0 g     F .text	00000148 __lshift
04014694 g     O .bss	00000004 _alt_nticks
0400d778 g     F .text	000000fc read
0400db28 g     F .text	000002f8 alt_sys_init
040107e4 g     F .text	00000118 __register_exitproc
04006898 g     F .text	000001f8 __multiply
0400e2f0 g     F .text	00000068 altera_avalon_jtag_uart_close
04010ef0 g       *ABS*	00000000 __ram_rwdata_start
04010ab0 g       *ABS*	00000000 __ram_rodata_start
04014698 g     O .bss	00000028 __malloc_current_mallinfo
040070e4 g     F .text	0000014c __d2b
0400de20 g     F .text	00000060 altera_avalon_jtag_uart_read_fd
040105e8 g     F .text	000000a4 alt_get_fd
04009338 g     F .text	00000054 _close_r
04010768 g     F .text	0000007c memcmp
0400dee0 g     F .text	00000050 altera_avalon_jtag_uart_close_fd
040147d4 g       *ABS*	00000000 __alt_stack_base
0400df30 g     F .text	00000054 altera_avalon_jtag_uart_ioctl_fd
04002a60 g     F .text	00000154 __swsetup_r
0400b11c g     F .text	000008e8 .hidden __divdf3
04004904 g     F .text	00000118 __sfp
04007348 g     F .text	00000078 __copybits
040113b4 g     O .rwdata	00000408 __malloc_av_
04004a50 g     F .text	00000004 __sinit_lock_release
0400bc5c g     F .text	00000718 .hidden __muldf3
04007a78 g     F .text	00000054 __sread
040104e0 g     F .text	00000108 alt_find_file
0400fcc0 g     F .text	000000a4 alt_dev_llist_insert
0400d6f4 g     F .text	00000024 __malloc_lock
0400d8d8 g     F .text	000000b0 sbrk
04004658 g     F .text	0000005c _fflush_r
0400938c g     F .text	000000c4 _calloc_r
04014650 g       *ABS*	00000000 __bss_start
04006328 g     F .text	00000128 memset
04000290 g     F .text	0000013c main
04014688 g     O .bss	00000004 alt_envp
0401466c g     O .bss	00000004 __malloc_max_total_mem
0400ee88 g     F .text	00000060 alt_up_pixel_buffer_dma_swap_buffers
0400e9fc g     F .text	0000003c alt_up_char_buffer_open_dev
0400de80 g     F .text	00000060 altera_avalon_jtag_uart_write_fd
04009a0c g     F .text	00000018 __swbuf
04007bac g     F .text	00000008 __sclose
08000000 g       *ABS*	00000000 __alt_heap_limit
04009540 g     F .text	00000014 fclose
04002db4 g     F .text	00001688 _dtoa_r
04005794 g     F .text	0000080c _malloc_r
04009b80 g     F .text	00000030 __ascii_wctomb
04012a8c g     O .rwdata	00000004 alt_errno
04005374 g     F .text	000000c4 _fwalk
0400a6bc g     F .text	00000084 .hidden __divsi3
04004a84 g     F .text	00000124 _malloc_trim_r
04010ab0 g       *ABS*	00000000 __CTOR_END__
04007bb4 g     F .text	000000dc strcmp
04010ab0 g       *ABS*	00000000 __flash_rodata_start
04010ab0 g       *ABS*	00000000 __DTOR_LIST__
04014650 g     O .bss	00000004 count
0400ba04 g     F .text	00000088 .hidden __nedf2
0400daf0 g     F .text	00000038 alt_irq_init
0400d874 g     F .text	00000064 alt_release_fd
04010d54 g     O .rodata	00000100 .hidden __clz_tab
04014660 g     O .bss	00000004 _PathLocale
0401465c g     O .bss	00000004 pixel_buffer
0401071c g     F .text	00000014 atexit
040092d8 g     F .text	00000060 _write_r
040055b4 g     F .text	00000018 setlocale
04012a64 g     O .rwdata	00000004 _impure_ptr
04014680 g     O .bss	00000004 alt_argc
0400443c g     F .text	0000021c __sflush_r
0400fdc4 g     F .text	00000060 _do_dtors
040055a0 g     F .text	00000008 __locale_cjk_lang
04000020 g       .exceptions	00000000 alt_irq_entry
04006f74 g     F .text	00000064 __ulp
04004a6c g     F .text	00000018 __fp_unlock_all
04012a78 g     O .rwdata	00000008 alt_fs_list
04000020 g       *ABS*	00000000 __ram_exceptions_start
040055cc g     F .text	0000000c localeconv
0400d0fc g     F .text	00000050 alt_ic_isr_register
04012aa0 g       *ABS*	00000000 _edata
040147d4 g       *ABS*	00000000 _end
04009554 g     F .text	00000164 __fputwc
04000244 g       *ABS*	00000000 __ram_exceptions_end
0400e358 g     F .text	000000f0 altera_avalon_jtag_uart_ioctl
04010ef0 g     O .rwdata	00000028 numbers
0400d1d4 g     F .text	0000008c alt_ic_irq_disable
04007ad4 g     F .text	0000007c __swrite
04012a70 g     O .rwdata	00000004 __malloc_trim_threshold
04005594 g     F .text	0000000c __locale_msgcharset
04010730 g     F .text	00000038 exit
04005438 g     F .text	000000c4 _fwalk_reent
04006d78 g     F .text	000001fc __mdiff
0400a740 g     F .text	00000074 .hidden __modsi3
08000000 g       *ABS*	00000000 __alt_data_end
04000020 g     F .exceptions	00000000 alt_exception
04004a48 g     F .text	00000004 __sfp_lock_release
04010a7c g     F .text	00000034 _exit
0400fb10 g     F .text	0000012c alt_alarm_start
040055d8 g     F .text	000001bc __smakebuf_r
040006f8 g     F .text	00000098 strlen
040101c4 g     F .text	00000154 open
0400ba8c g     F .text	000000dc .hidden __gedf2
04012a74 g     O .rwdata	00000004 __wctomb
08020000 g       *ABS*	00000000 __alt_mem_SRAM
04007d8c g     F .text	00000018 __sprint_r
0400feb4 g     F .text	00000034 alt_icache_flush_all
04012a90 g     O .rwdata	00000004 alt_priority_mask
0400d14c g     F .text	00000088 alt_ic_irq_enable
04002988 g     F .text	0000001c __vfprintf_internal
04009bb0 g     F .text	0000005c _wctomb_r
0400c374 g     F .text	000008fc .hidden __subdf3
040067ac g     F .text	000000b0 __lo0bits
04012a98 g     O .rwdata	00000008 alt_alarm_list
0400fd64 g     F .text	00000060 _do_ctors
04009ac0 g     F .text	000000c0 wcrtomb
0400cf14 g     F .text	000000d0 close
0400d4e4 g     F .text	00000084 alt_load
040096dc g     F .text	00000080 fputwc
04004a4c g     F .text	00000004 __sinit_lock_acquire
04006520 g     F .text	00000120 __multadd
040064f8 g     F .text	00000028 _Bfree



Disassembly of section .entry:

04000000 <__reset>:
#if NIOS2_ICACHE_SIZE > 0 && defined(ALT_ALLOW_CODE_AT_RESET) && (!defined(ALT_SIM_OPTIMIZE) || defined(NIOS2_ECC_PRESENT))
    /* Assume the instruction cache size is always a power of two. */
#if NIOS2_ICACHE_SIZE > 0x8000
    movhi r2, %hi(NIOS2_ICACHE_SIZE)
#else
    movui r2, NIOS2_ICACHE_SIZE
 4000000:	00840014 	movui	r2,4096
#endif

0:
    initi r2
 4000004:	1001483a 	initi	r2
    addi r2, r2, -NIOS2_ICACHE_LINE_SIZE
 4000008:	10bff804 	addi	r2,r2,-32
    bgt r2, zero, 0b
 400000c:	00bffd16 	blt	zero,r2,4000004 <__alt_mem_SRAM+0xfbfe0004>
 * Jump to the _start entry point in the .text section if reset code
 * is allowed or if optimizing for RTL simulation.
 */
#if defined(ALT_ALLOW_CODE_AT_RESET) || defined(ALT_SIM_OPTIMIZE)
    /* Jump to the _start entry point in the .text section. */
    movhi r1, %hi(_start)
 4000010:	00410034 	movhi	at,1024
    ori r1, r1, %lo(_start)
 4000014:	08409114 	ori	at,at,580
    jmp r1
 4000018:	0800683a 	jmp	at
 400001c:	00000000 	call	0 <__alt_mem_SDRAM-0x4000000>

Disassembly of section .exceptions:

04000020 <alt_exception>:

#else /* ALT_EXCEPTION_STACK disabled */
        /* 
         * Reserve space on normal stack for registers about to be pushed.
         */
        addi  sp, sp, -76
 4000020:	deffed04 	addi	sp,sp,-76
         * documentation for details).
         *
         * Leave a gap in the stack frame at 4(sp) for the muldiv handler to
         * store zero into.
         */
        stw   ra,  0(sp)
 4000024:	dfc00015 	stw	ra,0(sp)
        stw   r1,   8(sp)
 4000028:	d8400215 	stw	at,8(sp)
        stw   r2,  12(sp)
 400002c:	d8800315 	stw	r2,12(sp)
        stw   r3,  16(sp)
 4000030:	d8c00415 	stw	r3,16(sp)
        stw   r4,  20(sp)
 4000034:	d9000515 	stw	r4,20(sp)
        stw   r5,  24(sp)
 4000038:	d9400615 	stw	r5,24(sp)
        stw   r6,  28(sp)
 400003c:	d9800715 	stw	r6,28(sp)
        stw   r7,  32(sp)
 4000040:	d9c00815 	stw	r7,32(sp)
        rdctl r5, estatus   /* Read early to avoid usage stall */
 4000044:	000b307a 	rdctl	r5,estatus
        stw   r8,  36(sp)
 4000048:	da000915 	stw	r8,36(sp)
        stw   r9,  40(sp)
 400004c:	da400a15 	stw	r9,40(sp)
        stw   r10, 44(sp)
 4000050:	da800b15 	stw	r10,44(sp)
        stw   r11, 48(sp)
 4000054:	dac00c15 	stw	r11,48(sp)
        stw   r12, 52(sp)
 4000058:	db000d15 	stw	r12,52(sp)
        stw   r13, 56(sp)
 400005c:	db400e15 	stw	r13,56(sp)
        stw   r14, 60(sp)
 4000060:	db800f15 	stw	r14,60(sp)
        stw   r15, 64(sp)
 4000064:	dbc01015 	stw	r15,64(sp)
        /*
         * ea-4 contains the address of the instruction being executed
         * when the exception occured. For interrupt exceptions, we will
         * will be re-issue the isntruction. Store it in 72(sp)
         */
        stw   r5,  68(sp)  /* estatus */
 4000068:	d9401115 	stw	r5,68(sp)
        addi  r15, ea, -4  /* instruction that caused exception */
 400006c:	ebffff04 	addi	r15,ea,-4
        stw   r15,  72(sp)
 4000070:	dbc01215 	stw	r15,72(sp)
#else
        /*
         * Test to see if the exception was a software exception or caused 
         * by an external interrupt, and vector accordingly.
         */
        rdctl r4, ipending
 4000074:	0009313a 	rdctl	r4,ipending
        andi  r2, r5, 1
 4000078:	2880004c 	andi	r2,r5,1
        beq   r2, zero, .Lnot_irq
 400007c:	10000326 	beq	r2,zero,400008c <alt_exception+0x6c>
        beq   r4, zero, .Lnot_irq
 4000080:	20000226 	beq	r4,zero,400008c <alt_exception+0x6c>
        /*
         * Now that all necessary registers have been preserved, call 
         * alt_irq_handler() to process the interrupts.
         */

        call alt_irq_handler
 4000084:	40000fc0 	call	40000fc <alt_irq_handler>

        .section .exceptions.irqreturn, "xa"

        br    .Lexception_exit
 4000088:	00000706 	br	40000a8 <alt_exception+0x88>
         * upon completion, so we write ea (address of instruction *after*
         * the one where the exception occured) into 72(sp). The actual
         * instruction that caused the exception is written in r2, which these
         * handlers will utilize.
         */
        stw ea, 72(sp) /* EA is PC+4 so will skip over instruction causing exception */
 400008c:	df401215 	stw	ea,72(sp)
.Lunknown_16bit:
        addi.n r4, r4, 2 /* Need PC+2 to skip over instruction causing exception */
        stw r4, 72(sp)

#else /* CDX is not Enabled and all instructions are 32bits */
        ldw r2, -4(ea) /* Instruction value that caused exception */
 4000090:	e8bfff17 	ldw	r2,-4(ea)
         * debugger is present) or go into an infinite loop since the
         * handling behavior is undefined; in that case we will not return here.
         */

        /* Load exception-causing address as first argument (r4) */
        addi   r4, ea, -4
 4000094:	e93fff04 	addi	r4,ea,-4

        /* Call the instruction-exception entry */
        call   alt_instruction_exception_entry
 4000098:	40001d00 	call	40001d0 <alt_instruction_exception_entry>
         * instruction
         *
         * Return code was 0: Skip. The instruction after the exception is
         * already stored in 72(sp).
         */
        bne   r2, r0, .Lexception_exit
 400009c:	1000021e 	bne	r2,zero,40000a8 <alt_exception+0x88>

        /*
         * Otherwise, modify 72(sp) to re-issue the instruction that caused the
         * exception.
         */
        addi  r15, ea, -4  /* instruction that caused exception */
 40000a0:	ebffff04 	addi	r15,ea,-4
        stw   r15,  72(sp)
 40000a4:	dbc01215 	stw	r15,72(sp)
        /* 
         * Restore the saved registers, so that all general purpose registers 
         * have been restored to their state at the time the interrupt occured.
         */

        ldw   r5,  68(sp)
 40000a8:	d9401117 	ldw	r5,68(sp)
        ldw   ea,  72(sp)  /* This becomes the PC once eret is executed */
 40000ac:	df401217 	ldw	ea,72(sp)
        ldw   ra,   0(sp)
 40000b0:	dfc00017 	ldw	ra,0(sp)

        wrctl estatus, r5
 40000b4:	2801707a 	wrctl	estatus,r5

        ldw   r1,   8(sp)
 40000b8:	d8400217 	ldw	at,8(sp)
        ldw   r2,  12(sp)
 40000bc:	d8800317 	ldw	r2,12(sp)
        ldw   r3,  16(sp)
 40000c0:	d8c00417 	ldw	r3,16(sp)
        ldw   r4,  20(sp)
 40000c4:	d9000517 	ldw	r4,20(sp)
        ldw   r5,  24(sp)
 40000c8:	d9400617 	ldw	r5,24(sp)
        ldw   r6,  28(sp)
 40000cc:	d9800717 	ldw	r6,28(sp)
        ldw   r7,  32(sp)
 40000d0:	d9c00817 	ldw	r7,32(sp)

#if defined(ALT_EXCEPTION_STACK) && defined(ALT_STACK_CHECK)
        ldw   et, %gprel(alt_exception_old_stack_limit)(gp)
#endif

        ldw   r8,  36(sp)
 40000d4:	da000917 	ldw	r8,36(sp)
        ldw   r9,  40(sp)
 40000d8:	da400a17 	ldw	r9,40(sp)
        ldw   r10, 44(sp)
 40000dc:	da800b17 	ldw	r10,44(sp)
        ldw   r11, 48(sp)
 40000e0:	dac00c17 	ldw	r11,48(sp)
        ldw   r12, 52(sp)
 40000e4:	db000d17 	ldw	r12,52(sp)
        ldw   r13, 56(sp)
 40000e8:	db400e17 	ldw	r13,56(sp)
        ldw   r14, 60(sp)
 40000ec:	db800f17 	ldw	r14,60(sp)
        ldw   r15, 64(sp)
 40000f0:	dbc01017 	ldw	r15,64(sp)
        stw   et, %gprel(alt_stack_limit_value)(gp)
        stw   zero, %gprel(alt_exception_old_stack_limit)(gp)
#endif /* ALT_STACK_CHECK */
        ldw   sp,  76(sp)
#else /* ALT_EXCEPTION_STACK disabled */
        addi  sp, sp, 76
 40000f4:	dec01304 	addi	sp,sp,76

        /*
         * Return to the interrupted instruction.
         */

        eret
 40000f8:	ef80083a 	eret

040000fc <alt_irq_handler>:
 * instruction is present if the macro ALT_CI_INTERRUPT_VECTOR defined.
 */

void alt_irq_handler (void) __attribute__ ((section (".exceptions")));
void alt_irq_handler (void)
{
 40000fc:	defff904 	addi	sp,sp,-28
 4000100:	dfc00615 	stw	ra,24(sp)
 4000104:	df000515 	stw	fp,20(sp)
 4000108:	df000504 	addi	fp,sp,20
  
  /*
   * Notify the operating system that we are at interrupt level.
   */ 
  
  ALT_OS_INT_ENTER();
 400010c:	0001883a 	nop
#ifndef NIOS2_EIC_PRESENT
static ALT_INLINE alt_u32 ALT_ALWAYS_INLINE alt_irq_pending (void)
{
  alt_u32 active;

  NIOS2_READ_IPENDING (active);
 4000110:	0005313a 	rdctl	r2,ipending
 4000114:	e0bffe15 	stw	r2,-8(fp)

  return active;
 4000118:	e0bffe17 	ldw	r2,-8(fp)
   * Consider the case where the high priority interupt is asserted during
   * the interrupt entry sequence for a lower priority interrupt to see why
   * this is the case.
   */

  active = alt_irq_pending ();
 400011c:	e0bffb15 	stw	r2,-20(fp)

  do
  {
    i = 0;
 4000120:	e03ffd15 	stw	zero,-12(fp)
    mask = 1;
 4000124:	00800044 	movi	r2,1
 4000128:	e0bffc15 	stw	r2,-16(fp)
     * called to clear the interrupt condition.
     */

    do
    {
      if (active & mask)
 400012c:	e0fffb17 	ldw	r3,-20(fp)
 4000130:	e0bffc17 	ldw	r2,-16(fp)
 4000134:	1884703a 	and	r2,r3,r2
 4000138:	10001426 	beq	r2,zero,400018c <alt_irq_handler+0x90>
      { 
#ifdef ALT_ENHANCED_INTERRUPT_API_PRESENT
        alt_irq[i].handler(alt_irq[i].context); 
 400013c:	00810074 	movhi	r2,1025
 4000140:	1091b504 	addi	r2,r2,18132
 4000144:	e0fffd17 	ldw	r3,-12(fp)
 4000148:	180690fa 	slli	r3,r3,3
 400014c:	10c5883a 	add	r2,r2,r3
 4000150:	10c00017 	ldw	r3,0(r2)
 4000154:	00810074 	movhi	r2,1025
 4000158:	1091b504 	addi	r2,r2,18132
 400015c:	e13ffd17 	ldw	r4,-12(fp)
 4000160:	200890fa 	slli	r4,r4,3
 4000164:	1105883a 	add	r2,r2,r4
 4000168:	10800104 	addi	r2,r2,4
 400016c:	10800017 	ldw	r2,0(r2)
 4000170:	1009883a 	mov	r4,r2
 4000174:	183ee83a 	callr	r3
#else
        alt_irq[i].handler(alt_irq[i].context, i); 
#endif
        break;
 4000178:	0001883a 	nop
#ifndef NIOS2_EIC_PRESENT
static ALT_INLINE alt_u32 ALT_ALWAYS_INLINE alt_irq_pending (void)
{
  alt_u32 active;

  NIOS2_READ_IPENDING (active);
 400017c:	0005313a 	rdctl	r2,ipending
 4000180:	e0bfff15 	stw	r2,-4(fp)

  return active;
 4000184:	e0bfff17 	ldw	r2,-4(fp)
 4000188:	00000706 	br	40001a8 <alt_irq_handler+0xac>
      }
      mask <<= 1;
 400018c:	e0bffc17 	ldw	r2,-16(fp)
 4000190:	1085883a 	add	r2,r2,r2
 4000194:	e0bffc15 	stw	r2,-16(fp)
      i++;
 4000198:	e0bffd17 	ldw	r2,-12(fp)
 400019c:	10800044 	addi	r2,r2,1
 40001a0:	e0bffd15 	stw	r2,-12(fp)

    } while (1);
 40001a4:	003fe106 	br	400012c <__alt_mem_SRAM+0xfbfe012c>

    active = alt_irq_pending ();
 40001a8:	e0bffb15 	stw	r2,-20(fp)
    
  } while (active);
 40001ac:	e0bffb17 	ldw	r2,-20(fp)
 40001b0:	103fdb1e 	bne	r2,zero,4000120 <__alt_mem_SRAM+0xfbfe0120>

  /*
   * Notify the operating system that interrupt processing is complete.
   */ 

  ALT_OS_INT_EXIT();
 40001b4:	0001883a 	nop
}
 40001b8:	0001883a 	nop
 40001bc:	e037883a 	mov	sp,fp
 40001c0:	dfc00117 	ldw	ra,4(sp)
 40001c4:	df000017 	ldw	fp,0(sp)
 40001c8:	dec00204 	addi	sp,sp,8
 40001cc:	f800283a 	ret

040001d0 <alt_instruction_exception_entry>:
 * that handler if it has been registered. Absent a handler, it will
 * break break or hang as discussed below.
 */
int 
alt_instruction_exception_entry (alt_u32 exception_pc)
{
 40001d0:	defffb04 	addi	sp,sp,-20
 40001d4:	dfc00415 	stw	ra,16(sp)
 40001d8:	df000315 	stw	fp,12(sp)
 40001dc:	df000304 	addi	fp,sp,12
 40001e0:	e13fff15 	stw	r4,-4(fp)
 * NIOS2_EXCEPTION_CAUSE_NOT_PRESENT. Your handling routine should
 * check the validity of the cause argument before proceeding.
 */
#ifdef NIOS2_HAS_EXTRA_EXCEPTION_INFO
  /* Get exception cause & "badaddr" */
  NIOS2_READ_EXCEPTION(cause);
 40001e4:	000531fa 	rdctl	r2,exception
 40001e8:	e0bffd15 	stw	r2,-12(fp)
  cause = ( (cause & NIOS2_EXCEPTION_REG_CAUSE_MASK) >>
 40001ec:	e0bffd17 	ldw	r2,-12(fp)
 40001f0:	10801f0c 	andi	r2,r2,124
 40001f4:	1004d0ba 	srli	r2,r2,2
 40001f8:	e0bffd15 	stw	r2,-12(fp)
              NIOS2_EXCEPTION_REG_CAUSE_OFST );

  NIOS2_READ_BADADDR(badaddr);
 40001fc:	0005333a 	rdctl	r2,badaddr
 4000200:	e0bffe15 	stw	r2,-8(fp)
#else
  cause = NIOS2_EXCEPTION_CAUSE_NOT_PRESENT;
  badaddr = 0;
#endif /* NIOS2_HAS_EXTRA_EXCEPTION_INFO */

  if(alt_instruction_exception_handler) {
 4000204:	d0a70b17 	ldw	r2,-25556(gp)
 4000208:	10000726 	beq	r2,zero,4000228 <alt_instruction_exception_entry+0x58>
     * Call handler. Its return value indicates whether the exception-causing
     * instruction should be re-issued. The code that called us,
     * alt_eceptions_entry.S, will look at this value and adjust the ea
     * register as necessary
     */
    return alt_instruction_exception_handler(cause, exception_pc, badaddr);
 400020c:	d0a70b17 	ldw	r2,-25556(gp)
 4000210:	e0fffd17 	ldw	r3,-12(fp)
 4000214:	e1bffe17 	ldw	r6,-8(fp)
 4000218:	e17fff17 	ldw	r5,-4(fp)
 400021c:	1809883a 	mov	r4,r3
 4000220:	103ee83a 	callr	r2
 4000224:	00000206 	br	4000230 <alt_instruction_exception_entry+0x60>
   *    (a peripheral which negates its interrupt output before its
   *    interrupt handler has been executed will cause spurious interrupts)
   */
  else {
#ifdef NIOS2_HAS_DEBUG_STUB
    NIOS2_BREAK();
 4000228:	003da03a 	break	0
      ;
#endif /* NIOS2_HAS_DEBUG_STUB */
  }

  /* We should not get here. Remove compiler warning. */
  return NIOS2_EXCEPTION_RETURN_REISSUE_INST;
 400022c:	0005883a 	mov	r2,zero
}
 4000230:	e037883a 	mov	sp,fp
 4000234:	dfc00117 	ldw	ra,4(sp)
 4000238:	df000017 	ldw	fp,0(sp)
 400023c:	dec00204 	addi	sp,sp,8
 4000240:	f800283a 	ret

Disassembly of section .text:

04000244 <_start>:

    /* Assume the data cache size is always a power of two. */
#if NIOS2_DCACHE_SIZE > 0x8000
    movhi r2, %hi(NIOS2_DCACHE_SIZE)
#else
    movui r2, NIOS2_DCACHE_SIZE
 4000244:	00820014 	movui	r2,2048
#endif

0:
    initd 0(r2)
 4000248:	10000033 	initd	0(r2)
#ifdef NIOS2_ECC_PRESENT
    addi r2, r2, -4
#else
    addi r2, r2, -NIOS2_DCACHE_LINE_SIZE
 400024c:	10bff804 	addi	r2,r2,-32
#endif
    bgt r2, zero, 0b
 4000250:	00bffd16 	blt	zero,r2,4000248 <__alt_mem_SRAM+0xfbfe0248>

    /*
     * Now that the caches are initialized, set up the stack pointer and global pointer.
     * The values provided by the linker are assumed to be correctly aligned.
     */
    movhi sp, %hi(__alt_stack_pointer)
 4000254:	06c20034 	movhi	sp,2048
    ori sp, sp, %lo(__alt_stack_pointer)
 4000258:	dec00014 	ori	sp,sp,0
    movhi gp, %hi(_gp)
 400025c:	06810074 	movhi	gp,1025
    ori gp, gp, %lo(_gp)
 4000260:	d6aa9814 	ori	gp,gp,43616
 */
#ifndef ALT_SIM_OPTIMIZE
    /* Log that the BSS is about to be cleared. */
    ALT_LOG_PUTS(alt_log_msg_bss)

    movhi r2, %hi(__bss_start)
 4000264:	00810074 	movhi	r2,1025
    ori r2, r2, %lo(__bss_start)
 4000268:	10919414 	ori	r2,r2,18000

    movhi r3, %hi(__bss_end)
 400026c:	00c10074 	movhi	r3,1025
    ori r3, r3, %lo(__bss_end)
 4000270:	18d1f514 	ori	r3,r3,18388

    beq r2, r3, 1f
 4000274:	10c00326 	beq	r2,r3,4000284 <_start+0x40>

0:
    stw zero, (r2)
 4000278:	10000015 	stw	zero,0(r2)
    addi r2, r2, 4
 400027c:	10800104 	addi	r2,r2,4
    bltu r2, r3, 0b
 4000280:	10fffd36 	bltu	r2,r3,4000278 <__alt_mem_SRAM+0xfbfe0278>
     * section aren't defined until alt_load() has been called).
     */
    mov   et, zero
#endif

    call alt_load
 4000284:	400d4e40 	call	400d4e4 <alt_load>

    /* Log that alt_main is about to be called. */
    ALT_LOG_PUTS(alt_log_msg_alt_main)

    /* Call the C entry point. It should never return. */
    call alt_main
 4000288:	400d6780 	call	400d678 <alt_main>

0400028c <alt_after_alt_main>:

    /* Wait in infinite loop in case alt_main does return. */
alt_after_alt_main:
    br alt_after_alt_main
 400028c:	003fff06 	br	400028c <__alt_mem_SRAM+0xfbfe028c>

04000290 <main>:

char questions[20];


int main( void )
{
 4000290:	defffb04 	addi	sp,sp,-20
 4000294:	dfc00415 	stw	ra,16(sp)
 4000298:	df000315 	stw	fp,12(sp)
 400029c:	df000304 	addi	fp,sp,12
	printf("Hello from NIOS II!\n");
 40002a0:	01010074 	movhi	r4,1025
 40002a4:	2102ac04 	addi	r4,r4,2736
 40002a8:	40006e40 	call	40006e4 <puts>
	printf("This is an interrupt example\n");
 40002ac:	01010074 	movhi	r4,1025
 40002b0:	2102b104 	addi	r4,r4,2756
 40002b4:	40006e40 	call	40006e4 <puts>

	// Enable the timer
	init_timer_interrupt();
 40002b8:	40003cc0 	call	40003cc <init_timer_interrupt>
	init_hex_display();
 40002bc:	40004c40 	call	40004c4 <init_hex_display>
	pixel_buffer = alt_up_pixel_buffer_dma_open_dev(SUBSYSTEM_0_VGA_PIXEL_DMA_NAME);
 40002c0:	01010074 	movhi	r4,1025
 40002c4:	2102b904 	addi	r4,r4,2788
 40002c8:	400ec5c0 	call	400ec5c <alt_up_pixel_buffer_dma_open_dev>
 40002cc:	d0a6ff15 	stw	r2,-25604(gp)
	if(pixel_buffer == NULL) {
 40002d0:	d0a6ff17 	ldw	r2,-25604(gp)
 40002d4:	1000041e 	bne	r2,zero,40002e8 <main+0x58>
		printf("Error: could not open pixel buffer device");
 40002d8:	01010074 	movhi	r4,1025
 40002dc:	2102c104 	addi	r4,r4,2820
 40002e0:	40005e80 	call	40005e8 <printf>
 40002e4:	00000306 	br	40002f4 <main+0x64>
	} else {
		printf("Opened pixel buffer device");
 40002e8:	01010074 	movhi	r4,1025
 40002ec:	2102cc04 	addi	r4,r4,2864
 40002f0:	40005e80 	call	40005e8 <printf>
	}

	alt_up_pixel_buffer_dma_clear_screen(pixel_buffer, 0);
 40002f4:	d0a6ff17 	ldw	r2,-25604(gp)
 40002f8:	000b883a 	mov	r5,zero
 40002fc:	1009883a 	mov	r4,r2
 4000300:	400ef1c0 	call	400ef1c <alt_up_pixel_buffer_dma_clear_screen>
	char_buffer = init_char_buffer(char_buffer);	
 4000304:	d0a6fe17 	ldw	r2,-25608(gp)
 4000308:	1009883a 	mov	r4,r2
 400030c:	40005740 	call	4000574 <init_char_buffer>
 4000310:	d0a6fe15 	stw	r2,-25608(gp)

	while(1){
		//Display question
		// Trigger button presses
		if(countdown == 0) {
 4000314:	d0a6fd17 	ldw	r2,-25612(gp)
 4000318:	103ffe1e 	bne	r2,zero,4000314 <__alt_mem_SRAM+0xfbfe0314>
			if(IORD_ALTERA_AVALON_PIO_DATA(BUTTONS_BASE + 3)){
 400031c:	00820134 	movhi	r2,2052
 4000320:	108c24c4 	addi	r2,r2,12435
 4000324:	10800037 	ldwio	r2,0(r2)
 4000328:	10001226 	beq	r2,zero,4000374 <main+0xe4>
				IOWR_ALTERA_AVALON_PIO_DATA(RED_LEDS_BASE, 240);
 400032c:	00c03c04 	movi	r3,240
 4000330:	00820134 	movhi	r2,2052
 4000334:	108c2c04 	addi	r2,r2,12464
 4000338:	10c00035 	stwio	r3,0(r2)
				alt_up_pixel_buffer_dma_draw_box(pixel_buffer, 20, 20, 640, 480, 0xF800,0); // Display Red box
 400033c:	d0e6ff17 	ldw	r3,-25604(gp)
 4000340:	d8000215 	stw	zero,8(sp)
 4000344:	00be0014 	movui	r2,63488
 4000348:	d8800115 	stw	r2,4(sp)
 400034c:	00807804 	movi	r2,480
 4000350:	d8800015 	stw	r2,0(sp)
 4000354:	01c0a004 	movi	r7,640
 4000358:	01800504 	movi	r6,20
 400035c:	01400504 	movi	r5,20
 4000360:	1809883a 	mov	r4,r3
 4000364:	400f0440 	call	400f044 <alt_up_pixel_buffer_dma_draw_box>
				countdown = 5;
 4000368:	00800144 	movi	r2,5
 400036c:	d0a6fd15 	stw	r2,-25612(gp)
 4000370:	003fe806 	br	4000314 <__alt_mem_SRAM+0xfbfe0314>
			} else if(IORD_ALTERA_AVALON_PIO_DATA(BUTTONS_BASE + 2)) {
 4000374:	00820134 	movhi	r2,2052
 4000378:	108c2484 	addi	r2,r2,12434
 400037c:	10800037 	ldwio	r2,0(r2)
 4000380:	103fe426 	beq	r2,zero,4000314 <__alt_mem_SRAM+0xfbfe0314>
				IOWR_ALTERA_AVALON_PIO_DATA(RED_LEDS_BASE, 15);
 4000384:	00c003c4 	movi	r3,15
 4000388:	00820134 	movhi	r2,2052
 400038c:	108c2c04 	addi	r2,r2,12464
 4000390:	10c00035 	stwio	r3,0(r2)
				alt_up_pixel_buffer_dma_draw_box(pixel_buffer, 20, 20, 640, 480, 0x07E0,0); // Display Green Box
 4000394:	d0e6ff17 	ldw	r3,-25604(gp)
 4000398:	d8000215 	stw	zero,8(sp)
 400039c:	0081f804 	movi	r2,2016
 40003a0:	d8800115 	stw	r2,4(sp)
 40003a4:	00807804 	movi	r2,480
 40003a8:	d8800015 	stw	r2,0(sp)
 40003ac:	01c0a004 	movi	r7,640
 40003b0:	01800504 	movi	r6,20
 40003b4:	01400504 	movi	r5,20
 40003b8:	1809883a 	mov	r4,r3
 40003bc:	400f0440 	call	400f044 <alt_up_pixel_buffer_dma_draw_box>
				countdown = 5;
 40003c0:	00800144 	movi	r2,5
 40003c4:	d0a6fd15 	stw	r2,-25612(gp)
		}

		// Listen for audio input
		// Display whether correct or incorrect
		// Loop to next question
	}
 40003c8:	003fd206 	br	4000314 <__alt_mem_SRAM+0xfbfe0314>

040003cc <init_timer_interrupt>:

	return 0;
}

void init_timer_interrupt( void )
{
 40003cc:	defffd04 	addi	sp,sp,-12
 40003d0:	dfc00215 	stw	ra,8(sp)
 40003d4:	df000115 	stw	fp,4(sp)
 40003d8:	df000104 	addi	fp,sp,4
	// Register the ISR with HAL
	alt_ic_isr_register(TIMER_IRQ_INTERRUPT_CONTROLLER_ID, TIMER_IRQ, (void *)timer_isr, NULL, 0x0);
 40003dc:	d8000015 	stw	zero,0(sp)
 40003e0:	000f883a 	mov	r7,zero
 40003e4:	01810034 	movhi	r6,1024
 40003e8:	31810804 	addi	r6,r6,1056
 40003ec:	01400084 	movi	r5,2
 40003f0:	0009883a 	mov	r4,zero
 40003f4:	400d0fc0 	call	400d0fc <alt_ic_isr_register>

	// Start the timer
	IOWR_ALTERA_AVALON_TIMER_CONTROL(TIMER_BASE,
 40003f8:	00c001c4 	movi	r3,7
 40003fc:	00820134 	movhi	r2,2052
 4000400:	108c0104 	addi	r2,r2,12292
 4000404:	10c00035 	stwio	r3,0(r2)
			ALTERA_AVALON_TIMER_CONTROL_CONT_MSK |
			ALTERA_AVALON_TIMER_CONTROL_START_MSK |
			ALTERA_AVALON_TIMER_CONTROL_ITO_MSK);
}
 4000408:	0001883a 	nop
 400040c:	e037883a 	mov	sp,fp
 4000410:	dfc00117 	ldw	ra,4(sp)
 4000414:	df000017 	ldw	fp,0(sp)
 4000418:	dec00204 	addi	sp,sp,8
 400041c:	f800283a 	ret

04000420 <timer_isr>:

static void timer_isr(void * context, alt_u32 id) {
 4000420:	defffd04 	addi	sp,sp,-12
 4000424:	df000215 	stw	fp,8(sp)
 4000428:	df000204 	addi	fp,sp,8
 400042c:	e13ffe15 	stw	r4,-8(fp)
 4000430:	e17fff15 	stw	r5,-4(fp)
	IOWR_ALTERA_AVALON_TIMER_STATUS(TIMER_BASE, 0);
 4000434:	0007883a 	mov	r3,zero
 4000438:	00820134 	movhi	r2,2052
 400043c:	108c0004 	addi	r2,r2,12288
 4000440:	10c00035 	stwio	r3,0(r2)

	count++;
 4000444:	d0a6fc17 	ldw	r2,-25616(gp)
 4000448:	10800044 	addi	r2,r2,1
 400044c:	d0a6fc15 	stw	r2,-25616(gp)
	if(countdown > 0) {
 4000450:	d0a6fd17 	ldw	r2,-25612(gp)
 4000454:	0080120e 	bge	zero,r2,40004a0 <timer_isr+0x80>
		if(count == 1000) {
 4000458:	d0a6fc17 	ldw	r2,-25616(gp)
 400045c:	1080fa18 	cmpnei	r2,r2,1000
 4000460:	1000131e 	bne	r2,zero,40004b0 <timer_isr+0x90>
			countdown--;
 4000464:	d0a6fd17 	ldw	r2,-25612(gp)
 4000468:	10bfffc4 	addi	r2,r2,-1
 400046c:	d0a6fd15 	stw	r2,-25612(gp)
			count = 0;
 4000470:	d026fc15 	stw	zero,-25616(gp)
			IOWR_ALTERA_AVALON_PIO_DATA(SEVEN_SEG_0_BASE,numbers[countdown]);
 4000474:	d0e6fd17 	ldw	r3,-25612(gp)
 4000478:	00810074 	movhi	r2,1025
 400047c:	1083bc04 	addi	r2,r2,3824
 4000480:	18c7883a 	add	r3,r3,r3
 4000484:	18c7883a 	add	r3,r3,r3
 4000488:	10c5883a 	add	r2,r2,r3
 400048c:	10c00017 	ldw	r3,0(r2)
 4000490:	00820134 	movhi	r2,2052
 4000494:	108c2004 	addi	r2,r2,12416
 4000498:	10c00035 	stwio	r3,0(r2)
	} else {
		IOWR_ALTERA_AVALON_PIO_DATA(RED_LEDS_BASE, 0);
	}


}
 400049c:	00000406 	br	40004b0 <timer_isr+0x90>
			countdown--;
			count = 0;
			IOWR_ALTERA_AVALON_PIO_DATA(SEVEN_SEG_0_BASE,numbers[countdown]);
		}
	} else {
		IOWR_ALTERA_AVALON_PIO_DATA(RED_LEDS_BASE, 0);
 40004a0:	0007883a 	mov	r3,zero
 40004a4:	00820134 	movhi	r2,2052
 40004a8:	108c2c04 	addi	r2,r2,12464
 40004ac:	10c00035 	stwio	r3,0(r2)
	}


}
 40004b0:	0001883a 	nop
 40004b4:	e037883a 	mov	sp,fp
 40004b8:	df000017 	ldw	fp,0(sp)
 40004bc:	dec00104 	addi	sp,sp,4
 40004c0:	f800283a 	ret

040004c4 <init_hex_display>:

void init_hex_display(void) {
 40004c4:	deffff04 	addi	sp,sp,-4
 40004c8:	df000015 	stw	fp,0(sp)
 40004cc:	d839883a 	mov	fp,sp
	IOWR_ALTERA_AVALON_PIO_DATA(SEVEN_SEG_0_BASE,numbers[0]);
 40004d0:	00810074 	movhi	r2,1025
 40004d4:	1083bc04 	addi	r2,r2,3824
 40004d8:	10c00017 	ldw	r3,0(r2)
 40004dc:	00820134 	movhi	r2,2052
 40004e0:	108c2004 	addi	r2,r2,12416
 40004e4:	10c00035 	stwio	r3,0(r2)
	IOWR_ALTERA_AVALON_PIO_DATA(SEVEN_SEG_1_BASE,numbers[0]);
 40004e8:	00810074 	movhi	r2,1025
 40004ec:	1083bc04 	addi	r2,r2,3824
 40004f0:	10c00017 	ldw	r3,0(r2)
 40004f4:	00820134 	movhi	r2,2052
 40004f8:	108c1c04 	addi	r2,r2,12400
 40004fc:	10c00035 	stwio	r3,0(r2)
	IOWR_ALTERA_AVALON_PIO_DATA(SEVEN_SEG_2_BASE,numbers[0]);
 4000500:	00810074 	movhi	r2,1025
 4000504:	1083bc04 	addi	r2,r2,3824
 4000508:	10c00017 	ldw	r3,0(r2)
 400050c:	00820134 	movhi	r2,2052
 4000510:	108c1804 	addi	r2,r2,12384
 4000514:	10c00035 	stwio	r3,0(r2)
	IOWR_ALTERA_AVALON_PIO_DATA(SEVEN_SEG_3_BASE,numbers[0]);
 4000518:	00810074 	movhi	r2,1025
 400051c:	1083bc04 	addi	r2,r2,3824
 4000520:	10c00017 	ldw	r3,0(r2)
 4000524:	00820134 	movhi	r2,2052
 4000528:	108c1404 	addi	r2,r2,12368
 400052c:	10c00035 	stwio	r3,0(r2)
	IOWR_ALTERA_AVALON_PIO_DATA(SEVEN_SEG_4_BASE,numbers[0]);
 4000530:	00810074 	movhi	r2,1025
 4000534:	1083bc04 	addi	r2,r2,3824
 4000538:	10c00017 	ldw	r3,0(r2)
 400053c:	00820134 	movhi	r2,2052
 4000540:	108c1004 	addi	r2,r2,12352
 4000544:	10c00035 	stwio	r3,0(r2)
	IOWR_ALTERA_AVALON_PIO_DATA(SEVEN_SEG_5_BASE,numbers[0]);
 4000548:	00810074 	movhi	r2,1025
 400054c:	1083bc04 	addi	r2,r2,3824
 4000550:	10c00017 	ldw	r3,0(r2)
 4000554:	00820134 	movhi	r2,2052
 4000558:	108c0c04 	addi	r2,r2,12336
 400055c:	10c00035 	stwio	r3,0(r2)

}
 4000560:	0001883a 	nop
 4000564:	e037883a 	mov	sp,fp
 4000568:	df000017 	ldw	fp,0(sp)
 400056c:	dec00104 	addi	sp,sp,4
 4000570:	f800283a 	ret

04000574 <init_char_buffer>:


alt_up_char_buffer_dev* init_char_buffer(alt_up_char_buffer_dev* char_buffer) {
 4000574:	defffd04 	addi	sp,sp,-12
 4000578:	dfc00215 	stw	ra,8(sp)
 400057c:	df000115 	stw	fp,4(sp)
 4000580:	df000104 	addi	fp,sp,4
 4000584:	e13fff15 	stw	r4,-4(fp)
	alt_up_char_buffer_init(char_buffer);
 4000588:	e13fff17 	ldw	r4,-4(fp)
 400058c:	400e97c0 	call	400e97c <alt_up_char_buffer_init>
	char_buffer = alt_up_char_buffer_open_dev(SUBSYSTEM_0_VGA_CHAR_BUFFER_AVALON_CHAR_BUFFER_SLAVE_NAME);
 4000590:	01010074 	movhi	r4,1025
 4000594:	2102d304 	addi	r4,r4,2892
 4000598:	400e9fc0 	call	400e9fc <alt_up_char_buffer_open_dev>
 400059c:	e0bfff15 	stw	r2,-4(fp)

	return char_buffer;
 40005a0:	e0bfff17 	ldw	r2,-4(fp)
}
 40005a4:	e037883a 	mov	sp,fp
 40005a8:	dfc00117 	ldw	ra,4(sp)
 40005ac:	df000017 	ldw	fp,0(sp)
 40005b0:	dec00204 	addi	sp,sp,8
 40005b4:	f800283a 	ret

040005b8 <_printf_r>:
 40005b8:	defffd04 	addi	sp,sp,-12
 40005bc:	2805883a 	mov	r2,r5
 40005c0:	dfc00015 	stw	ra,0(sp)
 40005c4:	d9800115 	stw	r6,4(sp)
 40005c8:	d9c00215 	stw	r7,8(sp)
 40005cc:	21400217 	ldw	r5,8(r4)
 40005d0:	d9c00104 	addi	r7,sp,4
 40005d4:	100d883a 	mov	r6,r2
 40005d8:	40007900 	call	4000790 <___vfprintf_internal_r>
 40005dc:	dfc00017 	ldw	ra,0(sp)
 40005e0:	dec00304 	addi	sp,sp,12
 40005e4:	f800283a 	ret

040005e8 <printf>:
 40005e8:	defffc04 	addi	sp,sp,-16
 40005ec:	dfc00015 	stw	ra,0(sp)
 40005f0:	d9400115 	stw	r5,4(sp)
 40005f4:	d9800215 	stw	r6,8(sp)
 40005f8:	d9c00315 	stw	r7,12(sp)
 40005fc:	00810074 	movhi	r2,1025
 4000600:	108a9904 	addi	r2,r2,10852
 4000604:	10800017 	ldw	r2,0(r2)
 4000608:	200b883a 	mov	r5,r4
 400060c:	d9800104 	addi	r6,sp,4
 4000610:	11000217 	ldw	r4,8(r2)
 4000614:	40029880 	call	4002988 <__vfprintf_internal>
 4000618:	dfc00017 	ldw	ra,0(sp)
 400061c:	dec00404 	addi	sp,sp,16
 4000620:	f800283a 	ret

04000624 <_puts_r>:
 4000624:	defff604 	addi	sp,sp,-40
 4000628:	dc000715 	stw	r16,28(sp)
 400062c:	2021883a 	mov	r16,r4
 4000630:	2809883a 	mov	r4,r5
 4000634:	dc400815 	stw	r17,32(sp)
 4000638:	dfc00915 	stw	ra,36(sp)
 400063c:	2823883a 	mov	r17,r5
 4000640:	40006f80 	call	40006f8 <strlen>
 4000644:	10c00044 	addi	r3,r2,1
 4000648:	d8800115 	stw	r2,4(sp)
 400064c:	00810074 	movhi	r2,1025
 4000650:	1082e204 	addi	r2,r2,2952
 4000654:	d8800215 	stw	r2,8(sp)
 4000658:	00800044 	movi	r2,1
 400065c:	d8800315 	stw	r2,12(sp)
 4000660:	00800084 	movi	r2,2
 4000664:	dc400015 	stw	r17,0(sp)
 4000668:	d8c00615 	stw	r3,24(sp)
 400066c:	dec00415 	stw	sp,16(sp)
 4000670:	d8800515 	stw	r2,20(sp)
 4000674:	80000226 	beq	r16,zero,4000680 <_puts_r+0x5c>
 4000678:	80800e17 	ldw	r2,56(r16)
 400067c:	10001426 	beq	r2,zero,40006d0 <_puts_r+0xac>
 4000680:	81400217 	ldw	r5,8(r16)
 4000684:	2880030b 	ldhu	r2,12(r5)
 4000688:	10c8000c 	andi	r3,r2,8192
 400068c:	1800061e 	bne	r3,zero,40006a8 <_puts_r+0x84>
 4000690:	29001917 	ldw	r4,100(r5)
 4000694:	00f7ffc4 	movi	r3,-8193
 4000698:	10880014 	ori	r2,r2,8192
 400069c:	20c6703a 	and	r3,r4,r3
 40006a0:	2880030d 	sth	r2,12(r5)
 40006a4:	28c01915 	stw	r3,100(r5)
 40006a8:	d9800404 	addi	r6,sp,16
 40006ac:	8009883a 	mov	r4,r16
 40006b0:	4004eb80 	call	4004eb8 <__sfvwrite_r>
 40006b4:	1000091e 	bne	r2,zero,40006dc <_puts_r+0xb8>
 40006b8:	00800284 	movi	r2,10
 40006bc:	dfc00917 	ldw	ra,36(sp)
 40006c0:	dc400817 	ldw	r17,32(sp)
 40006c4:	dc000717 	ldw	r16,28(sp)
 40006c8:	dec00a04 	addi	sp,sp,40
 40006cc:	f800283a 	ret
 40006d0:	8009883a 	mov	r4,r16
 40006d4:	4004a340 	call	4004a34 <__sinit>
 40006d8:	003fe906 	br	4000680 <__alt_mem_SRAM+0xfbfe0680>
 40006dc:	00bfffc4 	movi	r2,-1
 40006e0:	003ff606 	br	40006bc <__alt_mem_SRAM+0xfbfe06bc>

040006e4 <puts>:
 40006e4:	00810074 	movhi	r2,1025
 40006e8:	108a9904 	addi	r2,r2,10852
 40006ec:	200b883a 	mov	r5,r4
 40006f0:	11000017 	ldw	r4,0(r2)
 40006f4:	40006241 	jmpi	4000624 <_puts_r>

040006f8 <strlen>:
 40006f8:	208000cc 	andi	r2,r4,3
 40006fc:	10002026 	beq	r2,zero,4000780 <strlen+0x88>
 4000700:	20800007 	ldb	r2,0(r4)
 4000704:	10002026 	beq	r2,zero,4000788 <strlen+0x90>
 4000708:	2005883a 	mov	r2,r4
 400070c:	00000206 	br	4000718 <strlen+0x20>
 4000710:	10c00007 	ldb	r3,0(r2)
 4000714:	18001826 	beq	r3,zero,4000778 <strlen+0x80>
 4000718:	10800044 	addi	r2,r2,1
 400071c:	10c000cc 	andi	r3,r2,3
 4000720:	183ffb1e 	bne	r3,zero,4000710 <__alt_mem_SRAM+0xfbfe0710>
 4000724:	10c00017 	ldw	r3,0(r2)
 4000728:	01ffbff4 	movhi	r7,65279
 400072c:	39ffbfc4 	addi	r7,r7,-257
 4000730:	00ca303a 	nor	r5,zero,r3
 4000734:	01a02074 	movhi	r6,32897
 4000738:	19c7883a 	add	r3,r3,r7
 400073c:	31a02004 	addi	r6,r6,-32640
 4000740:	1946703a 	and	r3,r3,r5
 4000744:	1986703a 	and	r3,r3,r6
 4000748:	1800091e 	bne	r3,zero,4000770 <strlen+0x78>
 400074c:	10800104 	addi	r2,r2,4
 4000750:	10c00017 	ldw	r3,0(r2)
 4000754:	19cb883a 	add	r5,r3,r7
 4000758:	00c6303a 	nor	r3,zero,r3
 400075c:	28c6703a 	and	r3,r5,r3
 4000760:	1986703a 	and	r3,r3,r6
 4000764:	183ff926 	beq	r3,zero,400074c <__alt_mem_SRAM+0xfbfe074c>
 4000768:	00000106 	br	4000770 <strlen+0x78>
 400076c:	10800044 	addi	r2,r2,1
 4000770:	10c00007 	ldb	r3,0(r2)
 4000774:	183ffd1e 	bne	r3,zero,400076c <__alt_mem_SRAM+0xfbfe076c>
 4000778:	1105c83a 	sub	r2,r2,r4
 400077c:	f800283a 	ret
 4000780:	2005883a 	mov	r2,r4
 4000784:	003fe706 	br	4000724 <__alt_mem_SRAM+0xfbfe0724>
 4000788:	0005883a 	mov	r2,zero
 400078c:	f800283a 	ret

04000790 <___vfprintf_internal_r>:
 4000790:	deffb804 	addi	sp,sp,-288
 4000794:	dfc04715 	stw	ra,284(sp)
 4000798:	ddc04515 	stw	r23,276(sp)
 400079c:	dd404315 	stw	r21,268(sp)
 40007a0:	d9002c15 	stw	r4,176(sp)
 40007a4:	282f883a 	mov	r23,r5
 40007a8:	302b883a 	mov	r21,r6
 40007ac:	d9c02d15 	stw	r7,180(sp)
 40007b0:	df004615 	stw	fp,280(sp)
 40007b4:	dd804415 	stw	r22,272(sp)
 40007b8:	dd004215 	stw	r20,264(sp)
 40007bc:	dcc04115 	stw	r19,260(sp)
 40007c0:	dc804015 	stw	r18,256(sp)
 40007c4:	dc403f15 	stw	r17,252(sp)
 40007c8:	dc003e15 	stw	r16,248(sp)
 40007cc:	40055a80 	call	40055a8 <_localeconv_r>
 40007d0:	10800017 	ldw	r2,0(r2)
 40007d4:	1009883a 	mov	r4,r2
 40007d8:	d8803415 	stw	r2,208(sp)
 40007dc:	40006f80 	call	40006f8 <strlen>
 40007e0:	d8803715 	stw	r2,220(sp)
 40007e4:	d8802c17 	ldw	r2,176(sp)
 40007e8:	10000226 	beq	r2,zero,40007f4 <___vfprintf_internal_r+0x64>
 40007ec:	10800e17 	ldw	r2,56(r2)
 40007f0:	1000f926 	beq	r2,zero,4000bd8 <___vfprintf_internal_r+0x448>
 40007f4:	b880030b 	ldhu	r2,12(r23)
 40007f8:	10c8000c 	andi	r3,r2,8192
 40007fc:	1800061e 	bne	r3,zero,4000818 <___vfprintf_internal_r+0x88>
 4000800:	b9001917 	ldw	r4,100(r23)
 4000804:	00f7ffc4 	movi	r3,-8193
 4000808:	10880014 	ori	r2,r2,8192
 400080c:	20c6703a 	and	r3,r4,r3
 4000810:	b880030d 	sth	r2,12(r23)
 4000814:	b8c01915 	stw	r3,100(r23)
 4000818:	10c0020c 	andi	r3,r2,8
 400081c:	1800c126 	beq	r3,zero,4000b24 <___vfprintf_internal_r+0x394>
 4000820:	b8c00417 	ldw	r3,16(r23)
 4000824:	1800bf26 	beq	r3,zero,4000b24 <___vfprintf_internal_r+0x394>
 4000828:	1080068c 	andi	r2,r2,26
 400082c:	00c00284 	movi	r3,10
 4000830:	10c0c426 	beq	r2,r3,4000b44 <___vfprintf_internal_r+0x3b4>
 4000834:	d8c00404 	addi	r3,sp,16
 4000838:	05010074 	movhi	r20,1025
 400083c:	d9001e04 	addi	r4,sp,120
 4000840:	a502f384 	addi	r20,r20,3022
 4000844:	d8c01e15 	stw	r3,120(sp)
 4000848:	d8002015 	stw	zero,128(sp)
 400084c:	d8001f15 	stw	zero,124(sp)
 4000850:	d8003315 	stw	zero,204(sp)
 4000854:	d8003615 	stw	zero,216(sp)
 4000858:	d8003815 	stw	zero,224(sp)
 400085c:	1811883a 	mov	r8,r3
 4000860:	d8003915 	stw	zero,228(sp)
 4000864:	d8003a15 	stw	zero,232(sp)
 4000868:	d8002f15 	stw	zero,188(sp)
 400086c:	d9002815 	stw	r4,160(sp)
 4000870:	a8800007 	ldb	r2,0(r21)
 4000874:	10027b26 	beq	r2,zero,4001264 <___vfprintf_internal_r+0xad4>
 4000878:	00c00944 	movi	r3,37
 400087c:	a821883a 	mov	r16,r21
 4000880:	10c0021e 	bne	r2,r3,400088c <___vfprintf_internal_r+0xfc>
 4000884:	00001406 	br	40008d8 <___vfprintf_internal_r+0x148>
 4000888:	10c00326 	beq	r2,r3,4000898 <___vfprintf_internal_r+0x108>
 400088c:	84000044 	addi	r16,r16,1
 4000890:	80800007 	ldb	r2,0(r16)
 4000894:	103ffc1e 	bne	r2,zero,4000888 <__alt_mem_SRAM+0xfbfe0888>
 4000898:	8563c83a 	sub	r17,r16,r21
 400089c:	88000e26 	beq	r17,zero,40008d8 <___vfprintf_internal_r+0x148>
 40008a0:	d8c02017 	ldw	r3,128(sp)
 40008a4:	d8801f17 	ldw	r2,124(sp)
 40008a8:	45400015 	stw	r21,0(r8)
 40008ac:	1c47883a 	add	r3,r3,r17
 40008b0:	10800044 	addi	r2,r2,1
 40008b4:	d8c02015 	stw	r3,128(sp)
 40008b8:	44400115 	stw	r17,4(r8)
 40008bc:	d8801f15 	stw	r2,124(sp)
 40008c0:	00c001c4 	movi	r3,7
 40008c4:	1880a716 	blt	r3,r2,4000b64 <___vfprintf_internal_r+0x3d4>
 40008c8:	42000204 	addi	r8,r8,8
 40008cc:	d9402f17 	ldw	r5,188(sp)
 40008d0:	2c4b883a 	add	r5,r5,r17
 40008d4:	d9402f15 	stw	r5,188(sp)
 40008d8:	80800007 	ldb	r2,0(r16)
 40008dc:	1000a826 	beq	r2,zero,4000b80 <___vfprintf_internal_r+0x3f0>
 40008e0:	84400047 	ldb	r17,1(r16)
 40008e4:	00bfffc4 	movi	r2,-1
 40008e8:	85400044 	addi	r21,r16,1
 40008ec:	d8002785 	stb	zero,158(sp)
 40008f0:	0007883a 	mov	r3,zero
 40008f4:	000f883a 	mov	r7,zero
 40008f8:	d8802915 	stw	r2,164(sp)
 40008fc:	d8003115 	stw	zero,196(sp)
 4000900:	0025883a 	mov	r18,zero
 4000904:	01401604 	movi	r5,88
 4000908:	01800244 	movi	r6,9
 400090c:	02800a84 	movi	r10,42
 4000910:	02401b04 	movi	r9,108
 4000914:	ad400044 	addi	r21,r21,1
 4000918:	88bff804 	addi	r2,r17,-32
 400091c:	28830436 	bltu	r5,r2,4001530 <___vfprintf_internal_r+0xda0>
 4000920:	100490ba 	slli	r2,r2,2
 4000924:	01010034 	movhi	r4,1024
 4000928:	21024e04 	addi	r4,r4,2360
 400092c:	1105883a 	add	r2,r2,r4
 4000930:	10800017 	ldw	r2,0(r2)
 4000934:	1000683a 	jmp	r2
 4000938:	04001450 	cmplti	r16,zero,81
 400093c:	04001530 	cmpltui	r16,zero,84
 4000940:	04001530 	cmpltui	r16,zero,84
 4000944:	04001470 	cmpltui	r16,zero,81
 4000948:	04001530 	cmpltui	r16,zero,84
 400094c:	04001530 	cmpltui	r16,zero,84
 4000950:	04001530 	cmpltui	r16,zero,84
 4000954:	04001530 	cmpltui	r16,zero,84
 4000958:	04001530 	cmpltui	r16,zero,84
 400095c:	04001530 	cmpltui	r16,zero,84
 4000960:	04000be4 	muli	r16,zero,47
 4000964:	0400138c 	andi	r16,zero,78
 4000968:	04001530 	cmpltui	r16,zero,84
 400096c:	04000aac 	andhi	r16,zero,42
 4000970:	04000c0c 	andi	r16,zero,48
 4000974:	04001530 	cmpltui	r16,zero,84
 4000978:	04000c4c 	andi	r16,zero,49
 400097c:	04000c58 	cmpnei	r16,zero,49
 4000980:	04000c58 	cmpnei	r16,zero,49
 4000984:	04000c58 	cmpnei	r16,zero,49
 4000988:	04000c58 	cmpnei	r16,zero,49
 400098c:	04000c58 	cmpnei	r16,zero,49
 4000990:	04000c58 	cmpnei	r16,zero,49
 4000994:	04000c58 	cmpnei	r16,zero,49
 4000998:	04000c58 	cmpnei	r16,zero,49
 400099c:	04000c58 	cmpnei	r16,zero,49
 40009a0:	04001530 	cmpltui	r16,zero,84
 40009a4:	04001530 	cmpltui	r16,zero,84
 40009a8:	04001530 	cmpltui	r16,zero,84
 40009ac:	04001530 	cmpltui	r16,zero,84
 40009b0:	04001530 	cmpltui	r16,zero,84
 40009b4:	04001530 	cmpltui	r16,zero,84
 40009b8:	04001530 	cmpltui	r16,zero,84
 40009bc:	04001530 	cmpltui	r16,zero,84
 40009c0:	04001530 	cmpltui	r16,zero,84
 40009c4:	04001530 	cmpltui	r16,zero,84
 40009c8:	04000c8c 	andi	r16,zero,50
 40009cc:	04000d48 	cmpgei	r16,zero,53
 40009d0:	04001530 	cmpltui	r16,zero,84
 40009d4:	04000d48 	cmpgei	r16,zero,53
 40009d8:	04001530 	cmpltui	r16,zero,84
 40009dc:	04001530 	cmpltui	r16,zero,84
 40009e0:	04001530 	cmpltui	r16,zero,84
 40009e4:	04001530 	cmpltui	r16,zero,84
 40009e8:	04000de8 	cmpgeui	r16,zero,55
 40009ec:	04001530 	cmpltui	r16,zero,84
 40009f0:	04001530 	cmpltui	r16,zero,84
 40009f4:	04000df4 	movhi	r16,55
 40009f8:	04001530 	cmpltui	r16,zero,84
 40009fc:	04001530 	cmpltui	r16,zero,84
 4000a00:	04001530 	cmpltui	r16,zero,84
 4000a04:	04001530 	cmpltui	r16,zero,84
 4000a08:	04001530 	cmpltui	r16,zero,84
 4000a0c:	0400126c 	andhi	r16,zero,73
 4000a10:	04001530 	cmpltui	r16,zero,84
 4000a14:	04001530 	cmpltui	r16,zero,84
 4000a18:	040012cc 	andi	r16,zero,75
 4000a1c:	04001530 	cmpltui	r16,zero,84
 4000a20:	04001530 	cmpltui	r16,zero,84
 4000a24:	04001530 	cmpltui	r16,zero,84
 4000a28:	04001530 	cmpltui	r16,zero,84
 4000a2c:	04001530 	cmpltui	r16,zero,84
 4000a30:	04001530 	cmpltui	r16,zero,84
 4000a34:	04001530 	cmpltui	r16,zero,84
 4000a38:	04001530 	cmpltui	r16,zero,84
 4000a3c:	04001530 	cmpltui	r16,zero,84
 4000a40:	04001530 	cmpltui	r16,zero,84
 4000a44:	040014dc 	xori	r16,zero,83
 4000a48:	0400147c 	xorhi	r16,zero,81
 4000a4c:	04000d48 	cmpgei	r16,zero,53
 4000a50:	04000d48 	cmpgei	r16,zero,53
 4000a54:	04000d48 	cmpgei	r16,zero,53
 4000a58:	0400148c 	andi	r16,zero,82
 4000a5c:	0400147c 	xorhi	r16,zero,81
 4000a60:	04001530 	cmpltui	r16,zero,84
 4000a64:	04001530 	cmpltui	r16,zero,84
 4000a68:	04001498 	cmpnei	r16,zero,82
 4000a6c:	04001530 	cmpltui	r16,zero,84
 4000a70:	040014a8 	cmpgeui	r16,zero,82
 4000a74:	0400137c 	xorhi	r16,zero,77
 4000a78:	04000ab8 	rdprs	r16,zero,42
 4000a7c:	0400139c 	xori	r16,zero,78
 4000a80:	04001530 	cmpltui	r16,zero,84
 4000a84:	040013a8 	cmpgeui	r16,zero,78
 4000a88:	04001530 	cmpltui	r16,zero,84
 4000a8c:	04001404 	movi	r16,80
 4000a90:	04001530 	cmpltui	r16,zero,84
 4000a94:	04001530 	cmpltui	r16,zero,84
 4000a98:	04001414 	movui	r16,80
 4000a9c:	d9003117 	ldw	r4,196(sp)
 4000aa0:	d8802d15 	stw	r2,180(sp)
 4000aa4:	0109c83a 	sub	r4,zero,r4
 4000aa8:	d9003115 	stw	r4,196(sp)
 4000aac:	94800114 	ori	r18,r18,4
 4000ab0:	ac400007 	ldb	r17,0(r21)
 4000ab4:	003f9706 	br	4000914 <__alt_mem_SRAM+0xfbfe0914>
 4000ab8:	00800c04 	movi	r2,48
 4000abc:	d9002d17 	ldw	r4,180(sp)
 4000ac0:	d9402917 	ldw	r5,164(sp)
 4000ac4:	d8802705 	stb	r2,156(sp)
 4000ac8:	00801e04 	movi	r2,120
 4000acc:	d8802745 	stb	r2,157(sp)
 4000ad0:	d8002785 	stb	zero,158(sp)
 4000ad4:	20c00104 	addi	r3,r4,4
 4000ad8:	24c00017 	ldw	r19,0(r4)
 4000adc:	002d883a 	mov	r22,zero
 4000ae0:	90800094 	ori	r2,r18,2
 4000ae4:	28029a16 	blt	r5,zero,4001550 <___vfprintf_internal_r+0xdc0>
 4000ae8:	00bfdfc4 	movi	r2,-129
 4000aec:	90a4703a 	and	r18,r18,r2
 4000af0:	d8c02d15 	stw	r3,180(sp)
 4000af4:	94800094 	ori	r18,r18,2
 4000af8:	9802871e 	bne	r19,zero,4001518 <___vfprintf_internal_r+0xd88>
 4000afc:	00810074 	movhi	r2,1025
 4000b00:	1082ec04 	addi	r2,r2,2992
 4000b04:	d8803915 	stw	r2,228(sp)
 4000b08:	04401e04 	movi	r17,120
 4000b0c:	d8802917 	ldw	r2,164(sp)
 4000b10:	0039883a 	mov	fp,zero
 4000b14:	1001e926 	beq	r2,zero,40012bc <___vfprintf_internal_r+0xb2c>
 4000b18:	0027883a 	mov	r19,zero
 4000b1c:	002d883a 	mov	r22,zero
 4000b20:	00020506 	br	4001338 <___vfprintf_internal_r+0xba8>
 4000b24:	d9002c17 	ldw	r4,176(sp)
 4000b28:	b80b883a 	mov	r5,r23
 4000b2c:	4002a600 	call	4002a60 <__swsetup_r>
 4000b30:	1005ac1e 	bne	r2,zero,40021e4 <___vfprintf_internal_r+0x1a54>
 4000b34:	b880030b 	ldhu	r2,12(r23)
 4000b38:	00c00284 	movi	r3,10
 4000b3c:	1080068c 	andi	r2,r2,26
 4000b40:	10ff3c1e 	bne	r2,r3,4000834 <__alt_mem_SRAM+0xfbfe0834>
 4000b44:	b880038f 	ldh	r2,14(r23)
 4000b48:	103f3a16 	blt	r2,zero,4000834 <__alt_mem_SRAM+0xfbfe0834>
 4000b4c:	d9c02d17 	ldw	r7,180(sp)
 4000b50:	d9002c17 	ldw	r4,176(sp)
 4000b54:	a80d883a 	mov	r6,r21
 4000b58:	b80b883a 	mov	r5,r23
 4000b5c:	40029a40 	call	40029a4 <__sbprintf>
 4000b60:	00001106 	br	4000ba8 <___vfprintf_internal_r+0x418>
 4000b64:	d9002c17 	ldw	r4,176(sp)
 4000b68:	d9801e04 	addi	r6,sp,120
 4000b6c:	b80b883a 	mov	r5,r23
 4000b70:	4007d8c0 	call	4007d8c <__sprint_r>
 4000b74:	1000081e 	bne	r2,zero,4000b98 <___vfprintf_internal_r+0x408>
 4000b78:	da000404 	addi	r8,sp,16
 4000b7c:	003f5306 	br	40008cc <__alt_mem_SRAM+0xfbfe08cc>
 4000b80:	d8802017 	ldw	r2,128(sp)
 4000b84:	10000426 	beq	r2,zero,4000b98 <___vfprintf_internal_r+0x408>
 4000b88:	d9002c17 	ldw	r4,176(sp)
 4000b8c:	d9801e04 	addi	r6,sp,120
 4000b90:	b80b883a 	mov	r5,r23
 4000b94:	4007d8c0 	call	4007d8c <__sprint_r>
 4000b98:	b880030b 	ldhu	r2,12(r23)
 4000b9c:	1080100c 	andi	r2,r2,64
 4000ba0:	1005901e 	bne	r2,zero,40021e4 <___vfprintf_internal_r+0x1a54>
 4000ba4:	d8802f17 	ldw	r2,188(sp)
 4000ba8:	dfc04717 	ldw	ra,284(sp)
 4000bac:	df004617 	ldw	fp,280(sp)
 4000bb0:	ddc04517 	ldw	r23,276(sp)
 4000bb4:	dd804417 	ldw	r22,272(sp)
 4000bb8:	dd404317 	ldw	r21,268(sp)
 4000bbc:	dd004217 	ldw	r20,264(sp)
 4000bc0:	dcc04117 	ldw	r19,260(sp)
 4000bc4:	dc804017 	ldw	r18,256(sp)
 4000bc8:	dc403f17 	ldw	r17,252(sp)
 4000bcc:	dc003e17 	ldw	r16,248(sp)
 4000bd0:	dec04804 	addi	sp,sp,288
 4000bd4:	f800283a 	ret
 4000bd8:	d9002c17 	ldw	r4,176(sp)
 4000bdc:	4004a340 	call	4004a34 <__sinit>
 4000be0:	003f0406 	br	40007f4 <__alt_mem_SRAM+0xfbfe07f4>
 4000be4:	d8802d17 	ldw	r2,180(sp)
 4000be8:	d9002d17 	ldw	r4,180(sp)
 4000bec:	10800017 	ldw	r2,0(r2)
 4000bf0:	d8803115 	stw	r2,196(sp)
 4000bf4:	20800104 	addi	r2,r4,4
 4000bf8:	d9003117 	ldw	r4,196(sp)
 4000bfc:	203fa716 	blt	r4,zero,4000a9c <__alt_mem_SRAM+0xfbfe0a9c>
 4000c00:	d8802d15 	stw	r2,180(sp)
 4000c04:	ac400007 	ldb	r17,0(r21)
 4000c08:	003f4206 	br	4000914 <__alt_mem_SRAM+0xfbfe0914>
 4000c0c:	ac400007 	ldb	r17,0(r21)
 4000c10:	aac00044 	addi	r11,r21,1
 4000c14:	8a872826 	beq	r17,r10,40028b8 <___vfprintf_internal_r+0x2128>
 4000c18:	88bff404 	addi	r2,r17,-48
 4000c1c:	0009883a 	mov	r4,zero
 4000c20:	30867d36 	bltu	r6,r2,4002618 <___vfprintf_internal_r+0x1e88>
 4000c24:	5c400007 	ldb	r17,0(r11)
 4000c28:	210002a4 	muli	r4,r4,10
 4000c2c:	5d400044 	addi	r21,r11,1
 4000c30:	a817883a 	mov	r11,r21
 4000c34:	2089883a 	add	r4,r4,r2
 4000c38:	88bff404 	addi	r2,r17,-48
 4000c3c:	30bff92e 	bgeu	r6,r2,4000c24 <__alt_mem_SRAM+0xfbfe0c24>
 4000c40:	2005c916 	blt	r4,zero,4002368 <___vfprintf_internal_r+0x1bd8>
 4000c44:	d9002915 	stw	r4,164(sp)
 4000c48:	003f3306 	br	4000918 <__alt_mem_SRAM+0xfbfe0918>
 4000c4c:	94802014 	ori	r18,r18,128
 4000c50:	ac400007 	ldb	r17,0(r21)
 4000c54:	003f2f06 	br	4000914 <__alt_mem_SRAM+0xfbfe0914>
 4000c58:	a809883a 	mov	r4,r21
 4000c5c:	d8003115 	stw	zero,196(sp)
 4000c60:	88bff404 	addi	r2,r17,-48
 4000c64:	0017883a 	mov	r11,zero
 4000c68:	24400007 	ldb	r17,0(r4)
 4000c6c:	5ac002a4 	muli	r11,r11,10
 4000c70:	ad400044 	addi	r21,r21,1
 4000c74:	a809883a 	mov	r4,r21
 4000c78:	12d7883a 	add	r11,r2,r11
 4000c7c:	88bff404 	addi	r2,r17,-48
 4000c80:	30bff92e 	bgeu	r6,r2,4000c68 <__alt_mem_SRAM+0xfbfe0c68>
 4000c84:	dac03115 	stw	r11,196(sp)
 4000c88:	003f2306 	br	4000918 <__alt_mem_SRAM+0xfbfe0918>
 4000c8c:	18c03fcc 	andi	r3,r3,255
 4000c90:	18072b1e 	bne	r3,zero,4002940 <___vfprintf_internal_r+0x21b0>
 4000c94:	94800414 	ori	r18,r18,16
 4000c98:	9080080c 	andi	r2,r18,32
 4000c9c:	10037b26 	beq	r2,zero,4001a8c <___vfprintf_internal_r+0x12fc>
 4000ca0:	d9402d17 	ldw	r5,180(sp)
 4000ca4:	28800117 	ldw	r2,4(r5)
 4000ca8:	2cc00017 	ldw	r19,0(r5)
 4000cac:	29400204 	addi	r5,r5,8
 4000cb0:	d9402d15 	stw	r5,180(sp)
 4000cb4:	102d883a 	mov	r22,r2
 4000cb8:	10044b16 	blt	r2,zero,4001de8 <___vfprintf_internal_r+0x1658>
 4000cbc:	d9402917 	ldw	r5,164(sp)
 4000cc0:	df002783 	ldbu	fp,158(sp)
 4000cc4:	2803bc16 	blt	r5,zero,4001bb8 <___vfprintf_internal_r+0x1428>
 4000cc8:	00ffdfc4 	movi	r3,-129
 4000ccc:	9d84b03a 	or	r2,r19,r22
 4000cd0:	90e4703a 	and	r18,r18,r3
 4000cd4:	10017726 	beq	r2,zero,40012b4 <___vfprintf_internal_r+0xb24>
 4000cd8:	b0038326 	beq	r22,zero,4001ae8 <___vfprintf_internal_r+0x1358>
 4000cdc:	dc402a15 	stw	r17,168(sp)
 4000ce0:	dc001e04 	addi	r16,sp,120
 4000ce4:	b023883a 	mov	r17,r22
 4000ce8:	402d883a 	mov	r22,r8
 4000cec:	9809883a 	mov	r4,r19
 4000cf0:	880b883a 	mov	r5,r17
 4000cf4:	01800284 	movi	r6,10
 4000cf8:	000f883a 	mov	r7,zero
 4000cfc:	400a1840 	call	400a184 <__umoddi3>
 4000d00:	10800c04 	addi	r2,r2,48
 4000d04:	843fffc4 	addi	r16,r16,-1
 4000d08:	9809883a 	mov	r4,r19
 4000d0c:	880b883a 	mov	r5,r17
 4000d10:	80800005 	stb	r2,0(r16)
 4000d14:	01800284 	movi	r6,10
 4000d18:	000f883a 	mov	r7,zero
 4000d1c:	4009c0c0 	call	4009c0c <__udivdi3>
 4000d20:	1027883a 	mov	r19,r2
 4000d24:	10c4b03a 	or	r2,r2,r3
 4000d28:	1823883a 	mov	r17,r3
 4000d2c:	103fef1e 	bne	r2,zero,4000cec <__alt_mem_SRAM+0xfbfe0cec>
 4000d30:	d8c02817 	ldw	r3,160(sp)
 4000d34:	dc402a17 	ldw	r17,168(sp)
 4000d38:	b011883a 	mov	r8,r22
 4000d3c:	1c07c83a 	sub	r3,r3,r16
 4000d40:	d8c02e15 	stw	r3,184(sp)
 4000d44:	00005906 	br	4000eac <___vfprintf_internal_r+0x71c>
 4000d48:	18c03fcc 	andi	r3,r3,255
 4000d4c:	1806fa1e 	bne	r3,zero,4002938 <___vfprintf_internal_r+0x21a8>
 4000d50:	9080020c 	andi	r2,r18,8
 4000d54:	10048a26 	beq	r2,zero,4001f80 <___vfprintf_internal_r+0x17f0>
 4000d58:	d8c02d17 	ldw	r3,180(sp)
 4000d5c:	d9002d17 	ldw	r4,180(sp)
 4000d60:	d9402d17 	ldw	r5,180(sp)
 4000d64:	18c00017 	ldw	r3,0(r3)
 4000d68:	21000117 	ldw	r4,4(r4)
 4000d6c:	29400204 	addi	r5,r5,8
 4000d70:	d8c03615 	stw	r3,216(sp)
 4000d74:	d9003815 	stw	r4,224(sp)
 4000d78:	d9402d15 	stw	r5,180(sp)
 4000d7c:	d9003617 	ldw	r4,216(sp)
 4000d80:	d9403817 	ldw	r5,224(sp)
 4000d84:	da003d15 	stw	r8,244(sp)
 4000d88:	04000044 	movi	r16,1
 4000d8c:	40079b00 	call	40079b0 <__fpclassifyd>
 4000d90:	da003d17 	ldw	r8,244(sp)
 4000d94:	14041f1e 	bne	r2,r16,4001e14 <___vfprintf_internal_r+0x1684>
 4000d98:	d9003617 	ldw	r4,216(sp)
 4000d9c:	d9403817 	ldw	r5,224(sp)
 4000da0:	000d883a 	mov	r6,zero
 4000da4:	000f883a 	mov	r7,zero
 4000da8:	400bb680 	call	400bb68 <__ledf2>
 4000dac:	da003d17 	ldw	r8,244(sp)
 4000db0:	1005be16 	blt	r2,zero,40024ac <___vfprintf_internal_r+0x1d1c>
 4000db4:	df002783 	ldbu	fp,158(sp)
 4000db8:	008011c4 	movi	r2,71
 4000dbc:	1445330e 	bge	r2,r17,400228c <___vfprintf_internal_r+0x1afc>
 4000dc0:	04010074 	movhi	r16,1025
 4000dc4:	8402e404 	addi	r16,r16,2960
 4000dc8:	00c000c4 	movi	r3,3
 4000dcc:	00bfdfc4 	movi	r2,-129
 4000dd0:	d8c02a15 	stw	r3,168(sp)
 4000dd4:	90a4703a 	and	r18,r18,r2
 4000dd8:	d8c02e15 	stw	r3,184(sp)
 4000ddc:	d8002915 	stw	zero,164(sp)
 4000de0:	d8003215 	stw	zero,200(sp)
 4000de4:	00003706 	br	4000ec4 <___vfprintf_internal_r+0x734>
 4000de8:	94800214 	ori	r18,r18,8
 4000dec:	ac400007 	ldb	r17,0(r21)
 4000df0:	003ec806 	br	4000914 <__alt_mem_SRAM+0xfbfe0914>
 4000df4:	18c03fcc 	andi	r3,r3,255
 4000df8:	1806db1e 	bne	r3,zero,4002968 <___vfprintf_internal_r+0x21d8>
 4000dfc:	94800414 	ori	r18,r18,16
 4000e00:	9080080c 	andi	r2,r18,32
 4000e04:	1002d826 	beq	r2,zero,4001968 <___vfprintf_internal_r+0x11d8>
 4000e08:	d9402d17 	ldw	r5,180(sp)
 4000e0c:	d8c02917 	ldw	r3,164(sp)
 4000e10:	d8002785 	stb	zero,158(sp)
 4000e14:	28800204 	addi	r2,r5,8
 4000e18:	2cc00017 	ldw	r19,0(r5)
 4000e1c:	2d800117 	ldw	r22,4(r5)
 4000e20:	18048f16 	blt	r3,zero,4002060 <___vfprintf_internal_r+0x18d0>
 4000e24:	013fdfc4 	movi	r4,-129
 4000e28:	9d86b03a 	or	r3,r19,r22
 4000e2c:	d8802d15 	stw	r2,180(sp)
 4000e30:	9124703a 	and	r18,r18,r4
 4000e34:	1802d91e 	bne	r3,zero,400199c <___vfprintf_internal_r+0x120c>
 4000e38:	d8c02917 	ldw	r3,164(sp)
 4000e3c:	0039883a 	mov	fp,zero
 4000e40:	1805c326 	beq	r3,zero,4002550 <___vfprintf_internal_r+0x1dc0>
 4000e44:	0027883a 	mov	r19,zero
 4000e48:	002d883a 	mov	r22,zero
 4000e4c:	dc001e04 	addi	r16,sp,120
 4000e50:	9806d0fa 	srli	r3,r19,3
 4000e54:	b008977a 	slli	r4,r22,29
 4000e58:	b02cd0fa 	srli	r22,r22,3
 4000e5c:	9cc001cc 	andi	r19,r19,7
 4000e60:	98800c04 	addi	r2,r19,48
 4000e64:	843fffc4 	addi	r16,r16,-1
 4000e68:	20e6b03a 	or	r19,r4,r3
 4000e6c:	80800005 	stb	r2,0(r16)
 4000e70:	9d86b03a 	or	r3,r19,r22
 4000e74:	183ff61e 	bne	r3,zero,4000e50 <__alt_mem_SRAM+0xfbfe0e50>
 4000e78:	90c0004c 	andi	r3,r18,1
 4000e7c:	18013b26 	beq	r3,zero,400136c <___vfprintf_internal_r+0xbdc>
 4000e80:	10803fcc 	andi	r2,r2,255
 4000e84:	1080201c 	xori	r2,r2,128
 4000e88:	10bfe004 	addi	r2,r2,-128
 4000e8c:	00c00c04 	movi	r3,48
 4000e90:	10c13626 	beq	r2,r3,400136c <___vfprintf_internal_r+0xbdc>
 4000e94:	80ffffc5 	stb	r3,-1(r16)
 4000e98:	d8c02817 	ldw	r3,160(sp)
 4000e9c:	80bfffc4 	addi	r2,r16,-1
 4000ea0:	1021883a 	mov	r16,r2
 4000ea4:	1887c83a 	sub	r3,r3,r2
 4000ea8:	d8c02e15 	stw	r3,184(sp)
 4000eac:	d8802e17 	ldw	r2,184(sp)
 4000eb0:	d9002917 	ldw	r4,164(sp)
 4000eb4:	1100010e 	bge	r2,r4,4000ebc <___vfprintf_internal_r+0x72c>
 4000eb8:	2005883a 	mov	r2,r4
 4000ebc:	d8802a15 	stw	r2,168(sp)
 4000ec0:	d8003215 	stw	zero,200(sp)
 4000ec4:	e7003fcc 	andi	fp,fp,255
 4000ec8:	e700201c 	xori	fp,fp,128
 4000ecc:	e73fe004 	addi	fp,fp,-128
 4000ed0:	e0000326 	beq	fp,zero,4000ee0 <___vfprintf_internal_r+0x750>
 4000ed4:	d8c02a17 	ldw	r3,168(sp)
 4000ed8:	18c00044 	addi	r3,r3,1
 4000edc:	d8c02a15 	stw	r3,168(sp)
 4000ee0:	90c0008c 	andi	r3,r18,2
 4000ee4:	d8c02b15 	stw	r3,172(sp)
 4000ee8:	18000326 	beq	r3,zero,4000ef8 <___vfprintf_internal_r+0x768>
 4000eec:	d8c02a17 	ldw	r3,168(sp)
 4000ef0:	18c00084 	addi	r3,r3,2
 4000ef4:	d8c02a15 	stw	r3,168(sp)
 4000ef8:	90c0210c 	andi	r3,r18,132
 4000efc:	d8c03015 	stw	r3,192(sp)
 4000f00:	1801a31e 	bne	r3,zero,4001590 <___vfprintf_internal_r+0xe00>
 4000f04:	d9003117 	ldw	r4,196(sp)
 4000f08:	d8c02a17 	ldw	r3,168(sp)
 4000f0c:	20e7c83a 	sub	r19,r4,r3
 4000f10:	04c19f0e 	bge	zero,r19,4001590 <___vfprintf_internal_r+0xe00>
 4000f14:	02400404 	movi	r9,16
 4000f18:	d8c02017 	ldw	r3,128(sp)
 4000f1c:	d8801f17 	ldw	r2,124(sp)
 4000f20:	4cc50d0e 	bge	r9,r19,4002358 <___vfprintf_internal_r+0x1bc8>
 4000f24:	01410074 	movhi	r5,1025
 4000f28:	2942f784 	addi	r5,r5,3038
 4000f2c:	dc403b15 	stw	r17,236(sp)
 4000f30:	d9403515 	stw	r5,212(sp)
 4000f34:	9823883a 	mov	r17,r19
 4000f38:	482d883a 	mov	r22,r9
 4000f3c:	9027883a 	mov	r19,r18
 4000f40:	070001c4 	movi	fp,7
 4000f44:	8025883a 	mov	r18,r16
 4000f48:	dc002c17 	ldw	r16,176(sp)
 4000f4c:	00000306 	br	4000f5c <___vfprintf_internal_r+0x7cc>
 4000f50:	8c7ffc04 	addi	r17,r17,-16
 4000f54:	42000204 	addi	r8,r8,8
 4000f58:	b440130e 	bge	r22,r17,4000fa8 <___vfprintf_internal_r+0x818>
 4000f5c:	01010074 	movhi	r4,1025
 4000f60:	18c00404 	addi	r3,r3,16
 4000f64:	10800044 	addi	r2,r2,1
 4000f68:	2102f784 	addi	r4,r4,3038
 4000f6c:	41000015 	stw	r4,0(r8)
 4000f70:	45800115 	stw	r22,4(r8)
 4000f74:	d8c02015 	stw	r3,128(sp)
 4000f78:	d8801f15 	stw	r2,124(sp)
 4000f7c:	e0bff40e 	bge	fp,r2,4000f50 <__alt_mem_SRAM+0xfbfe0f50>
 4000f80:	d9801e04 	addi	r6,sp,120
 4000f84:	b80b883a 	mov	r5,r23
 4000f88:	8009883a 	mov	r4,r16
 4000f8c:	4007d8c0 	call	4007d8c <__sprint_r>
 4000f90:	103f011e 	bne	r2,zero,4000b98 <__alt_mem_SRAM+0xfbfe0b98>
 4000f94:	8c7ffc04 	addi	r17,r17,-16
 4000f98:	d8c02017 	ldw	r3,128(sp)
 4000f9c:	d8801f17 	ldw	r2,124(sp)
 4000fa0:	da000404 	addi	r8,sp,16
 4000fa4:	b47fed16 	blt	r22,r17,4000f5c <__alt_mem_SRAM+0xfbfe0f5c>
 4000fa8:	9021883a 	mov	r16,r18
 4000fac:	9825883a 	mov	r18,r19
 4000fb0:	8827883a 	mov	r19,r17
 4000fb4:	dc403b17 	ldw	r17,236(sp)
 4000fb8:	d9403517 	ldw	r5,212(sp)
 4000fbc:	98c7883a 	add	r3,r19,r3
 4000fc0:	10800044 	addi	r2,r2,1
 4000fc4:	41400015 	stw	r5,0(r8)
 4000fc8:	44c00115 	stw	r19,4(r8)
 4000fcc:	d8c02015 	stw	r3,128(sp)
 4000fd0:	d8801f15 	stw	r2,124(sp)
 4000fd4:	010001c4 	movi	r4,7
 4000fd8:	2082a316 	blt	r4,r2,4001a68 <___vfprintf_internal_r+0x12d8>
 4000fdc:	df002787 	ldb	fp,158(sp)
 4000fe0:	42000204 	addi	r8,r8,8
 4000fe4:	e0000c26 	beq	fp,zero,4001018 <___vfprintf_internal_r+0x888>
 4000fe8:	d8801f17 	ldw	r2,124(sp)
 4000fec:	d9002784 	addi	r4,sp,158
 4000ff0:	18c00044 	addi	r3,r3,1
 4000ff4:	10800044 	addi	r2,r2,1
 4000ff8:	41000015 	stw	r4,0(r8)
 4000ffc:	01000044 	movi	r4,1
 4001000:	41000115 	stw	r4,4(r8)
 4001004:	d8c02015 	stw	r3,128(sp)
 4001008:	d8801f15 	stw	r2,124(sp)
 400100c:	010001c4 	movi	r4,7
 4001010:	20823c16 	blt	r4,r2,4001904 <___vfprintf_internal_r+0x1174>
 4001014:	42000204 	addi	r8,r8,8
 4001018:	d8802b17 	ldw	r2,172(sp)
 400101c:	10000c26 	beq	r2,zero,4001050 <___vfprintf_internal_r+0x8c0>
 4001020:	d8801f17 	ldw	r2,124(sp)
 4001024:	d9002704 	addi	r4,sp,156
 4001028:	18c00084 	addi	r3,r3,2
 400102c:	10800044 	addi	r2,r2,1
 4001030:	41000015 	stw	r4,0(r8)
 4001034:	01000084 	movi	r4,2
 4001038:	41000115 	stw	r4,4(r8)
 400103c:	d8c02015 	stw	r3,128(sp)
 4001040:	d8801f15 	stw	r2,124(sp)
 4001044:	010001c4 	movi	r4,7
 4001048:	20823616 	blt	r4,r2,4001924 <___vfprintf_internal_r+0x1194>
 400104c:	42000204 	addi	r8,r8,8
 4001050:	d9003017 	ldw	r4,192(sp)
 4001054:	00802004 	movi	r2,128
 4001058:	20819926 	beq	r4,r2,40016c0 <___vfprintf_internal_r+0xf30>
 400105c:	d9402917 	ldw	r5,164(sp)
 4001060:	d8802e17 	ldw	r2,184(sp)
 4001064:	28adc83a 	sub	r22,r5,r2
 4001068:	0580310e 	bge	zero,r22,4001130 <___vfprintf_internal_r+0x9a0>
 400106c:	07000404 	movi	fp,16
 4001070:	d8801f17 	ldw	r2,124(sp)
 4001074:	e584140e 	bge	fp,r22,40020c8 <___vfprintf_internal_r+0x1938>
 4001078:	01410074 	movhi	r5,1025
 400107c:	2942f384 	addi	r5,r5,3022
 4001080:	dc402915 	stw	r17,164(sp)
 4001084:	d9402b15 	stw	r5,172(sp)
 4001088:	b023883a 	mov	r17,r22
 400108c:	04c001c4 	movi	r19,7
 4001090:	a82d883a 	mov	r22,r21
 4001094:	902b883a 	mov	r21,r18
 4001098:	8025883a 	mov	r18,r16
 400109c:	dc002c17 	ldw	r16,176(sp)
 40010a0:	00000306 	br	40010b0 <___vfprintf_internal_r+0x920>
 40010a4:	8c7ffc04 	addi	r17,r17,-16
 40010a8:	42000204 	addi	r8,r8,8
 40010ac:	e440110e 	bge	fp,r17,40010f4 <___vfprintf_internal_r+0x964>
 40010b0:	18c00404 	addi	r3,r3,16
 40010b4:	10800044 	addi	r2,r2,1
 40010b8:	45000015 	stw	r20,0(r8)
 40010bc:	47000115 	stw	fp,4(r8)
 40010c0:	d8c02015 	stw	r3,128(sp)
 40010c4:	d8801f15 	stw	r2,124(sp)
 40010c8:	98bff60e 	bge	r19,r2,40010a4 <__alt_mem_SRAM+0xfbfe10a4>
 40010cc:	d9801e04 	addi	r6,sp,120
 40010d0:	b80b883a 	mov	r5,r23
 40010d4:	8009883a 	mov	r4,r16
 40010d8:	4007d8c0 	call	4007d8c <__sprint_r>
 40010dc:	103eae1e 	bne	r2,zero,4000b98 <__alt_mem_SRAM+0xfbfe0b98>
 40010e0:	8c7ffc04 	addi	r17,r17,-16
 40010e4:	d8c02017 	ldw	r3,128(sp)
 40010e8:	d8801f17 	ldw	r2,124(sp)
 40010ec:	da000404 	addi	r8,sp,16
 40010f0:	e47fef16 	blt	fp,r17,40010b0 <__alt_mem_SRAM+0xfbfe10b0>
 40010f4:	9021883a 	mov	r16,r18
 40010f8:	a825883a 	mov	r18,r21
 40010fc:	b02b883a 	mov	r21,r22
 4001100:	882d883a 	mov	r22,r17
 4001104:	dc402917 	ldw	r17,164(sp)
 4001108:	d9002b17 	ldw	r4,172(sp)
 400110c:	1d87883a 	add	r3,r3,r22
 4001110:	10800044 	addi	r2,r2,1
 4001114:	41000015 	stw	r4,0(r8)
 4001118:	45800115 	stw	r22,4(r8)
 400111c:	d8c02015 	stw	r3,128(sp)
 4001120:	d8801f15 	stw	r2,124(sp)
 4001124:	010001c4 	movi	r4,7
 4001128:	2081ee16 	blt	r4,r2,40018e4 <___vfprintf_internal_r+0x1154>
 400112c:	42000204 	addi	r8,r8,8
 4001130:	9080400c 	andi	r2,r18,256
 4001134:	1001181e 	bne	r2,zero,4001598 <___vfprintf_internal_r+0xe08>
 4001138:	d9402e17 	ldw	r5,184(sp)
 400113c:	d8801f17 	ldw	r2,124(sp)
 4001140:	44000015 	stw	r16,0(r8)
 4001144:	1947883a 	add	r3,r3,r5
 4001148:	10800044 	addi	r2,r2,1
 400114c:	41400115 	stw	r5,4(r8)
 4001150:	d8c02015 	stw	r3,128(sp)
 4001154:	d8801f15 	stw	r2,124(sp)
 4001158:	010001c4 	movi	r4,7
 400115c:	2081d316 	blt	r4,r2,40018ac <___vfprintf_internal_r+0x111c>
 4001160:	42000204 	addi	r8,r8,8
 4001164:	9480010c 	andi	r18,r18,4
 4001168:	90003226 	beq	r18,zero,4001234 <___vfprintf_internal_r+0xaa4>
 400116c:	d9403117 	ldw	r5,196(sp)
 4001170:	d8802a17 	ldw	r2,168(sp)
 4001174:	28a1c83a 	sub	r16,r5,r2
 4001178:	04002e0e 	bge	zero,r16,4001234 <___vfprintf_internal_r+0xaa4>
 400117c:	04400404 	movi	r17,16
 4001180:	d8801f17 	ldw	r2,124(sp)
 4001184:	8c04a20e 	bge	r17,r16,4002410 <___vfprintf_internal_r+0x1c80>
 4001188:	01410074 	movhi	r5,1025
 400118c:	2942f784 	addi	r5,r5,3038
 4001190:	d9403515 	stw	r5,212(sp)
 4001194:	048001c4 	movi	r18,7
 4001198:	dcc02c17 	ldw	r19,176(sp)
 400119c:	00000306 	br	40011ac <___vfprintf_internal_r+0xa1c>
 40011a0:	843ffc04 	addi	r16,r16,-16
 40011a4:	42000204 	addi	r8,r8,8
 40011a8:	8c00130e 	bge	r17,r16,40011f8 <___vfprintf_internal_r+0xa68>
 40011ac:	01010074 	movhi	r4,1025
 40011b0:	18c00404 	addi	r3,r3,16
 40011b4:	10800044 	addi	r2,r2,1
 40011b8:	2102f784 	addi	r4,r4,3038
 40011bc:	41000015 	stw	r4,0(r8)
 40011c0:	44400115 	stw	r17,4(r8)
 40011c4:	d8c02015 	stw	r3,128(sp)
 40011c8:	d8801f15 	stw	r2,124(sp)
 40011cc:	90bff40e 	bge	r18,r2,40011a0 <__alt_mem_SRAM+0xfbfe11a0>
 40011d0:	d9801e04 	addi	r6,sp,120
 40011d4:	b80b883a 	mov	r5,r23
 40011d8:	9809883a 	mov	r4,r19
 40011dc:	4007d8c0 	call	4007d8c <__sprint_r>
 40011e0:	103e6d1e 	bne	r2,zero,4000b98 <__alt_mem_SRAM+0xfbfe0b98>
 40011e4:	843ffc04 	addi	r16,r16,-16
 40011e8:	d8c02017 	ldw	r3,128(sp)
 40011ec:	d8801f17 	ldw	r2,124(sp)
 40011f0:	da000404 	addi	r8,sp,16
 40011f4:	8c3fed16 	blt	r17,r16,40011ac <__alt_mem_SRAM+0xfbfe11ac>
 40011f8:	d9403517 	ldw	r5,212(sp)
 40011fc:	1c07883a 	add	r3,r3,r16
 4001200:	10800044 	addi	r2,r2,1
 4001204:	41400015 	stw	r5,0(r8)
 4001208:	44000115 	stw	r16,4(r8)
 400120c:	d8c02015 	stw	r3,128(sp)
 4001210:	d8801f15 	stw	r2,124(sp)
 4001214:	010001c4 	movi	r4,7
 4001218:	2080060e 	bge	r4,r2,4001234 <___vfprintf_internal_r+0xaa4>
 400121c:	d9002c17 	ldw	r4,176(sp)
 4001220:	d9801e04 	addi	r6,sp,120
 4001224:	b80b883a 	mov	r5,r23
 4001228:	4007d8c0 	call	4007d8c <__sprint_r>
 400122c:	103e5a1e 	bne	r2,zero,4000b98 <__alt_mem_SRAM+0xfbfe0b98>
 4001230:	d8c02017 	ldw	r3,128(sp)
 4001234:	d8803117 	ldw	r2,196(sp)
 4001238:	d9002a17 	ldw	r4,168(sp)
 400123c:	1100010e 	bge	r2,r4,4001244 <___vfprintf_internal_r+0xab4>
 4001240:	2005883a 	mov	r2,r4
 4001244:	d9402f17 	ldw	r5,188(sp)
 4001248:	288b883a 	add	r5,r5,r2
 400124c:	d9402f15 	stw	r5,188(sp)
 4001250:	18019e1e 	bne	r3,zero,40018cc <___vfprintf_internal_r+0x113c>
 4001254:	a8800007 	ldb	r2,0(r21)
 4001258:	d8001f15 	stw	zero,124(sp)
 400125c:	da000404 	addi	r8,sp,16
 4001260:	103d851e 	bne	r2,zero,4000878 <__alt_mem_SRAM+0xfbfe0878>
 4001264:	a821883a 	mov	r16,r21
 4001268:	003d9b06 	br	40008d8 <__alt_mem_SRAM+0xfbfe08d8>
 400126c:	18c03fcc 	andi	r3,r3,255
 4001270:	1805c11e 	bne	r3,zero,4002978 <___vfprintf_internal_r+0x21e8>
 4001274:	94800414 	ori	r18,r18,16
 4001278:	9080080c 	andi	r2,r18,32
 400127c:	10020c26 	beq	r2,zero,4001ab0 <___vfprintf_internal_r+0x1320>
 4001280:	d8802d17 	ldw	r2,180(sp)
 4001284:	d9002917 	ldw	r4,164(sp)
 4001288:	d8002785 	stb	zero,158(sp)
 400128c:	10c00204 	addi	r3,r2,8
 4001290:	14c00017 	ldw	r19,0(r2)
 4001294:	15800117 	ldw	r22,4(r2)
 4001298:	20040f16 	blt	r4,zero,40022d8 <___vfprintf_internal_r+0x1b48>
 400129c:	013fdfc4 	movi	r4,-129
 40012a0:	9d84b03a 	or	r2,r19,r22
 40012a4:	d8c02d15 	stw	r3,180(sp)
 40012a8:	9124703a 	and	r18,r18,r4
 40012ac:	0039883a 	mov	fp,zero
 40012b0:	103e891e 	bne	r2,zero,4000cd8 <__alt_mem_SRAM+0xfbfe0cd8>
 40012b4:	d9002917 	ldw	r4,164(sp)
 40012b8:	2002c11e 	bne	r4,zero,4001dc0 <___vfprintf_internal_r+0x1630>
 40012bc:	d8002915 	stw	zero,164(sp)
 40012c0:	d8002e15 	stw	zero,184(sp)
 40012c4:	dc001e04 	addi	r16,sp,120
 40012c8:	003ef806 	br	4000eac <__alt_mem_SRAM+0xfbfe0eac>
 40012cc:	18c03fcc 	andi	r3,r3,255
 40012d0:	18059d1e 	bne	r3,zero,4002948 <___vfprintf_internal_r+0x21b8>
 40012d4:	01410074 	movhi	r5,1025
 40012d8:	2942e704 	addi	r5,r5,2972
 40012dc:	d9403915 	stw	r5,228(sp)
 40012e0:	9080080c 	andi	r2,r18,32
 40012e4:	10005226 	beq	r2,zero,4001430 <___vfprintf_internal_r+0xca0>
 40012e8:	d8802d17 	ldw	r2,180(sp)
 40012ec:	14c00017 	ldw	r19,0(r2)
 40012f0:	15800117 	ldw	r22,4(r2)
 40012f4:	10800204 	addi	r2,r2,8
 40012f8:	d8802d15 	stw	r2,180(sp)
 40012fc:	9080004c 	andi	r2,r18,1
 4001300:	10019026 	beq	r2,zero,4001944 <___vfprintf_internal_r+0x11b4>
 4001304:	9d84b03a 	or	r2,r19,r22
 4001308:	10036926 	beq	r2,zero,40020b0 <___vfprintf_internal_r+0x1920>
 400130c:	d8c02917 	ldw	r3,164(sp)
 4001310:	00800c04 	movi	r2,48
 4001314:	d8802705 	stb	r2,156(sp)
 4001318:	dc402745 	stb	r17,157(sp)
 400131c:	d8002785 	stb	zero,158(sp)
 4001320:	90800094 	ori	r2,r18,2
 4001324:	18045d16 	blt	r3,zero,400249c <___vfprintf_internal_r+0x1d0c>
 4001328:	00bfdfc4 	movi	r2,-129
 400132c:	90a4703a 	and	r18,r18,r2
 4001330:	94800094 	ori	r18,r18,2
 4001334:	0039883a 	mov	fp,zero
 4001338:	d9003917 	ldw	r4,228(sp)
 400133c:	dc001e04 	addi	r16,sp,120
 4001340:	988003cc 	andi	r2,r19,15
 4001344:	b006973a 	slli	r3,r22,28
 4001348:	2085883a 	add	r2,r4,r2
 400134c:	9826d13a 	srli	r19,r19,4
 4001350:	10800003 	ldbu	r2,0(r2)
 4001354:	b02cd13a 	srli	r22,r22,4
 4001358:	843fffc4 	addi	r16,r16,-1
 400135c:	1ce6b03a 	or	r19,r3,r19
 4001360:	80800005 	stb	r2,0(r16)
 4001364:	9d84b03a 	or	r2,r19,r22
 4001368:	103ff51e 	bne	r2,zero,4001340 <__alt_mem_SRAM+0xfbfe1340>
 400136c:	d8c02817 	ldw	r3,160(sp)
 4001370:	1c07c83a 	sub	r3,r3,r16
 4001374:	d8c02e15 	stw	r3,184(sp)
 4001378:	003ecc06 	br	4000eac <__alt_mem_SRAM+0xfbfe0eac>
 400137c:	18c03fcc 	andi	r3,r3,255
 4001380:	183e9f26 	beq	r3,zero,4000e00 <__alt_mem_SRAM+0xfbfe0e00>
 4001384:	d9c02785 	stb	r7,158(sp)
 4001388:	003e9d06 	br	4000e00 <__alt_mem_SRAM+0xfbfe0e00>
 400138c:	00c00044 	movi	r3,1
 4001390:	01c00ac4 	movi	r7,43
 4001394:	ac400007 	ldb	r17,0(r21)
 4001398:	003d5e06 	br	4000914 <__alt_mem_SRAM+0xfbfe0914>
 400139c:	94800814 	ori	r18,r18,32
 40013a0:	ac400007 	ldb	r17,0(r21)
 40013a4:	003d5b06 	br	4000914 <__alt_mem_SRAM+0xfbfe0914>
 40013a8:	d8c02d17 	ldw	r3,180(sp)
 40013ac:	d8002785 	stb	zero,158(sp)
 40013b0:	1c000017 	ldw	r16,0(r3)
 40013b4:	1cc00104 	addi	r19,r3,4
 40013b8:	80041926 	beq	r16,zero,4002420 <___vfprintf_internal_r+0x1c90>
 40013bc:	d9002917 	ldw	r4,164(sp)
 40013c0:	2003d016 	blt	r4,zero,4002304 <___vfprintf_internal_r+0x1b74>
 40013c4:	200d883a 	mov	r6,r4
 40013c8:	000b883a 	mov	r5,zero
 40013cc:	8009883a 	mov	r4,r16
 40013d0:	da003d15 	stw	r8,244(sp)
 40013d4:	4005fa00 	call	4005fa0 <memchr>
 40013d8:	da003d17 	ldw	r8,244(sp)
 40013dc:	10045426 	beq	r2,zero,4002530 <___vfprintf_internal_r+0x1da0>
 40013e0:	1405c83a 	sub	r2,r2,r16
 40013e4:	d8802e15 	stw	r2,184(sp)
 40013e8:	1003cc16 	blt	r2,zero,400231c <___vfprintf_internal_r+0x1b8c>
 40013ec:	df002783 	ldbu	fp,158(sp)
 40013f0:	d8802a15 	stw	r2,168(sp)
 40013f4:	dcc02d15 	stw	r19,180(sp)
 40013f8:	d8002915 	stw	zero,164(sp)
 40013fc:	d8003215 	stw	zero,200(sp)
 4001400:	003eb006 	br	4000ec4 <__alt_mem_SRAM+0xfbfe0ec4>
 4001404:	18c03fcc 	andi	r3,r3,255
 4001408:	183f9b26 	beq	r3,zero,4001278 <__alt_mem_SRAM+0xfbfe1278>
 400140c:	d9c02785 	stb	r7,158(sp)
 4001410:	003f9906 	br	4001278 <__alt_mem_SRAM+0xfbfe1278>
 4001414:	18c03fcc 	andi	r3,r3,255
 4001418:	1805551e 	bne	r3,zero,4002970 <___vfprintf_internal_r+0x21e0>
 400141c:	01410074 	movhi	r5,1025
 4001420:	2942ec04 	addi	r5,r5,2992
 4001424:	d9403915 	stw	r5,228(sp)
 4001428:	9080080c 	andi	r2,r18,32
 400142c:	103fae1e 	bne	r2,zero,40012e8 <__alt_mem_SRAM+0xfbfe12e8>
 4001430:	9080040c 	andi	r2,r18,16
 4001434:	1002de26 	beq	r2,zero,4001fb0 <___vfprintf_internal_r+0x1820>
 4001438:	d8c02d17 	ldw	r3,180(sp)
 400143c:	002d883a 	mov	r22,zero
 4001440:	1cc00017 	ldw	r19,0(r3)
 4001444:	18c00104 	addi	r3,r3,4
 4001448:	d8c02d15 	stw	r3,180(sp)
 400144c:	003fab06 	br	40012fc <__alt_mem_SRAM+0xfbfe12fc>
 4001450:	38803fcc 	andi	r2,r7,255
 4001454:	1080201c 	xori	r2,r2,128
 4001458:	10bfe004 	addi	r2,r2,-128
 400145c:	1002d21e 	bne	r2,zero,4001fa8 <___vfprintf_internal_r+0x1818>
 4001460:	00c00044 	movi	r3,1
 4001464:	01c00804 	movi	r7,32
 4001468:	ac400007 	ldb	r17,0(r21)
 400146c:	003d2906 	br	4000914 <__alt_mem_SRAM+0xfbfe0914>
 4001470:	94800054 	ori	r18,r18,1
 4001474:	ac400007 	ldb	r17,0(r21)
 4001478:	003d2606 	br	4000914 <__alt_mem_SRAM+0xfbfe0914>
 400147c:	18c03fcc 	andi	r3,r3,255
 4001480:	183e0526 	beq	r3,zero,4000c98 <__alt_mem_SRAM+0xfbfe0c98>
 4001484:	d9c02785 	stb	r7,158(sp)
 4001488:	003e0306 	br	4000c98 <__alt_mem_SRAM+0xfbfe0c98>
 400148c:	94801014 	ori	r18,r18,64
 4001490:	ac400007 	ldb	r17,0(r21)
 4001494:	003d1f06 	br	4000914 <__alt_mem_SRAM+0xfbfe0914>
 4001498:	ac400007 	ldb	r17,0(r21)
 400149c:	8a438726 	beq	r17,r9,40022bc <___vfprintf_internal_r+0x1b2c>
 40014a0:	94800414 	ori	r18,r18,16
 40014a4:	003d1b06 	br	4000914 <__alt_mem_SRAM+0xfbfe0914>
 40014a8:	18c03fcc 	andi	r3,r3,255
 40014ac:	1805341e 	bne	r3,zero,4002980 <___vfprintf_internal_r+0x21f0>
 40014b0:	9080080c 	andi	r2,r18,32
 40014b4:	1002cd26 	beq	r2,zero,4001fec <___vfprintf_internal_r+0x185c>
 40014b8:	d9402d17 	ldw	r5,180(sp)
 40014bc:	d9002f17 	ldw	r4,188(sp)
 40014c0:	28800017 	ldw	r2,0(r5)
 40014c4:	2007d7fa 	srai	r3,r4,31
 40014c8:	29400104 	addi	r5,r5,4
 40014cc:	d9402d15 	stw	r5,180(sp)
 40014d0:	11000015 	stw	r4,0(r2)
 40014d4:	10c00115 	stw	r3,4(r2)
 40014d8:	003ce506 	br	4000870 <__alt_mem_SRAM+0xfbfe0870>
 40014dc:	d8c02d17 	ldw	r3,180(sp)
 40014e0:	d9002d17 	ldw	r4,180(sp)
 40014e4:	d8002785 	stb	zero,158(sp)
 40014e8:	18800017 	ldw	r2,0(r3)
 40014ec:	21000104 	addi	r4,r4,4
 40014f0:	00c00044 	movi	r3,1
 40014f4:	d8c02a15 	stw	r3,168(sp)
 40014f8:	d8801405 	stb	r2,80(sp)
 40014fc:	d9002d15 	stw	r4,180(sp)
 4001500:	d8c02e15 	stw	r3,184(sp)
 4001504:	d8002915 	stw	zero,164(sp)
 4001508:	d8003215 	stw	zero,200(sp)
 400150c:	dc001404 	addi	r16,sp,80
 4001510:	0039883a 	mov	fp,zero
 4001514:	003e7206 	br	4000ee0 <__alt_mem_SRAM+0xfbfe0ee0>
 4001518:	01010074 	movhi	r4,1025
 400151c:	2102ec04 	addi	r4,r4,2992
 4001520:	0039883a 	mov	fp,zero
 4001524:	d9003915 	stw	r4,228(sp)
 4001528:	04401e04 	movi	r17,120
 400152c:	003f8206 	br	4001338 <__alt_mem_SRAM+0xfbfe1338>
 4001530:	18c03fcc 	andi	r3,r3,255
 4001534:	1805061e 	bne	r3,zero,4002950 <___vfprintf_internal_r+0x21c0>
 4001538:	883d9126 	beq	r17,zero,4000b80 <__alt_mem_SRAM+0xfbfe0b80>
 400153c:	00c00044 	movi	r3,1
 4001540:	d8c02a15 	stw	r3,168(sp)
 4001544:	dc401405 	stb	r17,80(sp)
 4001548:	d8002785 	stb	zero,158(sp)
 400154c:	003fec06 	br	4001500 <__alt_mem_SRAM+0xfbfe1500>
 4001550:	01410074 	movhi	r5,1025
 4001554:	2942ec04 	addi	r5,r5,2992
 4001558:	d9403915 	stw	r5,228(sp)
 400155c:	d8c02d15 	stw	r3,180(sp)
 4001560:	1025883a 	mov	r18,r2
 4001564:	04401e04 	movi	r17,120
 4001568:	9d84b03a 	or	r2,r19,r22
 400156c:	1000fc1e 	bne	r2,zero,4001960 <___vfprintf_internal_r+0x11d0>
 4001570:	0039883a 	mov	fp,zero
 4001574:	00800084 	movi	r2,2
 4001578:	10803fcc 	andi	r2,r2,255
 400157c:	00c00044 	movi	r3,1
 4001580:	10c20f26 	beq	r2,r3,4001dc0 <___vfprintf_internal_r+0x1630>
 4001584:	00c00084 	movi	r3,2
 4001588:	10fd6326 	beq	r2,r3,4000b18 <__alt_mem_SRAM+0xfbfe0b18>
 400158c:	003e2d06 	br	4000e44 <__alt_mem_SRAM+0xfbfe0e44>
 4001590:	d8c02017 	ldw	r3,128(sp)
 4001594:	003e9306 	br	4000fe4 <__alt_mem_SRAM+0xfbfe0fe4>
 4001598:	00801944 	movi	r2,101
 400159c:	14407e0e 	bge	r2,r17,4001798 <___vfprintf_internal_r+0x1008>
 40015a0:	d9003617 	ldw	r4,216(sp)
 40015a4:	d9403817 	ldw	r5,224(sp)
 40015a8:	000d883a 	mov	r6,zero
 40015ac:	000f883a 	mov	r7,zero
 40015b0:	d8c03c15 	stw	r3,240(sp)
 40015b4:	da003d15 	stw	r8,244(sp)
 40015b8:	400ba040 	call	400ba04 <__eqdf2>
 40015bc:	d8c03c17 	ldw	r3,240(sp)
 40015c0:	da003d17 	ldw	r8,244(sp)
 40015c4:	1000f71e 	bne	r2,zero,40019a4 <___vfprintf_internal_r+0x1214>
 40015c8:	d8801f17 	ldw	r2,124(sp)
 40015cc:	01010074 	movhi	r4,1025
 40015d0:	2102f304 	addi	r4,r4,3020
 40015d4:	18c00044 	addi	r3,r3,1
 40015d8:	10800044 	addi	r2,r2,1
 40015dc:	41000015 	stw	r4,0(r8)
 40015e0:	01000044 	movi	r4,1
 40015e4:	41000115 	stw	r4,4(r8)
 40015e8:	d8c02015 	stw	r3,128(sp)
 40015ec:	d8801f15 	stw	r2,124(sp)
 40015f0:	010001c4 	movi	r4,7
 40015f4:	2082b816 	blt	r4,r2,40020d8 <___vfprintf_internal_r+0x1948>
 40015f8:	42000204 	addi	r8,r8,8
 40015fc:	d8802617 	ldw	r2,152(sp)
 4001600:	d9403317 	ldw	r5,204(sp)
 4001604:	11400216 	blt	r2,r5,4001610 <___vfprintf_internal_r+0xe80>
 4001608:	9080004c 	andi	r2,r18,1
 400160c:	103ed526 	beq	r2,zero,4001164 <__alt_mem_SRAM+0xfbfe1164>
 4001610:	d8803717 	ldw	r2,220(sp)
 4001614:	d9003417 	ldw	r4,208(sp)
 4001618:	d9403717 	ldw	r5,220(sp)
 400161c:	1887883a 	add	r3,r3,r2
 4001620:	d8801f17 	ldw	r2,124(sp)
 4001624:	41000015 	stw	r4,0(r8)
 4001628:	41400115 	stw	r5,4(r8)
 400162c:	10800044 	addi	r2,r2,1
 4001630:	d8c02015 	stw	r3,128(sp)
 4001634:	d8801f15 	stw	r2,124(sp)
 4001638:	010001c4 	movi	r4,7
 400163c:	20832916 	blt	r4,r2,40022e4 <___vfprintf_internal_r+0x1b54>
 4001640:	42000204 	addi	r8,r8,8
 4001644:	d8803317 	ldw	r2,204(sp)
 4001648:	143fffc4 	addi	r16,r2,-1
 400164c:	043ec50e 	bge	zero,r16,4001164 <__alt_mem_SRAM+0xfbfe1164>
 4001650:	04400404 	movi	r17,16
 4001654:	d8801f17 	ldw	r2,124(sp)
 4001658:	8c00880e 	bge	r17,r16,400187c <___vfprintf_internal_r+0x10ec>
 400165c:	01410074 	movhi	r5,1025
 4001660:	2942f384 	addi	r5,r5,3022
 4001664:	d9402b15 	stw	r5,172(sp)
 4001668:	058001c4 	movi	r22,7
 400166c:	dcc02c17 	ldw	r19,176(sp)
 4001670:	00000306 	br	4001680 <___vfprintf_internal_r+0xef0>
 4001674:	42000204 	addi	r8,r8,8
 4001678:	843ffc04 	addi	r16,r16,-16
 400167c:	8c00820e 	bge	r17,r16,4001888 <___vfprintf_internal_r+0x10f8>
 4001680:	18c00404 	addi	r3,r3,16
 4001684:	10800044 	addi	r2,r2,1
 4001688:	45000015 	stw	r20,0(r8)
 400168c:	44400115 	stw	r17,4(r8)
 4001690:	d8c02015 	stw	r3,128(sp)
 4001694:	d8801f15 	stw	r2,124(sp)
 4001698:	b0bff60e 	bge	r22,r2,4001674 <__alt_mem_SRAM+0xfbfe1674>
 400169c:	d9801e04 	addi	r6,sp,120
 40016a0:	b80b883a 	mov	r5,r23
 40016a4:	9809883a 	mov	r4,r19
 40016a8:	4007d8c0 	call	4007d8c <__sprint_r>
 40016ac:	103d3a1e 	bne	r2,zero,4000b98 <__alt_mem_SRAM+0xfbfe0b98>
 40016b0:	d8c02017 	ldw	r3,128(sp)
 40016b4:	d8801f17 	ldw	r2,124(sp)
 40016b8:	da000404 	addi	r8,sp,16
 40016bc:	003fee06 	br	4001678 <__alt_mem_SRAM+0xfbfe1678>
 40016c0:	d9403117 	ldw	r5,196(sp)
 40016c4:	d8802a17 	ldw	r2,168(sp)
 40016c8:	28adc83a 	sub	r22,r5,r2
 40016cc:	05be630e 	bge	zero,r22,400105c <__alt_mem_SRAM+0xfbfe105c>
 40016d0:	07000404 	movi	fp,16
 40016d4:	d8801f17 	ldw	r2,124(sp)
 40016d8:	e5838f0e 	bge	fp,r22,4002518 <___vfprintf_internal_r+0x1d88>
 40016dc:	01410074 	movhi	r5,1025
 40016e0:	2942f384 	addi	r5,r5,3022
 40016e4:	dc403015 	stw	r17,192(sp)
 40016e8:	d9402b15 	stw	r5,172(sp)
 40016ec:	b023883a 	mov	r17,r22
 40016f0:	04c001c4 	movi	r19,7
 40016f4:	a82d883a 	mov	r22,r21
 40016f8:	902b883a 	mov	r21,r18
 40016fc:	8025883a 	mov	r18,r16
 4001700:	dc002c17 	ldw	r16,176(sp)
 4001704:	00000306 	br	4001714 <___vfprintf_internal_r+0xf84>
 4001708:	8c7ffc04 	addi	r17,r17,-16
 400170c:	42000204 	addi	r8,r8,8
 4001710:	e440110e 	bge	fp,r17,4001758 <___vfprintf_internal_r+0xfc8>
 4001714:	18c00404 	addi	r3,r3,16
 4001718:	10800044 	addi	r2,r2,1
 400171c:	45000015 	stw	r20,0(r8)
 4001720:	47000115 	stw	fp,4(r8)
 4001724:	d8c02015 	stw	r3,128(sp)
 4001728:	d8801f15 	stw	r2,124(sp)
 400172c:	98bff60e 	bge	r19,r2,4001708 <__alt_mem_SRAM+0xfbfe1708>
 4001730:	d9801e04 	addi	r6,sp,120
 4001734:	b80b883a 	mov	r5,r23
 4001738:	8009883a 	mov	r4,r16
 400173c:	4007d8c0 	call	4007d8c <__sprint_r>
 4001740:	103d151e 	bne	r2,zero,4000b98 <__alt_mem_SRAM+0xfbfe0b98>
 4001744:	8c7ffc04 	addi	r17,r17,-16
 4001748:	d8c02017 	ldw	r3,128(sp)
 400174c:	d8801f17 	ldw	r2,124(sp)
 4001750:	da000404 	addi	r8,sp,16
 4001754:	e47fef16 	blt	fp,r17,4001714 <__alt_mem_SRAM+0xfbfe1714>
 4001758:	9021883a 	mov	r16,r18
 400175c:	a825883a 	mov	r18,r21
 4001760:	b02b883a 	mov	r21,r22
 4001764:	882d883a 	mov	r22,r17
 4001768:	dc403017 	ldw	r17,192(sp)
 400176c:	d9002b17 	ldw	r4,172(sp)
 4001770:	1d87883a 	add	r3,r3,r22
 4001774:	10800044 	addi	r2,r2,1
 4001778:	41000015 	stw	r4,0(r8)
 400177c:	45800115 	stw	r22,4(r8)
 4001780:	d8c02015 	stw	r3,128(sp)
 4001784:	d8801f15 	stw	r2,124(sp)
 4001788:	010001c4 	movi	r4,7
 400178c:	20818e16 	blt	r4,r2,4001dc8 <___vfprintf_internal_r+0x1638>
 4001790:	42000204 	addi	r8,r8,8
 4001794:	003e3106 	br	400105c <__alt_mem_SRAM+0xfbfe105c>
 4001798:	d9403317 	ldw	r5,204(sp)
 400179c:	00800044 	movi	r2,1
 40017a0:	18c00044 	addi	r3,r3,1
 40017a4:	1141530e 	bge	r2,r5,4001cf4 <___vfprintf_internal_r+0x1564>
 40017a8:	dc401f17 	ldw	r17,124(sp)
 40017ac:	00800044 	movi	r2,1
 40017b0:	40800115 	stw	r2,4(r8)
 40017b4:	8c400044 	addi	r17,r17,1
 40017b8:	44000015 	stw	r16,0(r8)
 40017bc:	d8c02015 	stw	r3,128(sp)
 40017c0:	dc401f15 	stw	r17,124(sp)
 40017c4:	008001c4 	movi	r2,7
 40017c8:	14416b16 	blt	r2,r17,4001d78 <___vfprintf_internal_r+0x15e8>
 40017cc:	42000204 	addi	r8,r8,8
 40017d0:	d8803717 	ldw	r2,220(sp)
 40017d4:	d9003417 	ldw	r4,208(sp)
 40017d8:	8c400044 	addi	r17,r17,1
 40017dc:	10c7883a 	add	r3,r2,r3
 40017e0:	40800115 	stw	r2,4(r8)
 40017e4:	41000015 	stw	r4,0(r8)
 40017e8:	d8c02015 	stw	r3,128(sp)
 40017ec:	dc401f15 	stw	r17,124(sp)
 40017f0:	008001c4 	movi	r2,7
 40017f4:	14416916 	blt	r2,r17,4001d9c <___vfprintf_internal_r+0x160c>
 40017f8:	45800204 	addi	r22,r8,8
 40017fc:	d9003617 	ldw	r4,216(sp)
 4001800:	d9403817 	ldw	r5,224(sp)
 4001804:	000d883a 	mov	r6,zero
 4001808:	000f883a 	mov	r7,zero
 400180c:	d8c03c15 	stw	r3,240(sp)
 4001810:	400ba040 	call	400ba04 <__eqdf2>
 4001814:	d8c03c17 	ldw	r3,240(sp)
 4001818:	1000bc26 	beq	r2,zero,4001b0c <___vfprintf_internal_r+0x137c>
 400181c:	d9403317 	ldw	r5,204(sp)
 4001820:	84000044 	addi	r16,r16,1
 4001824:	8c400044 	addi	r17,r17,1
 4001828:	28bfffc4 	addi	r2,r5,-1
 400182c:	1887883a 	add	r3,r3,r2
 4001830:	b0800115 	stw	r2,4(r22)
 4001834:	b4000015 	stw	r16,0(r22)
 4001838:	d8c02015 	stw	r3,128(sp)
 400183c:	dc401f15 	stw	r17,124(sp)
 4001840:	008001c4 	movi	r2,7
 4001844:	14414316 	blt	r2,r17,4001d54 <___vfprintf_internal_r+0x15c4>
 4001848:	b5800204 	addi	r22,r22,8
 400184c:	d9003a17 	ldw	r4,232(sp)
 4001850:	df0022c4 	addi	fp,sp,139
 4001854:	8c400044 	addi	r17,r17,1
 4001858:	20c7883a 	add	r3,r4,r3
 400185c:	b7000015 	stw	fp,0(r22)
 4001860:	b1000115 	stw	r4,4(r22)
 4001864:	d8c02015 	stw	r3,128(sp)
 4001868:	dc401f15 	stw	r17,124(sp)
 400186c:	008001c4 	movi	r2,7
 4001870:	14400e16 	blt	r2,r17,40018ac <___vfprintf_internal_r+0x111c>
 4001874:	b2000204 	addi	r8,r22,8
 4001878:	003e3a06 	br	4001164 <__alt_mem_SRAM+0xfbfe1164>
 400187c:	01010074 	movhi	r4,1025
 4001880:	2102f384 	addi	r4,r4,3022
 4001884:	d9002b15 	stw	r4,172(sp)
 4001888:	d9002b17 	ldw	r4,172(sp)
 400188c:	1c07883a 	add	r3,r3,r16
 4001890:	44000115 	stw	r16,4(r8)
 4001894:	41000015 	stw	r4,0(r8)
 4001898:	10800044 	addi	r2,r2,1
 400189c:	d8c02015 	stw	r3,128(sp)
 40018a0:	d8801f15 	stw	r2,124(sp)
 40018a4:	010001c4 	movi	r4,7
 40018a8:	20be2d0e 	bge	r4,r2,4001160 <__alt_mem_SRAM+0xfbfe1160>
 40018ac:	d9002c17 	ldw	r4,176(sp)
 40018b0:	d9801e04 	addi	r6,sp,120
 40018b4:	b80b883a 	mov	r5,r23
 40018b8:	4007d8c0 	call	4007d8c <__sprint_r>
 40018bc:	103cb61e 	bne	r2,zero,4000b98 <__alt_mem_SRAM+0xfbfe0b98>
 40018c0:	d8c02017 	ldw	r3,128(sp)
 40018c4:	da000404 	addi	r8,sp,16
 40018c8:	003e2606 	br	4001164 <__alt_mem_SRAM+0xfbfe1164>
 40018cc:	d9002c17 	ldw	r4,176(sp)
 40018d0:	d9801e04 	addi	r6,sp,120
 40018d4:	b80b883a 	mov	r5,r23
 40018d8:	4007d8c0 	call	4007d8c <__sprint_r>
 40018dc:	103e5d26 	beq	r2,zero,4001254 <__alt_mem_SRAM+0xfbfe1254>
 40018e0:	003cad06 	br	4000b98 <__alt_mem_SRAM+0xfbfe0b98>
 40018e4:	d9002c17 	ldw	r4,176(sp)
 40018e8:	d9801e04 	addi	r6,sp,120
 40018ec:	b80b883a 	mov	r5,r23
 40018f0:	4007d8c0 	call	4007d8c <__sprint_r>
 40018f4:	103ca81e 	bne	r2,zero,4000b98 <__alt_mem_SRAM+0xfbfe0b98>
 40018f8:	d8c02017 	ldw	r3,128(sp)
 40018fc:	da000404 	addi	r8,sp,16
 4001900:	003e0b06 	br	4001130 <__alt_mem_SRAM+0xfbfe1130>
 4001904:	d9002c17 	ldw	r4,176(sp)
 4001908:	d9801e04 	addi	r6,sp,120
 400190c:	b80b883a 	mov	r5,r23
 4001910:	4007d8c0 	call	4007d8c <__sprint_r>
 4001914:	103ca01e 	bne	r2,zero,4000b98 <__alt_mem_SRAM+0xfbfe0b98>
 4001918:	d8c02017 	ldw	r3,128(sp)
 400191c:	da000404 	addi	r8,sp,16
 4001920:	003dbd06 	br	4001018 <__alt_mem_SRAM+0xfbfe1018>
 4001924:	d9002c17 	ldw	r4,176(sp)
 4001928:	d9801e04 	addi	r6,sp,120
 400192c:	b80b883a 	mov	r5,r23
 4001930:	4007d8c0 	call	4007d8c <__sprint_r>
 4001934:	103c981e 	bne	r2,zero,4000b98 <__alt_mem_SRAM+0xfbfe0b98>
 4001938:	d8c02017 	ldw	r3,128(sp)
 400193c:	da000404 	addi	r8,sp,16
 4001940:	003dc306 	br	4001050 <__alt_mem_SRAM+0xfbfe1050>
 4001944:	d8802917 	ldw	r2,164(sp)
 4001948:	d8002785 	stb	zero,158(sp)
 400194c:	103f0616 	blt	r2,zero,4001568 <__alt_mem_SRAM+0xfbfe1568>
 4001950:	00ffdfc4 	movi	r3,-129
 4001954:	9d84b03a 	or	r2,r19,r22
 4001958:	90e4703a 	and	r18,r18,r3
 400195c:	103c6b26 	beq	r2,zero,4000b0c <__alt_mem_SRAM+0xfbfe0b0c>
 4001960:	0039883a 	mov	fp,zero
 4001964:	003e7406 	br	4001338 <__alt_mem_SRAM+0xfbfe1338>
 4001968:	9080040c 	andi	r2,r18,16
 400196c:	1001b326 	beq	r2,zero,400203c <___vfprintf_internal_r+0x18ac>
 4001970:	d9002d17 	ldw	r4,180(sp)
 4001974:	d9402917 	ldw	r5,164(sp)
 4001978:	d8002785 	stb	zero,158(sp)
 400197c:	20800104 	addi	r2,r4,4
 4001980:	24c00017 	ldw	r19,0(r4)
 4001984:	002d883a 	mov	r22,zero
 4001988:	2801b516 	blt	r5,zero,4002060 <___vfprintf_internal_r+0x18d0>
 400198c:	00ffdfc4 	movi	r3,-129
 4001990:	d8802d15 	stw	r2,180(sp)
 4001994:	90e4703a 	and	r18,r18,r3
 4001998:	983d2726 	beq	r19,zero,4000e38 <__alt_mem_SRAM+0xfbfe0e38>
 400199c:	0039883a 	mov	fp,zero
 40019a0:	003d2a06 	br	4000e4c <__alt_mem_SRAM+0xfbfe0e4c>
 40019a4:	dc402617 	ldw	r17,152(sp)
 40019a8:	0441d30e 	bge	zero,r17,40020f8 <___vfprintf_internal_r+0x1968>
 40019ac:	dc403217 	ldw	r17,200(sp)
 40019b0:	d8803317 	ldw	r2,204(sp)
 40019b4:	1440010e 	bge	r2,r17,40019bc <___vfprintf_internal_r+0x122c>
 40019b8:	1023883a 	mov	r17,r2
 40019bc:	04400a0e 	bge	zero,r17,40019e8 <___vfprintf_internal_r+0x1258>
 40019c0:	d8801f17 	ldw	r2,124(sp)
 40019c4:	1c47883a 	add	r3,r3,r17
 40019c8:	44000015 	stw	r16,0(r8)
 40019cc:	10800044 	addi	r2,r2,1
 40019d0:	44400115 	stw	r17,4(r8)
 40019d4:	d8c02015 	stw	r3,128(sp)
 40019d8:	d8801f15 	stw	r2,124(sp)
 40019dc:	010001c4 	movi	r4,7
 40019e0:	20826516 	blt	r4,r2,4002378 <___vfprintf_internal_r+0x1be8>
 40019e4:	42000204 	addi	r8,r8,8
 40019e8:	88026116 	blt	r17,zero,4002370 <___vfprintf_internal_r+0x1be0>
 40019ec:	d9003217 	ldw	r4,200(sp)
 40019f0:	2463c83a 	sub	r17,r4,r17
 40019f4:	04407b0e 	bge	zero,r17,4001be4 <___vfprintf_internal_r+0x1454>
 40019f8:	05800404 	movi	r22,16
 40019fc:	d8801f17 	ldw	r2,124(sp)
 4001a00:	b4419d0e 	bge	r22,r17,4002078 <___vfprintf_internal_r+0x18e8>
 4001a04:	01010074 	movhi	r4,1025
 4001a08:	2102f384 	addi	r4,r4,3022
 4001a0c:	d9002b15 	stw	r4,172(sp)
 4001a10:	070001c4 	movi	fp,7
 4001a14:	dcc02c17 	ldw	r19,176(sp)
 4001a18:	00000306 	br	4001a28 <___vfprintf_internal_r+0x1298>
 4001a1c:	42000204 	addi	r8,r8,8
 4001a20:	8c7ffc04 	addi	r17,r17,-16
 4001a24:	b441970e 	bge	r22,r17,4002084 <___vfprintf_internal_r+0x18f4>
 4001a28:	18c00404 	addi	r3,r3,16
 4001a2c:	10800044 	addi	r2,r2,1
 4001a30:	45000015 	stw	r20,0(r8)
 4001a34:	45800115 	stw	r22,4(r8)
 4001a38:	d8c02015 	stw	r3,128(sp)
 4001a3c:	d8801f15 	stw	r2,124(sp)
 4001a40:	e0bff60e 	bge	fp,r2,4001a1c <__alt_mem_SRAM+0xfbfe1a1c>
 4001a44:	d9801e04 	addi	r6,sp,120
 4001a48:	b80b883a 	mov	r5,r23
 4001a4c:	9809883a 	mov	r4,r19
 4001a50:	4007d8c0 	call	4007d8c <__sprint_r>
 4001a54:	103c501e 	bne	r2,zero,4000b98 <__alt_mem_SRAM+0xfbfe0b98>
 4001a58:	d8c02017 	ldw	r3,128(sp)
 4001a5c:	d8801f17 	ldw	r2,124(sp)
 4001a60:	da000404 	addi	r8,sp,16
 4001a64:	003fee06 	br	4001a20 <__alt_mem_SRAM+0xfbfe1a20>
 4001a68:	d9002c17 	ldw	r4,176(sp)
 4001a6c:	d9801e04 	addi	r6,sp,120
 4001a70:	b80b883a 	mov	r5,r23
 4001a74:	4007d8c0 	call	4007d8c <__sprint_r>
 4001a78:	103c471e 	bne	r2,zero,4000b98 <__alt_mem_SRAM+0xfbfe0b98>
 4001a7c:	d8c02017 	ldw	r3,128(sp)
 4001a80:	df002787 	ldb	fp,158(sp)
 4001a84:	da000404 	addi	r8,sp,16
 4001a88:	003d5606 	br	4000fe4 <__alt_mem_SRAM+0xfbfe0fe4>
 4001a8c:	9080040c 	andi	r2,r18,16
 4001a90:	10016126 	beq	r2,zero,4002018 <___vfprintf_internal_r+0x1888>
 4001a94:	d8802d17 	ldw	r2,180(sp)
 4001a98:	14c00017 	ldw	r19,0(r2)
 4001a9c:	10800104 	addi	r2,r2,4
 4001aa0:	d8802d15 	stw	r2,180(sp)
 4001aa4:	982dd7fa 	srai	r22,r19,31
 4001aa8:	b005883a 	mov	r2,r22
 4001aac:	003c8206 	br	4000cb8 <__alt_mem_SRAM+0xfbfe0cb8>
 4001ab0:	9080040c 	andi	r2,r18,16
 4001ab4:	10003526 	beq	r2,zero,4001b8c <___vfprintf_internal_r+0x13fc>
 4001ab8:	d9402d17 	ldw	r5,180(sp)
 4001abc:	d8c02917 	ldw	r3,164(sp)
 4001ac0:	d8002785 	stb	zero,158(sp)
 4001ac4:	28800104 	addi	r2,r5,4
 4001ac8:	2cc00017 	ldw	r19,0(r5)
 4001acc:	002d883a 	mov	r22,zero
 4001ad0:	18003716 	blt	r3,zero,4001bb0 <___vfprintf_internal_r+0x1420>
 4001ad4:	00ffdfc4 	movi	r3,-129
 4001ad8:	d8802d15 	stw	r2,180(sp)
 4001adc:	90e4703a 	and	r18,r18,r3
 4001ae0:	0039883a 	mov	fp,zero
 4001ae4:	983df326 	beq	r19,zero,40012b4 <__alt_mem_SRAM+0xfbfe12b4>
 4001ae8:	00800244 	movi	r2,9
 4001aec:	14fc7b36 	bltu	r2,r19,4000cdc <__alt_mem_SRAM+0xfbfe0cdc>
 4001af0:	d8c02817 	ldw	r3,160(sp)
 4001af4:	dc001dc4 	addi	r16,sp,119
 4001af8:	9cc00c04 	addi	r19,r19,48
 4001afc:	1c07c83a 	sub	r3,r3,r16
 4001b00:	dcc01dc5 	stb	r19,119(sp)
 4001b04:	d8c02e15 	stw	r3,184(sp)
 4001b08:	003ce806 	br	4000eac <__alt_mem_SRAM+0xfbfe0eac>
 4001b0c:	d8803317 	ldw	r2,204(sp)
 4001b10:	143fffc4 	addi	r16,r2,-1
 4001b14:	043f4d0e 	bge	zero,r16,400184c <__alt_mem_SRAM+0xfbfe184c>
 4001b18:	07000404 	movi	fp,16
 4001b1c:	e400810e 	bge	fp,r16,4001d24 <___vfprintf_internal_r+0x1594>
 4001b20:	01410074 	movhi	r5,1025
 4001b24:	2942f384 	addi	r5,r5,3022
 4001b28:	d9402b15 	stw	r5,172(sp)
 4001b2c:	01c001c4 	movi	r7,7
 4001b30:	dcc02c17 	ldw	r19,176(sp)
 4001b34:	00000306 	br	4001b44 <___vfprintf_internal_r+0x13b4>
 4001b38:	b5800204 	addi	r22,r22,8
 4001b3c:	843ffc04 	addi	r16,r16,-16
 4001b40:	e4007b0e 	bge	fp,r16,4001d30 <___vfprintf_internal_r+0x15a0>
 4001b44:	18c00404 	addi	r3,r3,16
 4001b48:	8c400044 	addi	r17,r17,1
 4001b4c:	b5000015 	stw	r20,0(r22)
 4001b50:	b7000115 	stw	fp,4(r22)
 4001b54:	d8c02015 	stw	r3,128(sp)
 4001b58:	dc401f15 	stw	r17,124(sp)
 4001b5c:	3c7ff60e 	bge	r7,r17,4001b38 <__alt_mem_SRAM+0xfbfe1b38>
 4001b60:	d9801e04 	addi	r6,sp,120
 4001b64:	b80b883a 	mov	r5,r23
 4001b68:	9809883a 	mov	r4,r19
 4001b6c:	d9c03c15 	stw	r7,240(sp)
 4001b70:	4007d8c0 	call	4007d8c <__sprint_r>
 4001b74:	d9c03c17 	ldw	r7,240(sp)
 4001b78:	103c071e 	bne	r2,zero,4000b98 <__alt_mem_SRAM+0xfbfe0b98>
 4001b7c:	d8c02017 	ldw	r3,128(sp)
 4001b80:	dc401f17 	ldw	r17,124(sp)
 4001b84:	dd800404 	addi	r22,sp,16
 4001b88:	003fec06 	br	4001b3c <__alt_mem_SRAM+0xfbfe1b3c>
 4001b8c:	9080100c 	andi	r2,r18,64
 4001b90:	d8002785 	stb	zero,158(sp)
 4001b94:	10010e26 	beq	r2,zero,4001fd0 <___vfprintf_internal_r+0x1840>
 4001b98:	d9002d17 	ldw	r4,180(sp)
 4001b9c:	d9402917 	ldw	r5,164(sp)
 4001ba0:	002d883a 	mov	r22,zero
 4001ba4:	20800104 	addi	r2,r4,4
 4001ba8:	24c0000b 	ldhu	r19,0(r4)
 4001bac:	283fc90e 	bge	r5,zero,4001ad4 <__alt_mem_SRAM+0xfbfe1ad4>
 4001bb0:	d8802d15 	stw	r2,180(sp)
 4001bb4:	0039883a 	mov	fp,zero
 4001bb8:	9d84b03a 	or	r2,r19,r22
 4001bbc:	103c461e 	bne	r2,zero,4000cd8 <__alt_mem_SRAM+0xfbfe0cd8>
 4001bc0:	00800044 	movi	r2,1
 4001bc4:	003e6c06 	br	4001578 <__alt_mem_SRAM+0xfbfe1578>
 4001bc8:	d9002c17 	ldw	r4,176(sp)
 4001bcc:	d9801e04 	addi	r6,sp,120
 4001bd0:	b80b883a 	mov	r5,r23
 4001bd4:	4007d8c0 	call	4007d8c <__sprint_r>
 4001bd8:	103bef1e 	bne	r2,zero,4000b98 <__alt_mem_SRAM+0xfbfe0b98>
 4001bdc:	d8c02017 	ldw	r3,128(sp)
 4001be0:	da000404 	addi	r8,sp,16
 4001be4:	d9003217 	ldw	r4,200(sp)
 4001be8:	d8802617 	ldw	r2,152(sp)
 4001bec:	d9403317 	ldw	r5,204(sp)
 4001bf0:	8123883a 	add	r17,r16,r4
 4001bf4:	11400216 	blt	r2,r5,4001c00 <___vfprintf_internal_r+0x1470>
 4001bf8:	9100004c 	andi	r4,r18,1
 4001bfc:	20000d26 	beq	r4,zero,4001c34 <___vfprintf_internal_r+0x14a4>
 4001c00:	d9003717 	ldw	r4,220(sp)
 4001c04:	d9403417 	ldw	r5,208(sp)
 4001c08:	1907883a 	add	r3,r3,r4
 4001c0c:	d9001f17 	ldw	r4,124(sp)
 4001c10:	41400015 	stw	r5,0(r8)
 4001c14:	d9403717 	ldw	r5,220(sp)
 4001c18:	21000044 	addi	r4,r4,1
 4001c1c:	d8c02015 	stw	r3,128(sp)
 4001c20:	41400115 	stw	r5,4(r8)
 4001c24:	d9001f15 	stw	r4,124(sp)
 4001c28:	014001c4 	movi	r5,7
 4001c2c:	2901e816 	blt	r5,r4,40023d0 <___vfprintf_internal_r+0x1c40>
 4001c30:	42000204 	addi	r8,r8,8
 4001c34:	d9003317 	ldw	r4,204(sp)
 4001c38:	8121883a 	add	r16,r16,r4
 4001c3c:	2085c83a 	sub	r2,r4,r2
 4001c40:	8461c83a 	sub	r16,r16,r17
 4001c44:	1400010e 	bge	r2,r16,4001c4c <___vfprintf_internal_r+0x14bc>
 4001c48:	1021883a 	mov	r16,r2
 4001c4c:	04000a0e 	bge	zero,r16,4001c78 <___vfprintf_internal_r+0x14e8>
 4001c50:	d9001f17 	ldw	r4,124(sp)
 4001c54:	1c07883a 	add	r3,r3,r16
 4001c58:	44400015 	stw	r17,0(r8)
 4001c5c:	21000044 	addi	r4,r4,1
 4001c60:	44000115 	stw	r16,4(r8)
 4001c64:	d8c02015 	stw	r3,128(sp)
 4001c68:	d9001f15 	stw	r4,124(sp)
 4001c6c:	014001c4 	movi	r5,7
 4001c70:	2901fb16 	blt	r5,r4,4002460 <___vfprintf_internal_r+0x1cd0>
 4001c74:	42000204 	addi	r8,r8,8
 4001c78:	8001f716 	blt	r16,zero,4002458 <___vfprintf_internal_r+0x1cc8>
 4001c7c:	1421c83a 	sub	r16,r2,r16
 4001c80:	043d380e 	bge	zero,r16,4001164 <__alt_mem_SRAM+0xfbfe1164>
 4001c84:	04400404 	movi	r17,16
 4001c88:	d8801f17 	ldw	r2,124(sp)
 4001c8c:	8c3efb0e 	bge	r17,r16,400187c <__alt_mem_SRAM+0xfbfe187c>
 4001c90:	01410074 	movhi	r5,1025
 4001c94:	2942f384 	addi	r5,r5,3022
 4001c98:	d9402b15 	stw	r5,172(sp)
 4001c9c:	058001c4 	movi	r22,7
 4001ca0:	dcc02c17 	ldw	r19,176(sp)
 4001ca4:	00000306 	br	4001cb4 <___vfprintf_internal_r+0x1524>
 4001ca8:	42000204 	addi	r8,r8,8
 4001cac:	843ffc04 	addi	r16,r16,-16
 4001cb0:	8c3ef50e 	bge	r17,r16,4001888 <__alt_mem_SRAM+0xfbfe1888>
 4001cb4:	18c00404 	addi	r3,r3,16
 4001cb8:	10800044 	addi	r2,r2,1
 4001cbc:	45000015 	stw	r20,0(r8)
 4001cc0:	44400115 	stw	r17,4(r8)
 4001cc4:	d8c02015 	stw	r3,128(sp)
 4001cc8:	d8801f15 	stw	r2,124(sp)
 4001ccc:	b0bff60e 	bge	r22,r2,4001ca8 <__alt_mem_SRAM+0xfbfe1ca8>
 4001cd0:	d9801e04 	addi	r6,sp,120
 4001cd4:	b80b883a 	mov	r5,r23
 4001cd8:	9809883a 	mov	r4,r19
 4001cdc:	4007d8c0 	call	4007d8c <__sprint_r>
 4001ce0:	103bad1e 	bne	r2,zero,4000b98 <__alt_mem_SRAM+0xfbfe0b98>
 4001ce4:	d8c02017 	ldw	r3,128(sp)
 4001ce8:	d8801f17 	ldw	r2,124(sp)
 4001cec:	da000404 	addi	r8,sp,16
 4001cf0:	003fee06 	br	4001cac <__alt_mem_SRAM+0xfbfe1cac>
 4001cf4:	9088703a 	and	r4,r18,r2
 4001cf8:	203eab1e 	bne	r4,zero,40017a8 <__alt_mem_SRAM+0xfbfe17a8>
 4001cfc:	dc401f17 	ldw	r17,124(sp)
 4001d00:	40800115 	stw	r2,4(r8)
 4001d04:	44000015 	stw	r16,0(r8)
 4001d08:	8c400044 	addi	r17,r17,1
 4001d0c:	d8c02015 	stw	r3,128(sp)
 4001d10:	dc401f15 	stw	r17,124(sp)
 4001d14:	008001c4 	movi	r2,7
 4001d18:	14400e16 	blt	r2,r17,4001d54 <___vfprintf_internal_r+0x15c4>
 4001d1c:	45800204 	addi	r22,r8,8
 4001d20:	003eca06 	br	400184c <__alt_mem_SRAM+0xfbfe184c>
 4001d24:	01010074 	movhi	r4,1025
 4001d28:	2102f384 	addi	r4,r4,3022
 4001d2c:	d9002b15 	stw	r4,172(sp)
 4001d30:	d8802b17 	ldw	r2,172(sp)
 4001d34:	1c07883a 	add	r3,r3,r16
 4001d38:	8c400044 	addi	r17,r17,1
 4001d3c:	b0800015 	stw	r2,0(r22)
 4001d40:	b4000115 	stw	r16,4(r22)
 4001d44:	d8c02015 	stw	r3,128(sp)
 4001d48:	dc401f15 	stw	r17,124(sp)
 4001d4c:	008001c4 	movi	r2,7
 4001d50:	147ebd0e 	bge	r2,r17,4001848 <__alt_mem_SRAM+0xfbfe1848>
 4001d54:	d9002c17 	ldw	r4,176(sp)
 4001d58:	d9801e04 	addi	r6,sp,120
 4001d5c:	b80b883a 	mov	r5,r23
 4001d60:	4007d8c0 	call	4007d8c <__sprint_r>
 4001d64:	103b8c1e 	bne	r2,zero,4000b98 <__alt_mem_SRAM+0xfbfe0b98>
 4001d68:	d8c02017 	ldw	r3,128(sp)
 4001d6c:	dc401f17 	ldw	r17,124(sp)
 4001d70:	dd800404 	addi	r22,sp,16
 4001d74:	003eb506 	br	400184c <__alt_mem_SRAM+0xfbfe184c>
 4001d78:	d9002c17 	ldw	r4,176(sp)
 4001d7c:	d9801e04 	addi	r6,sp,120
 4001d80:	b80b883a 	mov	r5,r23
 4001d84:	4007d8c0 	call	4007d8c <__sprint_r>
 4001d88:	103b831e 	bne	r2,zero,4000b98 <__alt_mem_SRAM+0xfbfe0b98>
 4001d8c:	d8c02017 	ldw	r3,128(sp)
 4001d90:	dc401f17 	ldw	r17,124(sp)
 4001d94:	da000404 	addi	r8,sp,16
 4001d98:	003e8d06 	br	40017d0 <__alt_mem_SRAM+0xfbfe17d0>
 4001d9c:	d9002c17 	ldw	r4,176(sp)
 4001da0:	d9801e04 	addi	r6,sp,120
 4001da4:	b80b883a 	mov	r5,r23
 4001da8:	4007d8c0 	call	4007d8c <__sprint_r>
 4001dac:	103b7a1e 	bne	r2,zero,4000b98 <__alt_mem_SRAM+0xfbfe0b98>
 4001db0:	d8c02017 	ldw	r3,128(sp)
 4001db4:	dc401f17 	ldw	r17,124(sp)
 4001db8:	dd800404 	addi	r22,sp,16
 4001dbc:	003e8f06 	br	40017fc <__alt_mem_SRAM+0xfbfe17fc>
 4001dc0:	0027883a 	mov	r19,zero
 4001dc4:	003f4a06 	br	4001af0 <__alt_mem_SRAM+0xfbfe1af0>
 4001dc8:	d9002c17 	ldw	r4,176(sp)
 4001dcc:	d9801e04 	addi	r6,sp,120
 4001dd0:	b80b883a 	mov	r5,r23
 4001dd4:	4007d8c0 	call	4007d8c <__sprint_r>
 4001dd8:	103b6f1e 	bne	r2,zero,4000b98 <__alt_mem_SRAM+0xfbfe0b98>
 4001ddc:	d8c02017 	ldw	r3,128(sp)
 4001de0:	da000404 	addi	r8,sp,16
 4001de4:	003c9d06 	br	400105c <__alt_mem_SRAM+0xfbfe105c>
 4001de8:	04e7c83a 	sub	r19,zero,r19
 4001dec:	9804c03a 	cmpne	r2,r19,zero
 4001df0:	05adc83a 	sub	r22,zero,r22
 4001df4:	b0adc83a 	sub	r22,r22,r2
 4001df8:	d8802917 	ldw	r2,164(sp)
 4001dfc:	07000b44 	movi	fp,45
 4001e00:	df002785 	stb	fp,158(sp)
 4001e04:	10017b16 	blt	r2,zero,40023f4 <___vfprintf_internal_r+0x1c64>
 4001e08:	00bfdfc4 	movi	r2,-129
 4001e0c:	90a4703a 	and	r18,r18,r2
 4001e10:	003bb106 	br	4000cd8 <__alt_mem_SRAM+0xfbfe0cd8>
 4001e14:	d9003617 	ldw	r4,216(sp)
 4001e18:	d9403817 	ldw	r5,224(sp)
 4001e1c:	da003d15 	stw	r8,244(sp)
 4001e20:	40079b00 	call	40079b0 <__fpclassifyd>
 4001e24:	da003d17 	ldw	r8,244(sp)
 4001e28:	1000f026 	beq	r2,zero,40021ec <___vfprintf_internal_r+0x1a5c>
 4001e2c:	d9002917 	ldw	r4,164(sp)
 4001e30:	05bff7c4 	movi	r22,-33
 4001e34:	00bfffc4 	movi	r2,-1
 4001e38:	8dac703a 	and	r22,r17,r22
 4001e3c:	20820026 	beq	r4,r2,4002640 <___vfprintf_internal_r+0x1eb0>
 4001e40:	008011c4 	movi	r2,71
 4001e44:	b081f726 	beq	r22,r2,4002624 <___vfprintf_internal_r+0x1e94>
 4001e48:	d9003817 	ldw	r4,224(sp)
 4001e4c:	90c04014 	ori	r3,r18,256
 4001e50:	d8c02b15 	stw	r3,172(sp)
 4001e54:	20021516 	blt	r4,zero,40026ac <___vfprintf_internal_r+0x1f1c>
 4001e58:	dcc03817 	ldw	r19,224(sp)
 4001e5c:	d8002a05 	stb	zero,168(sp)
 4001e60:	00801984 	movi	r2,102
 4001e64:	8881f926 	beq	r17,r2,400264c <___vfprintf_internal_r+0x1ebc>
 4001e68:	00801184 	movi	r2,70
 4001e6c:	88821c26 	beq	r17,r2,40026e0 <___vfprintf_internal_r+0x1f50>
 4001e70:	00801144 	movi	r2,69
 4001e74:	b081ef26 	beq	r22,r2,4002634 <___vfprintf_internal_r+0x1ea4>
 4001e78:	d8c02917 	ldw	r3,164(sp)
 4001e7c:	d8802104 	addi	r2,sp,132
 4001e80:	d8800315 	stw	r2,12(sp)
 4001e84:	d9403617 	ldw	r5,216(sp)
 4001e88:	d8802504 	addi	r2,sp,148
 4001e8c:	d9002c17 	ldw	r4,176(sp)
 4001e90:	d8800215 	stw	r2,8(sp)
 4001e94:	d8802604 	addi	r2,sp,152
 4001e98:	d8c00015 	stw	r3,0(sp)
 4001e9c:	d8800115 	stw	r2,4(sp)
 4001ea0:	01c00084 	movi	r7,2
 4001ea4:	980d883a 	mov	r6,r19
 4001ea8:	d8c03c15 	stw	r3,240(sp)
 4001eac:	da003d15 	stw	r8,244(sp)
 4001eb0:	4002db40 	call	4002db4 <_dtoa_r>
 4001eb4:	1021883a 	mov	r16,r2
 4001eb8:	008019c4 	movi	r2,103
 4001ebc:	d8c03c17 	ldw	r3,240(sp)
 4001ec0:	da003d17 	ldw	r8,244(sp)
 4001ec4:	88817126 	beq	r17,r2,400248c <___vfprintf_internal_r+0x1cfc>
 4001ec8:	008011c4 	movi	r2,71
 4001ecc:	88829226 	beq	r17,r2,4002918 <___vfprintf_internal_r+0x2188>
 4001ed0:	80f9883a 	add	fp,r16,r3
 4001ed4:	d9003617 	ldw	r4,216(sp)
 4001ed8:	000d883a 	mov	r6,zero
 4001edc:	000f883a 	mov	r7,zero
 4001ee0:	980b883a 	mov	r5,r19
 4001ee4:	da003d15 	stw	r8,244(sp)
 4001ee8:	400ba040 	call	400ba04 <__eqdf2>
 4001eec:	da003d17 	ldw	r8,244(sp)
 4001ef0:	10018d26 	beq	r2,zero,4002528 <___vfprintf_internal_r+0x1d98>
 4001ef4:	d8802117 	ldw	r2,132(sp)
 4001ef8:	1700062e 	bgeu	r2,fp,4001f14 <___vfprintf_internal_r+0x1784>
 4001efc:	01000c04 	movi	r4,48
 4001f00:	10c00044 	addi	r3,r2,1
 4001f04:	d8c02115 	stw	r3,132(sp)
 4001f08:	11000005 	stb	r4,0(r2)
 4001f0c:	d8802117 	ldw	r2,132(sp)
 4001f10:	173ffb36 	bltu	r2,fp,4001f00 <__alt_mem_SRAM+0xfbfe1f00>
 4001f14:	1405c83a 	sub	r2,r2,r16
 4001f18:	d8803315 	stw	r2,204(sp)
 4001f1c:	008011c4 	movi	r2,71
 4001f20:	b0817626 	beq	r22,r2,40024fc <___vfprintf_internal_r+0x1d6c>
 4001f24:	00801944 	movi	r2,101
 4001f28:	1442810e 	bge	r2,r17,4002930 <___vfprintf_internal_r+0x21a0>
 4001f2c:	d8c02617 	ldw	r3,152(sp)
 4001f30:	00801984 	movi	r2,102
 4001f34:	d8c03215 	stw	r3,200(sp)
 4001f38:	8881fe26 	beq	r17,r2,4002734 <___vfprintf_internal_r+0x1fa4>
 4001f3c:	d8c03217 	ldw	r3,200(sp)
 4001f40:	d9003317 	ldw	r4,204(sp)
 4001f44:	1901dd16 	blt	r3,r4,40026bc <___vfprintf_internal_r+0x1f2c>
 4001f48:	9480004c 	andi	r18,r18,1
 4001f4c:	90022b1e 	bne	r18,zero,40027fc <___vfprintf_internal_r+0x206c>
 4001f50:	1805883a 	mov	r2,r3
 4001f54:	18028016 	blt	r3,zero,4002958 <___vfprintf_internal_r+0x21c8>
 4001f58:	d8c03217 	ldw	r3,200(sp)
 4001f5c:	044019c4 	movi	r17,103
 4001f60:	d8c02e15 	stw	r3,184(sp)
 4001f64:	df002a07 	ldb	fp,168(sp)
 4001f68:	e001531e 	bne	fp,zero,40024b8 <___vfprintf_internal_r+0x1d28>
 4001f6c:	df002783 	ldbu	fp,158(sp)
 4001f70:	d8802a15 	stw	r2,168(sp)
 4001f74:	dc802b17 	ldw	r18,172(sp)
 4001f78:	d8002915 	stw	zero,164(sp)
 4001f7c:	003bd106 	br	4000ec4 <__alt_mem_SRAM+0xfbfe0ec4>
 4001f80:	d8802d17 	ldw	r2,180(sp)
 4001f84:	d8c02d17 	ldw	r3,180(sp)
 4001f88:	d9002d17 	ldw	r4,180(sp)
 4001f8c:	10800017 	ldw	r2,0(r2)
 4001f90:	18c00117 	ldw	r3,4(r3)
 4001f94:	21000204 	addi	r4,r4,8
 4001f98:	d8803615 	stw	r2,216(sp)
 4001f9c:	d8c03815 	stw	r3,224(sp)
 4001fa0:	d9002d15 	stw	r4,180(sp)
 4001fa4:	003b7506 	br	4000d7c <__alt_mem_SRAM+0xfbfe0d7c>
 4001fa8:	ac400007 	ldb	r17,0(r21)
 4001fac:	003a5906 	br	4000914 <__alt_mem_SRAM+0xfbfe0914>
 4001fb0:	9080100c 	andi	r2,r18,64
 4001fb4:	1000a826 	beq	r2,zero,4002258 <___vfprintf_internal_r+0x1ac8>
 4001fb8:	d9002d17 	ldw	r4,180(sp)
 4001fbc:	002d883a 	mov	r22,zero
 4001fc0:	24c0000b 	ldhu	r19,0(r4)
 4001fc4:	21000104 	addi	r4,r4,4
 4001fc8:	d9002d15 	stw	r4,180(sp)
 4001fcc:	003ccb06 	br	40012fc <__alt_mem_SRAM+0xfbfe12fc>
 4001fd0:	d8c02d17 	ldw	r3,180(sp)
 4001fd4:	d9002917 	ldw	r4,164(sp)
 4001fd8:	002d883a 	mov	r22,zero
 4001fdc:	18800104 	addi	r2,r3,4
 4001fe0:	1cc00017 	ldw	r19,0(r3)
 4001fe4:	203ebb0e 	bge	r4,zero,4001ad4 <__alt_mem_SRAM+0xfbfe1ad4>
 4001fe8:	003ef106 	br	4001bb0 <__alt_mem_SRAM+0xfbfe1bb0>
 4001fec:	9080040c 	andi	r2,r18,16
 4001ff0:	1000921e 	bne	r2,zero,400223c <___vfprintf_internal_r+0x1aac>
 4001ff4:	9480100c 	andi	r18,r18,64
 4001ff8:	90013926 	beq	r18,zero,40024e0 <___vfprintf_internal_r+0x1d50>
 4001ffc:	d9002d17 	ldw	r4,180(sp)
 4002000:	d9402f17 	ldw	r5,188(sp)
 4002004:	20800017 	ldw	r2,0(r4)
 4002008:	21000104 	addi	r4,r4,4
 400200c:	d9002d15 	stw	r4,180(sp)
 4002010:	1140000d 	sth	r5,0(r2)
 4002014:	003a1606 	br	4000870 <__alt_mem_SRAM+0xfbfe0870>
 4002018:	9080100c 	andi	r2,r18,64
 400201c:	10008026 	beq	r2,zero,4002220 <___vfprintf_internal_r+0x1a90>
 4002020:	d8c02d17 	ldw	r3,180(sp)
 4002024:	1cc0000f 	ldh	r19,0(r3)
 4002028:	18c00104 	addi	r3,r3,4
 400202c:	d8c02d15 	stw	r3,180(sp)
 4002030:	982dd7fa 	srai	r22,r19,31
 4002034:	b005883a 	mov	r2,r22
 4002038:	003b1f06 	br	4000cb8 <__alt_mem_SRAM+0xfbfe0cb8>
 400203c:	9080100c 	andi	r2,r18,64
 4002040:	d8002785 	stb	zero,158(sp)
 4002044:	10008a1e 	bne	r2,zero,4002270 <___vfprintf_internal_r+0x1ae0>
 4002048:	d9402d17 	ldw	r5,180(sp)
 400204c:	d8c02917 	ldw	r3,164(sp)
 4002050:	002d883a 	mov	r22,zero
 4002054:	28800104 	addi	r2,r5,4
 4002058:	2cc00017 	ldw	r19,0(r5)
 400205c:	183e4b0e 	bge	r3,zero,400198c <__alt_mem_SRAM+0xfbfe198c>
 4002060:	9d86b03a 	or	r3,r19,r22
 4002064:	d8802d15 	stw	r2,180(sp)
 4002068:	183e4c1e 	bne	r3,zero,400199c <__alt_mem_SRAM+0xfbfe199c>
 400206c:	0039883a 	mov	fp,zero
 4002070:	0005883a 	mov	r2,zero
 4002074:	003d4006 	br	4001578 <__alt_mem_SRAM+0xfbfe1578>
 4002078:	01410074 	movhi	r5,1025
 400207c:	2942f384 	addi	r5,r5,3022
 4002080:	d9402b15 	stw	r5,172(sp)
 4002084:	d9402b17 	ldw	r5,172(sp)
 4002088:	1c47883a 	add	r3,r3,r17
 400208c:	10800044 	addi	r2,r2,1
 4002090:	41400015 	stw	r5,0(r8)
 4002094:	44400115 	stw	r17,4(r8)
 4002098:	d8c02015 	stw	r3,128(sp)
 400209c:	d8801f15 	stw	r2,124(sp)
 40020a0:	010001c4 	movi	r4,7
 40020a4:	20bec816 	blt	r4,r2,4001bc8 <__alt_mem_SRAM+0xfbfe1bc8>
 40020a8:	42000204 	addi	r8,r8,8
 40020ac:	003ecd06 	br	4001be4 <__alt_mem_SRAM+0xfbfe1be4>
 40020b0:	d9002917 	ldw	r4,164(sp)
 40020b4:	d8002785 	stb	zero,158(sp)
 40020b8:	203d2d16 	blt	r4,zero,4001570 <__alt_mem_SRAM+0xfbfe1570>
 40020bc:	00bfdfc4 	movi	r2,-129
 40020c0:	90a4703a 	and	r18,r18,r2
 40020c4:	003a9106 	br	4000b0c <__alt_mem_SRAM+0xfbfe0b0c>
 40020c8:	01010074 	movhi	r4,1025
 40020cc:	2102f384 	addi	r4,r4,3022
 40020d0:	d9002b15 	stw	r4,172(sp)
 40020d4:	003c0c06 	br	4001108 <__alt_mem_SRAM+0xfbfe1108>
 40020d8:	d9002c17 	ldw	r4,176(sp)
 40020dc:	d9801e04 	addi	r6,sp,120
 40020e0:	b80b883a 	mov	r5,r23
 40020e4:	4007d8c0 	call	4007d8c <__sprint_r>
 40020e8:	103aab1e 	bne	r2,zero,4000b98 <__alt_mem_SRAM+0xfbfe0b98>
 40020ec:	d8c02017 	ldw	r3,128(sp)
 40020f0:	da000404 	addi	r8,sp,16
 40020f4:	003d4106 	br	40015fc <__alt_mem_SRAM+0xfbfe15fc>
 40020f8:	d8801f17 	ldw	r2,124(sp)
 40020fc:	01410074 	movhi	r5,1025
 4002100:	01000044 	movi	r4,1
 4002104:	18c00044 	addi	r3,r3,1
 4002108:	10800044 	addi	r2,r2,1
 400210c:	2942f304 	addi	r5,r5,3020
 4002110:	41000115 	stw	r4,4(r8)
 4002114:	41400015 	stw	r5,0(r8)
 4002118:	d8c02015 	stw	r3,128(sp)
 400211c:	d8801f15 	stw	r2,124(sp)
 4002120:	010001c4 	movi	r4,7
 4002124:	20805c16 	blt	r4,r2,4002298 <___vfprintf_internal_r+0x1b08>
 4002128:	42000204 	addi	r8,r8,8
 400212c:	8800041e 	bne	r17,zero,4002140 <___vfprintf_internal_r+0x19b0>
 4002130:	d8803317 	ldw	r2,204(sp)
 4002134:	1000021e 	bne	r2,zero,4002140 <___vfprintf_internal_r+0x19b0>
 4002138:	9080004c 	andi	r2,r18,1
 400213c:	103c0926 	beq	r2,zero,4001164 <__alt_mem_SRAM+0xfbfe1164>
 4002140:	d9003717 	ldw	r4,220(sp)
 4002144:	d8801f17 	ldw	r2,124(sp)
 4002148:	d9403417 	ldw	r5,208(sp)
 400214c:	20c7883a 	add	r3,r4,r3
 4002150:	10800044 	addi	r2,r2,1
 4002154:	41000115 	stw	r4,4(r8)
 4002158:	41400015 	stw	r5,0(r8)
 400215c:	d8c02015 	stw	r3,128(sp)
 4002160:	d8801f15 	stw	r2,124(sp)
 4002164:	010001c4 	movi	r4,7
 4002168:	20812116 	blt	r4,r2,40025f0 <___vfprintf_internal_r+0x1e60>
 400216c:	42000204 	addi	r8,r8,8
 4002170:	0463c83a 	sub	r17,zero,r17
 4002174:	0440730e 	bge	zero,r17,4002344 <___vfprintf_internal_r+0x1bb4>
 4002178:	05800404 	movi	r22,16
 400217c:	b440860e 	bge	r22,r17,4002398 <___vfprintf_internal_r+0x1c08>
 4002180:	01410074 	movhi	r5,1025
 4002184:	2942f384 	addi	r5,r5,3022
 4002188:	d9402b15 	stw	r5,172(sp)
 400218c:	070001c4 	movi	fp,7
 4002190:	dcc02c17 	ldw	r19,176(sp)
 4002194:	00000306 	br	40021a4 <___vfprintf_internal_r+0x1a14>
 4002198:	42000204 	addi	r8,r8,8
 400219c:	8c7ffc04 	addi	r17,r17,-16
 40021a0:	b440800e 	bge	r22,r17,40023a4 <___vfprintf_internal_r+0x1c14>
 40021a4:	18c00404 	addi	r3,r3,16
 40021a8:	10800044 	addi	r2,r2,1
 40021ac:	45000015 	stw	r20,0(r8)
 40021b0:	45800115 	stw	r22,4(r8)
 40021b4:	d8c02015 	stw	r3,128(sp)
 40021b8:	d8801f15 	stw	r2,124(sp)
 40021bc:	e0bff60e 	bge	fp,r2,4002198 <__alt_mem_SRAM+0xfbfe2198>
 40021c0:	d9801e04 	addi	r6,sp,120
 40021c4:	b80b883a 	mov	r5,r23
 40021c8:	9809883a 	mov	r4,r19
 40021cc:	4007d8c0 	call	4007d8c <__sprint_r>
 40021d0:	103a711e 	bne	r2,zero,4000b98 <__alt_mem_SRAM+0xfbfe0b98>
 40021d4:	d8c02017 	ldw	r3,128(sp)
 40021d8:	d8801f17 	ldw	r2,124(sp)
 40021dc:	da000404 	addi	r8,sp,16
 40021e0:	003fee06 	br	400219c <__alt_mem_SRAM+0xfbfe219c>
 40021e4:	00bfffc4 	movi	r2,-1
 40021e8:	003a6f06 	br	4000ba8 <__alt_mem_SRAM+0xfbfe0ba8>
 40021ec:	008011c4 	movi	r2,71
 40021f0:	1440b816 	blt	r2,r17,40024d4 <___vfprintf_internal_r+0x1d44>
 40021f4:	04010074 	movhi	r16,1025
 40021f8:	8402e504 	addi	r16,r16,2964
 40021fc:	00c000c4 	movi	r3,3
 4002200:	00bfdfc4 	movi	r2,-129
 4002204:	d8c02a15 	stw	r3,168(sp)
 4002208:	90a4703a 	and	r18,r18,r2
 400220c:	df002783 	ldbu	fp,158(sp)
 4002210:	d8c02e15 	stw	r3,184(sp)
 4002214:	d8002915 	stw	zero,164(sp)
 4002218:	d8003215 	stw	zero,200(sp)
 400221c:	003b2906 	br	4000ec4 <__alt_mem_SRAM+0xfbfe0ec4>
 4002220:	d9002d17 	ldw	r4,180(sp)
 4002224:	24c00017 	ldw	r19,0(r4)
 4002228:	21000104 	addi	r4,r4,4
 400222c:	d9002d15 	stw	r4,180(sp)
 4002230:	982dd7fa 	srai	r22,r19,31
 4002234:	b005883a 	mov	r2,r22
 4002238:	003a9f06 	br	4000cb8 <__alt_mem_SRAM+0xfbfe0cb8>
 400223c:	d9402d17 	ldw	r5,180(sp)
 4002240:	d8c02f17 	ldw	r3,188(sp)
 4002244:	28800017 	ldw	r2,0(r5)
 4002248:	29400104 	addi	r5,r5,4
 400224c:	d9402d15 	stw	r5,180(sp)
 4002250:	10c00015 	stw	r3,0(r2)
 4002254:	00398606 	br	4000870 <__alt_mem_SRAM+0xfbfe0870>
 4002258:	d9402d17 	ldw	r5,180(sp)
 400225c:	002d883a 	mov	r22,zero
 4002260:	2cc00017 	ldw	r19,0(r5)
 4002264:	29400104 	addi	r5,r5,4
 4002268:	d9402d15 	stw	r5,180(sp)
 400226c:	003c2306 	br	40012fc <__alt_mem_SRAM+0xfbfe12fc>
 4002270:	d8c02d17 	ldw	r3,180(sp)
 4002274:	d9002917 	ldw	r4,164(sp)
 4002278:	002d883a 	mov	r22,zero
 400227c:	18800104 	addi	r2,r3,4
 4002280:	1cc0000b 	ldhu	r19,0(r3)
 4002284:	203dc10e 	bge	r4,zero,400198c <__alt_mem_SRAM+0xfbfe198c>
 4002288:	003f7506 	br	4002060 <__alt_mem_SRAM+0xfbfe2060>
 400228c:	04010074 	movhi	r16,1025
 4002290:	8402e304 	addi	r16,r16,2956
 4002294:	003acc06 	br	4000dc8 <__alt_mem_SRAM+0xfbfe0dc8>
 4002298:	d9002c17 	ldw	r4,176(sp)
 400229c:	d9801e04 	addi	r6,sp,120
 40022a0:	b80b883a 	mov	r5,r23
 40022a4:	4007d8c0 	call	4007d8c <__sprint_r>
 40022a8:	103a3b1e 	bne	r2,zero,4000b98 <__alt_mem_SRAM+0xfbfe0b98>
 40022ac:	dc402617 	ldw	r17,152(sp)
 40022b0:	d8c02017 	ldw	r3,128(sp)
 40022b4:	da000404 	addi	r8,sp,16
 40022b8:	003f9c06 	br	400212c <__alt_mem_SRAM+0xfbfe212c>
 40022bc:	ac400043 	ldbu	r17,1(r21)
 40022c0:	94800814 	ori	r18,r18,32
 40022c4:	ad400044 	addi	r21,r21,1
 40022c8:	8c403fcc 	andi	r17,r17,255
 40022cc:	8c40201c 	xori	r17,r17,128
 40022d0:	8c7fe004 	addi	r17,r17,-128
 40022d4:	00398f06 	br	4000914 <__alt_mem_SRAM+0xfbfe0914>
 40022d8:	d8c02d15 	stw	r3,180(sp)
 40022dc:	0039883a 	mov	fp,zero
 40022e0:	003e3506 	br	4001bb8 <__alt_mem_SRAM+0xfbfe1bb8>
 40022e4:	d9002c17 	ldw	r4,176(sp)
 40022e8:	d9801e04 	addi	r6,sp,120
 40022ec:	b80b883a 	mov	r5,r23
 40022f0:	4007d8c0 	call	4007d8c <__sprint_r>
 40022f4:	103a281e 	bne	r2,zero,4000b98 <__alt_mem_SRAM+0xfbfe0b98>
 40022f8:	d8c02017 	ldw	r3,128(sp)
 40022fc:	da000404 	addi	r8,sp,16
 4002300:	003cd006 	br	4001644 <__alt_mem_SRAM+0xfbfe1644>
 4002304:	8009883a 	mov	r4,r16
 4002308:	da003d15 	stw	r8,244(sp)
 400230c:	40006f80 	call	40006f8 <strlen>
 4002310:	d8802e15 	stw	r2,184(sp)
 4002314:	da003d17 	ldw	r8,244(sp)
 4002318:	103c340e 	bge	r2,zero,40013ec <__alt_mem_SRAM+0xfbfe13ec>
 400231c:	0005883a 	mov	r2,zero
 4002320:	003c3206 	br	40013ec <__alt_mem_SRAM+0xfbfe13ec>
 4002324:	d9002c17 	ldw	r4,176(sp)
 4002328:	d9801e04 	addi	r6,sp,120
 400232c:	b80b883a 	mov	r5,r23
 4002330:	4007d8c0 	call	4007d8c <__sprint_r>
 4002334:	103a181e 	bne	r2,zero,4000b98 <__alt_mem_SRAM+0xfbfe0b98>
 4002338:	d8c02017 	ldw	r3,128(sp)
 400233c:	d8801f17 	ldw	r2,124(sp)
 4002340:	da000404 	addi	r8,sp,16
 4002344:	d9403317 	ldw	r5,204(sp)
 4002348:	10800044 	addi	r2,r2,1
 400234c:	44000015 	stw	r16,0(r8)
 4002350:	28c7883a 	add	r3,r5,r3
 4002354:	003b7d06 	br	400114c <__alt_mem_SRAM+0xfbfe114c>
 4002358:	01010074 	movhi	r4,1025
 400235c:	2102f784 	addi	r4,r4,3038
 4002360:	d9003515 	stw	r4,212(sp)
 4002364:	003b1406 	br	4000fb8 <__alt_mem_SRAM+0xfbfe0fb8>
 4002368:	013fffc4 	movi	r4,-1
 400236c:	003a3506 	br	4000c44 <__alt_mem_SRAM+0xfbfe0c44>
 4002370:	0023883a 	mov	r17,zero
 4002374:	003d9d06 	br	40019ec <__alt_mem_SRAM+0xfbfe19ec>
 4002378:	d9002c17 	ldw	r4,176(sp)
 400237c:	d9801e04 	addi	r6,sp,120
 4002380:	b80b883a 	mov	r5,r23
 4002384:	4007d8c0 	call	4007d8c <__sprint_r>
 4002388:	103a031e 	bne	r2,zero,4000b98 <__alt_mem_SRAM+0xfbfe0b98>
 400238c:	d8c02017 	ldw	r3,128(sp)
 4002390:	da000404 	addi	r8,sp,16
 4002394:	003d9406 	br	40019e8 <__alt_mem_SRAM+0xfbfe19e8>
 4002398:	01010074 	movhi	r4,1025
 400239c:	2102f384 	addi	r4,r4,3022
 40023a0:	d9002b15 	stw	r4,172(sp)
 40023a4:	d9002b17 	ldw	r4,172(sp)
 40023a8:	1c47883a 	add	r3,r3,r17
 40023ac:	10800044 	addi	r2,r2,1
 40023b0:	41000015 	stw	r4,0(r8)
 40023b4:	44400115 	stw	r17,4(r8)
 40023b8:	d8c02015 	stw	r3,128(sp)
 40023bc:	d8801f15 	stw	r2,124(sp)
 40023c0:	010001c4 	movi	r4,7
 40023c4:	20bfd716 	blt	r4,r2,4002324 <__alt_mem_SRAM+0xfbfe2324>
 40023c8:	42000204 	addi	r8,r8,8
 40023cc:	003fdd06 	br	4002344 <__alt_mem_SRAM+0xfbfe2344>
 40023d0:	d9002c17 	ldw	r4,176(sp)
 40023d4:	d9801e04 	addi	r6,sp,120
 40023d8:	b80b883a 	mov	r5,r23
 40023dc:	4007d8c0 	call	4007d8c <__sprint_r>
 40023e0:	1039ed1e 	bne	r2,zero,4000b98 <__alt_mem_SRAM+0xfbfe0b98>
 40023e4:	d8802617 	ldw	r2,152(sp)
 40023e8:	d8c02017 	ldw	r3,128(sp)
 40023ec:	da000404 	addi	r8,sp,16
 40023f0:	003e1006 	br	4001c34 <__alt_mem_SRAM+0xfbfe1c34>
 40023f4:	00800044 	movi	r2,1
 40023f8:	10803fcc 	andi	r2,r2,255
 40023fc:	00c00044 	movi	r3,1
 4002400:	10fa3526 	beq	r2,r3,4000cd8 <__alt_mem_SRAM+0xfbfe0cd8>
 4002404:	00c00084 	movi	r3,2
 4002408:	10fbcb26 	beq	r2,r3,4001338 <__alt_mem_SRAM+0xfbfe1338>
 400240c:	003a8f06 	br	4000e4c <__alt_mem_SRAM+0xfbfe0e4c>
 4002410:	01010074 	movhi	r4,1025
 4002414:	2102f784 	addi	r4,r4,3038
 4002418:	d9003515 	stw	r4,212(sp)
 400241c:	003b7606 	br	40011f8 <__alt_mem_SRAM+0xfbfe11f8>
 4002420:	d8802917 	ldw	r2,164(sp)
 4002424:	00c00184 	movi	r3,6
 4002428:	1880012e 	bgeu	r3,r2,4002430 <___vfprintf_internal_r+0x1ca0>
 400242c:	1805883a 	mov	r2,r3
 4002430:	d8802e15 	stw	r2,184(sp)
 4002434:	1000ef16 	blt	r2,zero,40027f4 <___vfprintf_internal_r+0x2064>
 4002438:	04010074 	movhi	r16,1025
 400243c:	d8802a15 	stw	r2,168(sp)
 4002440:	dcc02d15 	stw	r19,180(sp)
 4002444:	d8002915 	stw	zero,164(sp)
 4002448:	d8003215 	stw	zero,200(sp)
 400244c:	8402f104 	addi	r16,r16,3012
 4002450:	0039883a 	mov	fp,zero
 4002454:	003aa206 	br	4000ee0 <__alt_mem_SRAM+0xfbfe0ee0>
 4002458:	0021883a 	mov	r16,zero
 400245c:	003e0706 	br	4001c7c <__alt_mem_SRAM+0xfbfe1c7c>
 4002460:	d9002c17 	ldw	r4,176(sp)
 4002464:	d9801e04 	addi	r6,sp,120
 4002468:	b80b883a 	mov	r5,r23
 400246c:	4007d8c0 	call	4007d8c <__sprint_r>
 4002470:	1039c91e 	bne	r2,zero,4000b98 <__alt_mem_SRAM+0xfbfe0b98>
 4002474:	d8802617 	ldw	r2,152(sp)
 4002478:	d9403317 	ldw	r5,204(sp)
 400247c:	d8c02017 	ldw	r3,128(sp)
 4002480:	da000404 	addi	r8,sp,16
 4002484:	2885c83a 	sub	r2,r5,r2
 4002488:	003dfb06 	br	4001c78 <__alt_mem_SRAM+0xfbfe1c78>
 400248c:	9080004c 	andi	r2,r18,1
 4002490:	103e8f1e 	bne	r2,zero,4001ed0 <__alt_mem_SRAM+0xfbfe1ed0>
 4002494:	d8802117 	ldw	r2,132(sp)
 4002498:	003e9e06 	br	4001f14 <__alt_mem_SRAM+0xfbfe1f14>
 400249c:	1025883a 	mov	r18,r2
 40024a0:	0039883a 	mov	fp,zero
 40024a4:	00800084 	movi	r2,2
 40024a8:	003fd306 	br	40023f8 <__alt_mem_SRAM+0xfbfe23f8>
 40024ac:	07000b44 	movi	fp,45
 40024b0:	df002785 	stb	fp,158(sp)
 40024b4:	003a4006 	br	4000db8 <__alt_mem_SRAM+0xfbfe0db8>
 40024b8:	00c00b44 	movi	r3,45
 40024bc:	d8c02785 	stb	r3,158(sp)
 40024c0:	d8802a15 	stw	r2,168(sp)
 40024c4:	dc802b17 	ldw	r18,172(sp)
 40024c8:	d8002915 	stw	zero,164(sp)
 40024cc:	07000b44 	movi	fp,45
 40024d0:	003a8006 	br	4000ed4 <__alt_mem_SRAM+0xfbfe0ed4>
 40024d4:	04010074 	movhi	r16,1025
 40024d8:	8402e604 	addi	r16,r16,2968
 40024dc:	003f4706 	br	40021fc <__alt_mem_SRAM+0xfbfe21fc>
 40024e0:	d8c02d17 	ldw	r3,180(sp)
 40024e4:	d9002f17 	ldw	r4,188(sp)
 40024e8:	18800017 	ldw	r2,0(r3)
 40024ec:	18c00104 	addi	r3,r3,4
 40024f0:	d8c02d15 	stw	r3,180(sp)
 40024f4:	11000015 	stw	r4,0(r2)
 40024f8:	0038dd06 	br	4000870 <__alt_mem_SRAM+0xfbfe0870>
 40024fc:	dd802617 	ldw	r22,152(sp)
 4002500:	00bfff44 	movi	r2,-3
 4002504:	b0801c16 	blt	r22,r2,4002578 <___vfprintf_internal_r+0x1de8>
 4002508:	d9402917 	ldw	r5,164(sp)
 400250c:	2d801a16 	blt	r5,r22,4002578 <___vfprintf_internal_r+0x1de8>
 4002510:	dd803215 	stw	r22,200(sp)
 4002514:	003e8906 	br	4001f3c <__alt_mem_SRAM+0xfbfe1f3c>
 4002518:	01010074 	movhi	r4,1025
 400251c:	2102f384 	addi	r4,r4,3022
 4002520:	d9002b15 	stw	r4,172(sp)
 4002524:	003c9106 	br	400176c <__alt_mem_SRAM+0xfbfe176c>
 4002528:	e005883a 	mov	r2,fp
 400252c:	003e7906 	br	4001f14 <__alt_mem_SRAM+0xfbfe1f14>
 4002530:	d9402917 	ldw	r5,164(sp)
 4002534:	df002783 	ldbu	fp,158(sp)
 4002538:	dcc02d15 	stw	r19,180(sp)
 400253c:	d9402a15 	stw	r5,168(sp)
 4002540:	d9402e15 	stw	r5,184(sp)
 4002544:	d8002915 	stw	zero,164(sp)
 4002548:	d8003215 	stw	zero,200(sp)
 400254c:	003a5d06 	br	4000ec4 <__alt_mem_SRAM+0xfbfe0ec4>
 4002550:	9080004c 	andi	r2,r18,1
 4002554:	0039883a 	mov	fp,zero
 4002558:	10000426 	beq	r2,zero,400256c <___vfprintf_internal_r+0x1ddc>
 400255c:	00800c04 	movi	r2,48
 4002560:	dc001dc4 	addi	r16,sp,119
 4002564:	d8801dc5 	stb	r2,119(sp)
 4002568:	003b8006 	br	400136c <__alt_mem_SRAM+0xfbfe136c>
 400256c:	d8002e15 	stw	zero,184(sp)
 4002570:	dc001e04 	addi	r16,sp,120
 4002574:	003a4d06 	br	4000eac <__alt_mem_SRAM+0xfbfe0eac>
 4002578:	8c7fff84 	addi	r17,r17,-2
 400257c:	b5bfffc4 	addi	r22,r22,-1
 4002580:	dd802615 	stw	r22,152(sp)
 4002584:	dc4022c5 	stb	r17,139(sp)
 4002588:	b000bf16 	blt	r22,zero,4002888 <___vfprintf_internal_r+0x20f8>
 400258c:	00800ac4 	movi	r2,43
 4002590:	d8802305 	stb	r2,140(sp)
 4002594:	00800244 	movi	r2,9
 4002598:	15807016 	blt	r2,r22,400275c <___vfprintf_internal_r+0x1fcc>
 400259c:	00800c04 	movi	r2,48
 40025a0:	b5800c04 	addi	r22,r22,48
 40025a4:	d8802345 	stb	r2,141(sp)
 40025a8:	dd802385 	stb	r22,142(sp)
 40025ac:	d88023c4 	addi	r2,sp,143
 40025b0:	df0022c4 	addi	fp,sp,139
 40025b4:	d8c03317 	ldw	r3,204(sp)
 40025b8:	1739c83a 	sub	fp,r2,fp
 40025bc:	d9003317 	ldw	r4,204(sp)
 40025c0:	e0c7883a 	add	r3,fp,r3
 40025c4:	df003a15 	stw	fp,232(sp)
 40025c8:	d8c02e15 	stw	r3,184(sp)
 40025cc:	00800044 	movi	r2,1
 40025d0:	1100b30e 	bge	r2,r4,40028a0 <___vfprintf_internal_r+0x2110>
 40025d4:	d8c02e17 	ldw	r3,184(sp)
 40025d8:	18c00044 	addi	r3,r3,1
 40025dc:	d8c02e15 	stw	r3,184(sp)
 40025e0:	1805883a 	mov	r2,r3
 40025e4:	1800ac16 	blt	r3,zero,4002898 <___vfprintf_internal_r+0x2108>
 40025e8:	d8003215 	stw	zero,200(sp)
 40025ec:	003e5d06 	br	4001f64 <__alt_mem_SRAM+0xfbfe1f64>
 40025f0:	d9002c17 	ldw	r4,176(sp)
 40025f4:	d9801e04 	addi	r6,sp,120
 40025f8:	b80b883a 	mov	r5,r23
 40025fc:	4007d8c0 	call	4007d8c <__sprint_r>
 4002600:	1039651e 	bne	r2,zero,4000b98 <__alt_mem_SRAM+0xfbfe0b98>
 4002604:	dc402617 	ldw	r17,152(sp)
 4002608:	d8c02017 	ldw	r3,128(sp)
 400260c:	d8801f17 	ldw	r2,124(sp)
 4002610:	da000404 	addi	r8,sp,16
 4002614:	003ed606 	br	4002170 <__alt_mem_SRAM+0xfbfe2170>
 4002618:	582b883a 	mov	r21,r11
 400261c:	d8002915 	stw	zero,164(sp)
 4002620:	0038bd06 	br	4000918 <__alt_mem_SRAM+0xfbfe0918>
 4002624:	d8802917 	ldw	r2,164(sp)
 4002628:	103e071e 	bne	r2,zero,4001e48 <__alt_mem_SRAM+0xfbfe1e48>
 400262c:	dc002915 	stw	r16,164(sp)
 4002630:	003e0506 	br	4001e48 <__alt_mem_SRAM+0xfbfe1e48>
 4002634:	d9002917 	ldw	r4,164(sp)
 4002638:	20c00044 	addi	r3,r4,1
 400263c:	003e0f06 	br	4001e7c <__alt_mem_SRAM+0xfbfe1e7c>
 4002640:	01400184 	movi	r5,6
 4002644:	d9402915 	stw	r5,164(sp)
 4002648:	003dff06 	br	4001e48 <__alt_mem_SRAM+0xfbfe1e48>
 400264c:	d8802104 	addi	r2,sp,132
 4002650:	d8800315 	stw	r2,12(sp)
 4002654:	d8802504 	addi	r2,sp,148
 4002658:	d8800215 	stw	r2,8(sp)
 400265c:	d8802604 	addi	r2,sp,152
 4002660:	d8800115 	stw	r2,4(sp)
 4002664:	d8802917 	ldw	r2,164(sp)
 4002668:	d9403617 	ldw	r5,216(sp)
 400266c:	d9002c17 	ldw	r4,176(sp)
 4002670:	d8800015 	stw	r2,0(sp)
 4002674:	01c000c4 	movi	r7,3
 4002678:	980d883a 	mov	r6,r19
 400267c:	da003d15 	stw	r8,244(sp)
 4002680:	4002db40 	call	4002db4 <_dtoa_r>
 4002684:	d8c02917 	ldw	r3,164(sp)
 4002688:	da003d17 	ldw	r8,244(sp)
 400268c:	1021883a 	mov	r16,r2
 4002690:	10f9883a 	add	fp,r2,r3
 4002694:	81000007 	ldb	r4,0(r16)
 4002698:	00800c04 	movi	r2,48
 400269c:	20805e26 	beq	r4,r2,4002818 <___vfprintf_internal_r+0x2088>
 40026a0:	d8c02617 	ldw	r3,152(sp)
 40026a4:	e0f9883a 	add	fp,fp,r3
 40026a8:	003e0a06 	br	4001ed4 <__alt_mem_SRAM+0xfbfe1ed4>
 40026ac:	00c00b44 	movi	r3,45
 40026b0:	24e0003c 	xorhi	r19,r4,32768
 40026b4:	d8c02a05 	stb	r3,168(sp)
 40026b8:	003de906 	br	4001e60 <__alt_mem_SRAM+0xfbfe1e60>
 40026bc:	d8c03217 	ldw	r3,200(sp)
 40026c0:	00c07a0e 	bge	zero,r3,40028ac <___vfprintf_internal_r+0x211c>
 40026c4:	00800044 	movi	r2,1
 40026c8:	d9003317 	ldw	r4,204(sp)
 40026cc:	1105883a 	add	r2,r2,r4
 40026d0:	d8802e15 	stw	r2,184(sp)
 40026d4:	10004e16 	blt	r2,zero,4002810 <___vfprintf_internal_r+0x2080>
 40026d8:	044019c4 	movi	r17,103
 40026dc:	003e2106 	br	4001f64 <__alt_mem_SRAM+0xfbfe1f64>
 40026e0:	d9002917 	ldw	r4,164(sp)
 40026e4:	d8802104 	addi	r2,sp,132
 40026e8:	d8800315 	stw	r2,12(sp)
 40026ec:	d9000015 	stw	r4,0(sp)
 40026f0:	d8802504 	addi	r2,sp,148
 40026f4:	d9403617 	ldw	r5,216(sp)
 40026f8:	d9002c17 	ldw	r4,176(sp)
 40026fc:	d8800215 	stw	r2,8(sp)
 4002700:	d8802604 	addi	r2,sp,152
 4002704:	d8800115 	stw	r2,4(sp)
 4002708:	01c000c4 	movi	r7,3
 400270c:	980d883a 	mov	r6,r19
 4002710:	da003d15 	stw	r8,244(sp)
 4002714:	4002db40 	call	4002db4 <_dtoa_r>
 4002718:	d8c02917 	ldw	r3,164(sp)
 400271c:	da003d17 	ldw	r8,244(sp)
 4002720:	1021883a 	mov	r16,r2
 4002724:	00801184 	movi	r2,70
 4002728:	80f9883a 	add	fp,r16,r3
 400272c:	88bfd926 	beq	r17,r2,4002694 <__alt_mem_SRAM+0xfbfe2694>
 4002730:	003de806 	br	4001ed4 <__alt_mem_SRAM+0xfbfe1ed4>
 4002734:	d9002917 	ldw	r4,164(sp)
 4002738:	00c04d0e 	bge	zero,r3,4002870 <___vfprintf_internal_r+0x20e0>
 400273c:	2000441e 	bne	r4,zero,4002850 <___vfprintf_internal_r+0x20c0>
 4002740:	9480004c 	andi	r18,r18,1
 4002744:	9000421e 	bne	r18,zero,4002850 <___vfprintf_internal_r+0x20c0>
 4002748:	1805883a 	mov	r2,r3
 400274c:	18007016 	blt	r3,zero,4002910 <___vfprintf_internal_r+0x2180>
 4002750:	d8c03217 	ldw	r3,200(sp)
 4002754:	d8c02e15 	stw	r3,184(sp)
 4002758:	003e0206 	br	4001f64 <__alt_mem_SRAM+0xfbfe1f64>
 400275c:	df0022c4 	addi	fp,sp,139
 4002760:	dc002915 	stw	r16,164(sp)
 4002764:	4027883a 	mov	r19,r8
 4002768:	e021883a 	mov	r16,fp
 400276c:	b009883a 	mov	r4,r22
 4002770:	01400284 	movi	r5,10
 4002774:	400a7400 	call	400a740 <__modsi3>
 4002778:	10800c04 	addi	r2,r2,48
 400277c:	843fffc4 	addi	r16,r16,-1
 4002780:	b009883a 	mov	r4,r22
 4002784:	01400284 	movi	r5,10
 4002788:	80800005 	stb	r2,0(r16)
 400278c:	400a6bc0 	call	400a6bc <__divsi3>
 4002790:	102d883a 	mov	r22,r2
 4002794:	00800244 	movi	r2,9
 4002798:	15bff416 	blt	r2,r22,400276c <__alt_mem_SRAM+0xfbfe276c>
 400279c:	9811883a 	mov	r8,r19
 40027a0:	b0800c04 	addi	r2,r22,48
 40027a4:	8027883a 	mov	r19,r16
 40027a8:	997fffc4 	addi	r5,r19,-1
 40027ac:	98bfffc5 	stb	r2,-1(r19)
 40027b0:	dc002917 	ldw	r16,164(sp)
 40027b4:	2f006a2e 	bgeu	r5,fp,4002960 <___vfprintf_internal_r+0x21d0>
 40027b8:	d9c02384 	addi	r7,sp,142
 40027bc:	3ccfc83a 	sub	r7,r7,r19
 40027c0:	d9002344 	addi	r4,sp,141
 40027c4:	e1cf883a 	add	r7,fp,r7
 40027c8:	00000106 	br	40027d0 <___vfprintf_internal_r+0x2040>
 40027cc:	28800003 	ldbu	r2,0(r5)
 40027d0:	20800005 	stb	r2,0(r4)
 40027d4:	21000044 	addi	r4,r4,1
 40027d8:	29400044 	addi	r5,r5,1
 40027dc:	393ffb1e 	bne	r7,r4,40027cc <__alt_mem_SRAM+0xfbfe27cc>
 40027e0:	d8802304 	addi	r2,sp,140
 40027e4:	14c5c83a 	sub	r2,r2,r19
 40027e8:	d8c02344 	addi	r3,sp,141
 40027ec:	1885883a 	add	r2,r3,r2
 40027f0:	003f7006 	br	40025b4 <__alt_mem_SRAM+0xfbfe25b4>
 40027f4:	0005883a 	mov	r2,zero
 40027f8:	003f0f06 	br	4002438 <__alt_mem_SRAM+0xfbfe2438>
 40027fc:	d8c03217 	ldw	r3,200(sp)
 4002800:	18c00044 	addi	r3,r3,1
 4002804:	d8c02e15 	stw	r3,184(sp)
 4002808:	1805883a 	mov	r2,r3
 400280c:	183fb20e 	bge	r3,zero,40026d8 <__alt_mem_SRAM+0xfbfe26d8>
 4002810:	0005883a 	mov	r2,zero
 4002814:	003fb006 	br	40026d8 <__alt_mem_SRAM+0xfbfe26d8>
 4002818:	d9003617 	ldw	r4,216(sp)
 400281c:	000d883a 	mov	r6,zero
 4002820:	000f883a 	mov	r7,zero
 4002824:	980b883a 	mov	r5,r19
 4002828:	d8c03c15 	stw	r3,240(sp)
 400282c:	da003d15 	stw	r8,244(sp)
 4002830:	400ba040 	call	400ba04 <__eqdf2>
 4002834:	d8c03c17 	ldw	r3,240(sp)
 4002838:	da003d17 	ldw	r8,244(sp)
 400283c:	103f9826 	beq	r2,zero,40026a0 <__alt_mem_SRAM+0xfbfe26a0>
 4002840:	00800044 	movi	r2,1
 4002844:	10c7c83a 	sub	r3,r2,r3
 4002848:	d8c02615 	stw	r3,152(sp)
 400284c:	003f9506 	br	40026a4 <__alt_mem_SRAM+0xfbfe26a4>
 4002850:	d9002917 	ldw	r4,164(sp)
 4002854:	d8c03217 	ldw	r3,200(sp)
 4002858:	20800044 	addi	r2,r4,1
 400285c:	1885883a 	add	r2,r3,r2
 4002860:	d8802e15 	stw	r2,184(sp)
 4002864:	103dbf0e 	bge	r2,zero,4001f64 <__alt_mem_SRAM+0xfbfe1f64>
 4002868:	0005883a 	mov	r2,zero
 400286c:	003dbd06 	br	4001f64 <__alt_mem_SRAM+0xfbfe1f64>
 4002870:	2000211e 	bne	r4,zero,40028f8 <___vfprintf_internal_r+0x2168>
 4002874:	9480004c 	andi	r18,r18,1
 4002878:	90001f1e 	bne	r18,zero,40028f8 <___vfprintf_internal_r+0x2168>
 400287c:	00800044 	movi	r2,1
 4002880:	d8802e15 	stw	r2,184(sp)
 4002884:	003db706 	br	4001f64 <__alt_mem_SRAM+0xfbfe1f64>
 4002888:	00800b44 	movi	r2,45
 400288c:	05adc83a 	sub	r22,zero,r22
 4002890:	d8802305 	stb	r2,140(sp)
 4002894:	003f3f06 	br	4002594 <__alt_mem_SRAM+0xfbfe2594>
 4002898:	0005883a 	mov	r2,zero
 400289c:	003f5206 	br	40025e8 <__alt_mem_SRAM+0xfbfe25e8>
 40028a0:	90a4703a 	and	r18,r18,r2
 40028a4:	903f4e26 	beq	r18,zero,40025e0 <__alt_mem_SRAM+0xfbfe25e0>
 40028a8:	003f4a06 	br	40025d4 <__alt_mem_SRAM+0xfbfe25d4>
 40028ac:	00800084 	movi	r2,2
 40028b0:	10c5c83a 	sub	r2,r2,r3
 40028b4:	003f8406 	br	40026c8 <__alt_mem_SRAM+0xfbfe26c8>
 40028b8:	d8802d17 	ldw	r2,180(sp)
 40028bc:	d9002d17 	ldw	r4,180(sp)
 40028c0:	ac400043 	ldbu	r17,1(r21)
 40028c4:	10800017 	ldw	r2,0(r2)
 40028c8:	582b883a 	mov	r21,r11
 40028cc:	d8802915 	stw	r2,164(sp)
 40028d0:	20800104 	addi	r2,r4,4
 40028d4:	d9002917 	ldw	r4,164(sp)
 40028d8:	d8802d15 	stw	r2,180(sp)
 40028dc:	203e7a0e 	bge	r4,zero,40022c8 <__alt_mem_SRAM+0xfbfe22c8>
 40028e0:	8c403fcc 	andi	r17,r17,255
 40028e4:	00bfffc4 	movi	r2,-1
 40028e8:	8c40201c 	xori	r17,r17,128
 40028ec:	d8802915 	stw	r2,164(sp)
 40028f0:	8c7fe004 	addi	r17,r17,-128
 40028f4:	00380706 	br	4000914 <__alt_mem_SRAM+0xfbfe0914>
 40028f8:	d8c02917 	ldw	r3,164(sp)
 40028fc:	18c00084 	addi	r3,r3,2
 4002900:	d8c02e15 	stw	r3,184(sp)
 4002904:	1805883a 	mov	r2,r3
 4002908:	183d960e 	bge	r3,zero,4001f64 <__alt_mem_SRAM+0xfbfe1f64>
 400290c:	003fd606 	br	4002868 <__alt_mem_SRAM+0xfbfe2868>
 4002910:	0005883a 	mov	r2,zero
 4002914:	003f8e06 	br	4002750 <__alt_mem_SRAM+0xfbfe2750>
 4002918:	9080004c 	andi	r2,r18,1
 400291c:	103f811e 	bne	r2,zero,4002724 <__alt_mem_SRAM+0xfbfe2724>
 4002920:	d8802117 	ldw	r2,132(sp)
 4002924:	1405c83a 	sub	r2,r2,r16
 4002928:	d8803315 	stw	r2,204(sp)
 400292c:	b47ef326 	beq	r22,r17,40024fc <__alt_mem_SRAM+0xfbfe24fc>
 4002930:	dd802617 	ldw	r22,152(sp)
 4002934:	003f1106 	br	400257c <__alt_mem_SRAM+0xfbfe257c>
 4002938:	d9c02785 	stb	r7,158(sp)
 400293c:	00390406 	br	4000d50 <__alt_mem_SRAM+0xfbfe0d50>
 4002940:	d9c02785 	stb	r7,158(sp)
 4002944:	0038d306 	br	4000c94 <__alt_mem_SRAM+0xfbfe0c94>
 4002948:	d9c02785 	stb	r7,158(sp)
 400294c:	003a6106 	br	40012d4 <__alt_mem_SRAM+0xfbfe12d4>
 4002950:	d9c02785 	stb	r7,158(sp)
 4002954:	003af806 	br	4001538 <__alt_mem_SRAM+0xfbfe1538>
 4002958:	0005883a 	mov	r2,zero
 400295c:	003d7e06 	br	4001f58 <__alt_mem_SRAM+0xfbfe1f58>
 4002960:	d8802344 	addi	r2,sp,141
 4002964:	003f1306 	br	40025b4 <__alt_mem_SRAM+0xfbfe25b4>
 4002968:	d9c02785 	stb	r7,158(sp)
 400296c:	00392306 	br	4000dfc <__alt_mem_SRAM+0xfbfe0dfc>
 4002970:	d9c02785 	stb	r7,158(sp)
 4002974:	003aa906 	br	400141c <__alt_mem_SRAM+0xfbfe141c>
 4002978:	d9c02785 	stb	r7,158(sp)
 400297c:	003a3d06 	br	4001274 <__alt_mem_SRAM+0xfbfe1274>
 4002980:	d9c02785 	stb	r7,158(sp)
 4002984:	003aca06 	br	40014b0 <__alt_mem_SRAM+0xfbfe14b0>

04002988 <__vfprintf_internal>:
 4002988:	00810074 	movhi	r2,1025
 400298c:	108a9904 	addi	r2,r2,10852
 4002990:	300f883a 	mov	r7,r6
 4002994:	280d883a 	mov	r6,r5
 4002998:	200b883a 	mov	r5,r4
 400299c:	11000017 	ldw	r4,0(r2)
 40029a0:	40007901 	jmpi	4000790 <___vfprintf_internal_r>

040029a4 <__sbprintf>:
 40029a4:	2880030b 	ldhu	r2,12(r5)
 40029a8:	2ac01917 	ldw	r11,100(r5)
 40029ac:	2a80038b 	ldhu	r10,14(r5)
 40029b0:	2a400717 	ldw	r9,28(r5)
 40029b4:	2a000917 	ldw	r8,36(r5)
 40029b8:	defee204 	addi	sp,sp,-1144
 40029bc:	00c10004 	movi	r3,1024
 40029c0:	dc011a15 	stw	r16,1128(sp)
 40029c4:	10bfff4c 	andi	r2,r2,65533
 40029c8:	2821883a 	mov	r16,r5
 40029cc:	d8cb883a 	add	r5,sp,r3
 40029d0:	dc811c15 	stw	r18,1136(sp)
 40029d4:	dc411b15 	stw	r17,1132(sp)
 40029d8:	dfc11d15 	stw	ra,1140(sp)
 40029dc:	2025883a 	mov	r18,r4
 40029e0:	d881030d 	sth	r2,1036(sp)
 40029e4:	dac11915 	stw	r11,1124(sp)
 40029e8:	da81038d 	sth	r10,1038(sp)
 40029ec:	da410715 	stw	r9,1052(sp)
 40029f0:	da010915 	stw	r8,1060(sp)
 40029f4:	dec10015 	stw	sp,1024(sp)
 40029f8:	dec10415 	stw	sp,1040(sp)
 40029fc:	d8c10215 	stw	r3,1032(sp)
 4002a00:	d8c10515 	stw	r3,1044(sp)
 4002a04:	d8010615 	stw	zero,1048(sp)
 4002a08:	40007900 	call	4000790 <___vfprintf_internal_r>
 4002a0c:	1023883a 	mov	r17,r2
 4002a10:	10000416 	blt	r2,zero,4002a24 <__sbprintf+0x80>
 4002a14:	d9410004 	addi	r5,sp,1024
 4002a18:	9009883a 	mov	r4,r18
 4002a1c:	40046580 	call	4004658 <_fflush_r>
 4002a20:	10000d1e 	bne	r2,zero,4002a58 <__sbprintf+0xb4>
 4002a24:	d881030b 	ldhu	r2,1036(sp)
 4002a28:	1080100c 	andi	r2,r2,64
 4002a2c:	10000326 	beq	r2,zero,4002a3c <__sbprintf+0x98>
 4002a30:	8080030b 	ldhu	r2,12(r16)
 4002a34:	10801014 	ori	r2,r2,64
 4002a38:	8080030d 	sth	r2,12(r16)
 4002a3c:	8805883a 	mov	r2,r17
 4002a40:	dfc11d17 	ldw	ra,1140(sp)
 4002a44:	dc811c17 	ldw	r18,1136(sp)
 4002a48:	dc411b17 	ldw	r17,1132(sp)
 4002a4c:	dc011a17 	ldw	r16,1128(sp)
 4002a50:	dec11e04 	addi	sp,sp,1144
 4002a54:	f800283a 	ret
 4002a58:	047fffc4 	movi	r17,-1
 4002a5c:	003ff106 	br	4002a24 <__alt_mem_SRAM+0xfbfe2a24>

04002a60 <__swsetup_r>:
 4002a60:	00810074 	movhi	r2,1025
 4002a64:	defffd04 	addi	sp,sp,-12
 4002a68:	108a9904 	addi	r2,r2,10852
 4002a6c:	dc400115 	stw	r17,4(sp)
 4002a70:	2023883a 	mov	r17,r4
 4002a74:	11000017 	ldw	r4,0(r2)
 4002a78:	dc000015 	stw	r16,0(sp)
 4002a7c:	dfc00215 	stw	ra,8(sp)
 4002a80:	2821883a 	mov	r16,r5
 4002a84:	20000226 	beq	r4,zero,4002a90 <__swsetup_r+0x30>
 4002a88:	20800e17 	ldw	r2,56(r4)
 4002a8c:	10003126 	beq	r2,zero,4002b54 <__swsetup_r+0xf4>
 4002a90:	8080030b 	ldhu	r2,12(r16)
 4002a94:	10c0020c 	andi	r3,r2,8
 4002a98:	1009883a 	mov	r4,r2
 4002a9c:	18000f26 	beq	r3,zero,4002adc <__swsetup_r+0x7c>
 4002aa0:	80c00417 	ldw	r3,16(r16)
 4002aa4:	18001526 	beq	r3,zero,4002afc <__swsetup_r+0x9c>
 4002aa8:	1100004c 	andi	r4,r2,1
 4002aac:	20001c1e 	bne	r4,zero,4002b20 <__swsetup_r+0xc0>
 4002ab0:	1080008c 	andi	r2,r2,2
 4002ab4:	1000291e 	bne	r2,zero,4002b5c <__swsetup_r+0xfc>
 4002ab8:	80800517 	ldw	r2,20(r16)
 4002abc:	80800215 	stw	r2,8(r16)
 4002ac0:	18001c26 	beq	r3,zero,4002b34 <__swsetup_r+0xd4>
 4002ac4:	0005883a 	mov	r2,zero
 4002ac8:	dfc00217 	ldw	ra,8(sp)
 4002acc:	dc400117 	ldw	r17,4(sp)
 4002ad0:	dc000017 	ldw	r16,0(sp)
 4002ad4:	dec00304 	addi	sp,sp,12
 4002ad8:	f800283a 	ret
 4002adc:	2080040c 	andi	r2,r4,16
 4002ae0:	10002e26 	beq	r2,zero,4002b9c <__swsetup_r+0x13c>
 4002ae4:	2080010c 	andi	r2,r4,4
 4002ae8:	10001e1e 	bne	r2,zero,4002b64 <__swsetup_r+0x104>
 4002aec:	80c00417 	ldw	r3,16(r16)
 4002af0:	20800214 	ori	r2,r4,8
 4002af4:	8080030d 	sth	r2,12(r16)
 4002af8:	183feb1e 	bne	r3,zero,4002aa8 <__alt_mem_SRAM+0xfbfe2aa8>
 4002afc:	1100a00c 	andi	r4,r2,640
 4002b00:	01408004 	movi	r5,512
 4002b04:	217fe826 	beq	r4,r5,4002aa8 <__alt_mem_SRAM+0xfbfe2aa8>
 4002b08:	800b883a 	mov	r5,r16
 4002b0c:	8809883a 	mov	r4,r17
 4002b10:	40055d80 	call	40055d8 <__smakebuf_r>
 4002b14:	8080030b 	ldhu	r2,12(r16)
 4002b18:	80c00417 	ldw	r3,16(r16)
 4002b1c:	003fe206 	br	4002aa8 <__alt_mem_SRAM+0xfbfe2aa8>
 4002b20:	80800517 	ldw	r2,20(r16)
 4002b24:	80000215 	stw	zero,8(r16)
 4002b28:	0085c83a 	sub	r2,zero,r2
 4002b2c:	80800615 	stw	r2,24(r16)
 4002b30:	183fe41e 	bne	r3,zero,4002ac4 <__alt_mem_SRAM+0xfbfe2ac4>
 4002b34:	80c0030b 	ldhu	r3,12(r16)
 4002b38:	0005883a 	mov	r2,zero
 4002b3c:	1900200c 	andi	r4,r3,128
 4002b40:	203fe126 	beq	r4,zero,4002ac8 <__alt_mem_SRAM+0xfbfe2ac8>
 4002b44:	18c01014 	ori	r3,r3,64
 4002b48:	80c0030d 	sth	r3,12(r16)
 4002b4c:	00bfffc4 	movi	r2,-1
 4002b50:	003fdd06 	br	4002ac8 <__alt_mem_SRAM+0xfbfe2ac8>
 4002b54:	4004a340 	call	4004a34 <__sinit>
 4002b58:	003fcd06 	br	4002a90 <__alt_mem_SRAM+0xfbfe2a90>
 4002b5c:	0005883a 	mov	r2,zero
 4002b60:	003fd606 	br	4002abc <__alt_mem_SRAM+0xfbfe2abc>
 4002b64:	81400c17 	ldw	r5,48(r16)
 4002b68:	28000626 	beq	r5,zero,4002b84 <__swsetup_r+0x124>
 4002b6c:	80801004 	addi	r2,r16,64
 4002b70:	28800326 	beq	r5,r2,4002b80 <__swsetup_r+0x120>
 4002b74:	8809883a 	mov	r4,r17
 4002b78:	4004ba80 	call	4004ba8 <_free_r>
 4002b7c:	8100030b 	ldhu	r4,12(r16)
 4002b80:	80000c15 	stw	zero,48(r16)
 4002b84:	80c00417 	ldw	r3,16(r16)
 4002b88:	00bff6c4 	movi	r2,-37
 4002b8c:	1108703a 	and	r4,r2,r4
 4002b90:	80000115 	stw	zero,4(r16)
 4002b94:	80c00015 	stw	r3,0(r16)
 4002b98:	003fd506 	br	4002af0 <__alt_mem_SRAM+0xfbfe2af0>
 4002b9c:	00800244 	movi	r2,9
 4002ba0:	88800015 	stw	r2,0(r17)
 4002ba4:	20801014 	ori	r2,r4,64
 4002ba8:	8080030d 	sth	r2,12(r16)
 4002bac:	00bfffc4 	movi	r2,-1
 4002bb0:	003fc506 	br	4002ac8 <__alt_mem_SRAM+0xfbfe2ac8>

04002bb4 <quorem>:
 4002bb4:	defff704 	addi	sp,sp,-36
 4002bb8:	dc800215 	stw	r18,8(sp)
 4002bbc:	20800417 	ldw	r2,16(r4)
 4002bc0:	2c800417 	ldw	r18,16(r5)
 4002bc4:	dfc00815 	stw	ra,32(sp)
 4002bc8:	ddc00715 	stw	r23,28(sp)
 4002bcc:	dd800615 	stw	r22,24(sp)
 4002bd0:	dd400515 	stw	r21,20(sp)
 4002bd4:	dd000415 	stw	r20,16(sp)
 4002bd8:	dcc00315 	stw	r19,12(sp)
 4002bdc:	dc400115 	stw	r17,4(sp)
 4002be0:	dc000015 	stw	r16,0(sp)
 4002be4:	14807116 	blt	r2,r18,4002dac <quorem+0x1f8>
 4002be8:	94bfffc4 	addi	r18,r18,-1
 4002bec:	94ad883a 	add	r22,r18,r18
 4002bf0:	b5ad883a 	add	r22,r22,r22
 4002bf4:	2c400504 	addi	r17,r5,20
 4002bf8:	8da9883a 	add	r20,r17,r22
 4002bfc:	25400504 	addi	r21,r4,20
 4002c00:	282f883a 	mov	r23,r5
 4002c04:	adad883a 	add	r22,r21,r22
 4002c08:	a1400017 	ldw	r5,0(r20)
 4002c0c:	2021883a 	mov	r16,r4
 4002c10:	b1000017 	ldw	r4,0(r22)
 4002c14:	29400044 	addi	r5,r5,1
 4002c18:	400a7b40 	call	400a7b4 <__udivsi3>
 4002c1c:	1027883a 	mov	r19,r2
 4002c20:	10002c26 	beq	r2,zero,4002cd4 <quorem+0x120>
 4002c24:	a813883a 	mov	r9,r21
 4002c28:	880b883a 	mov	r5,r17
 4002c2c:	0009883a 	mov	r4,zero
 4002c30:	000d883a 	mov	r6,zero
 4002c34:	2a000017 	ldw	r8,0(r5)
 4002c38:	49c00017 	ldw	r7,0(r9)
 4002c3c:	29400104 	addi	r5,r5,4
 4002c40:	40bfffcc 	andi	r2,r8,65535
 4002c44:	14c5383a 	mul	r2,r2,r19
 4002c48:	4010d43a 	srli	r8,r8,16
 4002c4c:	38ffffcc 	andi	r3,r7,65535
 4002c50:	1105883a 	add	r2,r2,r4
 4002c54:	1008d43a 	srli	r4,r2,16
 4002c58:	44d1383a 	mul	r8,r8,r19
 4002c5c:	198d883a 	add	r6,r3,r6
 4002c60:	10ffffcc 	andi	r3,r2,65535
 4002c64:	30c7c83a 	sub	r3,r6,r3
 4002c68:	380ed43a 	srli	r7,r7,16
 4002c6c:	4105883a 	add	r2,r8,r4
 4002c70:	180dd43a 	srai	r6,r3,16
 4002c74:	113fffcc 	andi	r4,r2,65535
 4002c78:	390fc83a 	sub	r7,r7,r4
 4002c7c:	398d883a 	add	r6,r7,r6
 4002c80:	300e943a 	slli	r7,r6,16
 4002c84:	18ffffcc 	andi	r3,r3,65535
 4002c88:	1008d43a 	srli	r4,r2,16
 4002c8c:	38ceb03a 	or	r7,r7,r3
 4002c90:	49c00015 	stw	r7,0(r9)
 4002c94:	300dd43a 	srai	r6,r6,16
 4002c98:	4a400104 	addi	r9,r9,4
 4002c9c:	a17fe52e 	bgeu	r20,r5,4002c34 <__alt_mem_SRAM+0xfbfe2c34>
 4002ca0:	b0800017 	ldw	r2,0(r22)
 4002ca4:	10000b1e 	bne	r2,zero,4002cd4 <quorem+0x120>
 4002ca8:	b0bfff04 	addi	r2,r22,-4
 4002cac:	a880082e 	bgeu	r21,r2,4002cd0 <quorem+0x11c>
 4002cb0:	b0ffff17 	ldw	r3,-4(r22)
 4002cb4:	18000326 	beq	r3,zero,4002cc4 <quorem+0x110>
 4002cb8:	00000506 	br	4002cd0 <quorem+0x11c>
 4002cbc:	10c00017 	ldw	r3,0(r2)
 4002cc0:	1800031e 	bne	r3,zero,4002cd0 <quorem+0x11c>
 4002cc4:	10bfff04 	addi	r2,r2,-4
 4002cc8:	94bfffc4 	addi	r18,r18,-1
 4002ccc:	a8bffb36 	bltu	r21,r2,4002cbc <__alt_mem_SRAM+0xfbfe2cbc>
 4002cd0:	84800415 	stw	r18,16(r16)
 4002cd4:	b80b883a 	mov	r5,r23
 4002cd8:	8009883a 	mov	r4,r16
 4002cdc:	4006d180 	call	4006d18 <__mcmp>
 4002ce0:	10002616 	blt	r2,zero,4002d7c <quorem+0x1c8>
 4002ce4:	9cc00044 	addi	r19,r19,1
 4002ce8:	a805883a 	mov	r2,r21
 4002cec:	000b883a 	mov	r5,zero
 4002cf0:	11000017 	ldw	r4,0(r2)
 4002cf4:	89800017 	ldw	r6,0(r17)
 4002cf8:	10800104 	addi	r2,r2,4
 4002cfc:	20ffffcc 	andi	r3,r4,65535
 4002d00:	194b883a 	add	r5,r3,r5
 4002d04:	30ffffcc 	andi	r3,r6,65535
 4002d08:	28c7c83a 	sub	r3,r5,r3
 4002d0c:	300cd43a 	srli	r6,r6,16
 4002d10:	2008d43a 	srli	r4,r4,16
 4002d14:	180bd43a 	srai	r5,r3,16
 4002d18:	18ffffcc 	andi	r3,r3,65535
 4002d1c:	2189c83a 	sub	r4,r4,r6
 4002d20:	2149883a 	add	r4,r4,r5
 4002d24:	200c943a 	slli	r6,r4,16
 4002d28:	8c400104 	addi	r17,r17,4
 4002d2c:	200bd43a 	srai	r5,r4,16
 4002d30:	30c6b03a 	or	r3,r6,r3
 4002d34:	10ffff15 	stw	r3,-4(r2)
 4002d38:	a47fed2e 	bgeu	r20,r17,4002cf0 <__alt_mem_SRAM+0xfbfe2cf0>
 4002d3c:	9485883a 	add	r2,r18,r18
 4002d40:	1085883a 	add	r2,r2,r2
 4002d44:	a887883a 	add	r3,r21,r2
 4002d48:	18800017 	ldw	r2,0(r3)
 4002d4c:	10000b1e 	bne	r2,zero,4002d7c <quorem+0x1c8>
 4002d50:	18bfff04 	addi	r2,r3,-4
 4002d54:	a880082e 	bgeu	r21,r2,4002d78 <quorem+0x1c4>
 4002d58:	18ffff17 	ldw	r3,-4(r3)
 4002d5c:	18000326 	beq	r3,zero,4002d6c <quorem+0x1b8>
 4002d60:	00000506 	br	4002d78 <quorem+0x1c4>
 4002d64:	10c00017 	ldw	r3,0(r2)
 4002d68:	1800031e 	bne	r3,zero,4002d78 <quorem+0x1c4>
 4002d6c:	10bfff04 	addi	r2,r2,-4
 4002d70:	94bfffc4 	addi	r18,r18,-1
 4002d74:	a8bffb36 	bltu	r21,r2,4002d64 <__alt_mem_SRAM+0xfbfe2d64>
 4002d78:	84800415 	stw	r18,16(r16)
 4002d7c:	9805883a 	mov	r2,r19
 4002d80:	dfc00817 	ldw	ra,32(sp)
 4002d84:	ddc00717 	ldw	r23,28(sp)
 4002d88:	dd800617 	ldw	r22,24(sp)
 4002d8c:	dd400517 	ldw	r21,20(sp)
 4002d90:	dd000417 	ldw	r20,16(sp)
 4002d94:	dcc00317 	ldw	r19,12(sp)
 4002d98:	dc800217 	ldw	r18,8(sp)
 4002d9c:	dc400117 	ldw	r17,4(sp)
 4002da0:	dc000017 	ldw	r16,0(sp)
 4002da4:	dec00904 	addi	sp,sp,36
 4002da8:	f800283a 	ret
 4002dac:	0005883a 	mov	r2,zero
 4002db0:	003ff306 	br	4002d80 <__alt_mem_SRAM+0xfbfe2d80>

04002db4 <_dtoa_r>:
 4002db4:	20801017 	ldw	r2,64(r4)
 4002db8:	deffde04 	addi	sp,sp,-136
 4002dbc:	df002015 	stw	fp,128(sp)
 4002dc0:	dcc01b15 	stw	r19,108(sp)
 4002dc4:	dc801a15 	stw	r18,104(sp)
 4002dc8:	dc401915 	stw	r17,100(sp)
 4002dcc:	dc001815 	stw	r16,96(sp)
 4002dd0:	dfc02115 	stw	ra,132(sp)
 4002dd4:	ddc01f15 	stw	r23,124(sp)
 4002dd8:	dd801e15 	stw	r22,120(sp)
 4002ddc:	dd401d15 	stw	r21,116(sp)
 4002de0:	dd001c15 	stw	r20,112(sp)
 4002de4:	d9c00315 	stw	r7,12(sp)
 4002de8:	2039883a 	mov	fp,r4
 4002dec:	3023883a 	mov	r17,r6
 4002df0:	2825883a 	mov	r18,r5
 4002df4:	dc002417 	ldw	r16,144(sp)
 4002df8:	3027883a 	mov	r19,r6
 4002dfc:	10000826 	beq	r2,zero,4002e20 <_dtoa_r+0x6c>
 4002e00:	21801117 	ldw	r6,68(r4)
 4002e04:	00c00044 	movi	r3,1
 4002e08:	100b883a 	mov	r5,r2
 4002e0c:	1986983a 	sll	r3,r3,r6
 4002e10:	11800115 	stw	r6,4(r2)
 4002e14:	10c00215 	stw	r3,8(r2)
 4002e18:	40064f80 	call	40064f8 <_Bfree>
 4002e1c:	e0001015 	stw	zero,64(fp)
 4002e20:	88002e16 	blt	r17,zero,4002edc <_dtoa_r+0x128>
 4002e24:	80000015 	stw	zero,0(r16)
 4002e28:	889ffc2c 	andhi	r2,r17,32752
 4002e2c:	00dffc34 	movhi	r3,32752
 4002e30:	10c01c26 	beq	r2,r3,4002ea4 <_dtoa_r+0xf0>
 4002e34:	000d883a 	mov	r6,zero
 4002e38:	000f883a 	mov	r7,zero
 4002e3c:	9009883a 	mov	r4,r18
 4002e40:	980b883a 	mov	r5,r19
 4002e44:	400ba040 	call	400ba04 <__eqdf2>
 4002e48:	10002b1e 	bne	r2,zero,4002ef8 <_dtoa_r+0x144>
 4002e4c:	d9c02317 	ldw	r7,140(sp)
 4002e50:	00800044 	movi	r2,1
 4002e54:	38800015 	stw	r2,0(r7)
 4002e58:	d8802517 	ldw	r2,148(sp)
 4002e5c:	10019e26 	beq	r2,zero,40034d8 <_dtoa_r+0x724>
 4002e60:	d8c02517 	ldw	r3,148(sp)
 4002e64:	00810074 	movhi	r2,1025
 4002e68:	1082f344 	addi	r2,r2,3021
 4002e6c:	18800015 	stw	r2,0(r3)
 4002e70:	10bfffc4 	addi	r2,r2,-1
 4002e74:	dfc02117 	ldw	ra,132(sp)
 4002e78:	df002017 	ldw	fp,128(sp)
 4002e7c:	ddc01f17 	ldw	r23,124(sp)
 4002e80:	dd801e17 	ldw	r22,120(sp)
 4002e84:	dd401d17 	ldw	r21,116(sp)
 4002e88:	dd001c17 	ldw	r20,112(sp)
 4002e8c:	dcc01b17 	ldw	r19,108(sp)
 4002e90:	dc801a17 	ldw	r18,104(sp)
 4002e94:	dc401917 	ldw	r17,100(sp)
 4002e98:	dc001817 	ldw	r16,96(sp)
 4002e9c:	dec02204 	addi	sp,sp,136
 4002ea0:	f800283a 	ret
 4002ea4:	d8c02317 	ldw	r3,140(sp)
 4002ea8:	0089c3c4 	movi	r2,9999
 4002eac:	18800015 	stw	r2,0(r3)
 4002eb0:	90017726 	beq	r18,zero,4003490 <_dtoa_r+0x6dc>
 4002eb4:	00810074 	movhi	r2,1025
 4002eb8:	1082ff04 	addi	r2,r2,3068
 4002ebc:	d9002517 	ldw	r4,148(sp)
 4002ec0:	203fec26 	beq	r4,zero,4002e74 <__alt_mem_SRAM+0xfbfe2e74>
 4002ec4:	10c000c7 	ldb	r3,3(r2)
 4002ec8:	1801781e 	bne	r3,zero,40034ac <_dtoa_r+0x6f8>
 4002ecc:	10c000c4 	addi	r3,r2,3
 4002ed0:	d9802517 	ldw	r6,148(sp)
 4002ed4:	30c00015 	stw	r3,0(r6)
 4002ed8:	003fe606 	br	4002e74 <__alt_mem_SRAM+0xfbfe2e74>
 4002edc:	04e00034 	movhi	r19,32768
 4002ee0:	9cffffc4 	addi	r19,r19,-1
 4002ee4:	00800044 	movi	r2,1
 4002ee8:	8ce6703a 	and	r19,r17,r19
 4002eec:	80800015 	stw	r2,0(r16)
 4002ef0:	9823883a 	mov	r17,r19
 4002ef4:	003fcc06 	br	4002e28 <__alt_mem_SRAM+0xfbfe2e28>
 4002ef8:	d8800204 	addi	r2,sp,8
 4002efc:	d8800015 	stw	r2,0(sp)
 4002f00:	d9c00104 	addi	r7,sp,4
 4002f04:	900b883a 	mov	r5,r18
 4002f08:	980d883a 	mov	r6,r19
 4002f0c:	e009883a 	mov	r4,fp
 4002f10:	8820d53a 	srli	r16,r17,20
 4002f14:	40070e40 	call	40070e4 <__d2b>
 4002f18:	d8800915 	stw	r2,36(sp)
 4002f1c:	8001651e 	bne	r16,zero,40034b4 <_dtoa_r+0x700>
 4002f20:	dd800217 	ldw	r22,8(sp)
 4002f24:	dc000117 	ldw	r16,4(sp)
 4002f28:	00800804 	movi	r2,32
 4002f2c:	b421883a 	add	r16,r22,r16
 4002f30:	80c10c84 	addi	r3,r16,1074
 4002f34:	10c2d10e 	bge	r2,r3,4003a7c <_dtoa_r+0xcc8>
 4002f38:	00801004 	movi	r2,64
 4002f3c:	81010484 	addi	r4,r16,1042
 4002f40:	10c7c83a 	sub	r3,r2,r3
 4002f44:	9108d83a 	srl	r4,r18,r4
 4002f48:	88e2983a 	sll	r17,r17,r3
 4002f4c:	2448b03a 	or	r4,r4,r17
 4002f50:	400cdcc0 	call	400cdcc <__floatunsidf>
 4002f54:	017f8434 	movhi	r5,65040
 4002f58:	01800044 	movi	r6,1
 4002f5c:	1009883a 	mov	r4,r2
 4002f60:	194b883a 	add	r5,r3,r5
 4002f64:	843fffc4 	addi	r16,r16,-1
 4002f68:	d9801115 	stw	r6,68(sp)
 4002f6c:	000d883a 	mov	r6,zero
 4002f70:	01cffe34 	movhi	r7,16376
 4002f74:	400c3740 	call	400c374 <__subdf3>
 4002f78:	0198dbf4 	movhi	r6,25455
 4002f7c:	01cff4f4 	movhi	r7,16339
 4002f80:	3190d844 	addi	r6,r6,17249
 4002f84:	39e1e9c4 	addi	r7,r7,-30809
 4002f88:	1009883a 	mov	r4,r2
 4002f8c:	180b883a 	mov	r5,r3
 4002f90:	400bc5c0 	call	400bc5c <__muldf3>
 4002f94:	01a2d874 	movhi	r6,35681
 4002f98:	01cff1f4 	movhi	r7,16327
 4002f9c:	31b22cc4 	addi	r6,r6,-14157
 4002fa0:	39e28a04 	addi	r7,r7,-30168
 4002fa4:	180b883a 	mov	r5,r3
 4002fa8:	1009883a 	mov	r4,r2
 4002fac:	400a8700 	call	400a870 <__adddf3>
 4002fb0:	8009883a 	mov	r4,r16
 4002fb4:	1029883a 	mov	r20,r2
 4002fb8:	1823883a 	mov	r17,r3
 4002fbc:	400ccf00 	call	400ccf0 <__floatsidf>
 4002fc0:	019427f4 	movhi	r6,20639
 4002fc4:	01cff4f4 	movhi	r7,16339
 4002fc8:	319e7ec4 	addi	r6,r6,31227
 4002fcc:	39d104c4 	addi	r7,r7,17427
 4002fd0:	1009883a 	mov	r4,r2
 4002fd4:	180b883a 	mov	r5,r3
 4002fd8:	400bc5c0 	call	400bc5c <__muldf3>
 4002fdc:	100d883a 	mov	r6,r2
 4002fe0:	180f883a 	mov	r7,r3
 4002fe4:	a009883a 	mov	r4,r20
 4002fe8:	880b883a 	mov	r5,r17
 4002fec:	400a8700 	call	400a870 <__adddf3>
 4002ff0:	1009883a 	mov	r4,r2
 4002ff4:	180b883a 	mov	r5,r3
 4002ff8:	1029883a 	mov	r20,r2
 4002ffc:	1823883a 	mov	r17,r3
 4003000:	400cc700 	call	400cc70 <__fixdfsi>
 4003004:	000d883a 	mov	r6,zero
 4003008:	000f883a 	mov	r7,zero
 400300c:	a009883a 	mov	r4,r20
 4003010:	880b883a 	mov	r5,r17
 4003014:	d8800515 	stw	r2,20(sp)
 4003018:	400bb680 	call	400bb68 <__ledf2>
 400301c:	10028716 	blt	r2,zero,4003a3c <_dtoa_r+0xc88>
 4003020:	d8c00517 	ldw	r3,20(sp)
 4003024:	00800584 	movi	r2,22
 4003028:	10c27536 	bltu	r2,r3,4003a00 <_dtoa_r+0xc4c>
 400302c:	180490fa 	slli	r2,r3,3
 4003030:	00c10074 	movhi	r3,1025
 4003034:	18c31b04 	addi	r3,r3,3180
 4003038:	1885883a 	add	r2,r3,r2
 400303c:	11000017 	ldw	r4,0(r2)
 4003040:	11400117 	ldw	r5,4(r2)
 4003044:	900d883a 	mov	r6,r18
 4003048:	980f883a 	mov	r7,r19
 400304c:	400ba8c0 	call	400ba8c <__gedf2>
 4003050:	00828d0e 	bge	zero,r2,4003a88 <_dtoa_r+0xcd4>
 4003054:	d9000517 	ldw	r4,20(sp)
 4003058:	d8000e15 	stw	zero,56(sp)
 400305c:	213fffc4 	addi	r4,r4,-1
 4003060:	d9000515 	stw	r4,20(sp)
 4003064:	b42dc83a 	sub	r22,r22,r16
 4003068:	b5bfffc4 	addi	r22,r22,-1
 400306c:	b0026f16 	blt	r22,zero,4003a2c <_dtoa_r+0xc78>
 4003070:	d8000815 	stw	zero,32(sp)
 4003074:	d9c00517 	ldw	r7,20(sp)
 4003078:	38026416 	blt	r7,zero,4003a0c <_dtoa_r+0xc58>
 400307c:	b1ed883a 	add	r22,r22,r7
 4003080:	d9c00d15 	stw	r7,52(sp)
 4003084:	d8000a15 	stw	zero,40(sp)
 4003088:	d9800317 	ldw	r6,12(sp)
 400308c:	00800244 	movi	r2,9
 4003090:	11811436 	bltu	r2,r6,40034e4 <_dtoa_r+0x730>
 4003094:	00800144 	movi	r2,5
 4003098:	1184e10e 	bge	r2,r6,4004420 <_dtoa_r+0x166c>
 400309c:	31bfff04 	addi	r6,r6,-4
 40030a0:	d9800315 	stw	r6,12(sp)
 40030a4:	0023883a 	mov	r17,zero
 40030a8:	d9800317 	ldw	r6,12(sp)
 40030ac:	008000c4 	movi	r2,3
 40030b0:	30836726 	beq	r6,r2,4003e50 <_dtoa_r+0x109c>
 40030b4:	1183410e 	bge	r2,r6,4003dbc <_dtoa_r+0x1008>
 40030b8:	d9c00317 	ldw	r7,12(sp)
 40030bc:	00800104 	movi	r2,4
 40030c0:	38827c26 	beq	r7,r2,4003ab4 <_dtoa_r+0xd00>
 40030c4:	00800144 	movi	r2,5
 40030c8:	3884c41e 	bne	r7,r2,40043dc <_dtoa_r+0x1628>
 40030cc:	00800044 	movi	r2,1
 40030d0:	d8800b15 	stw	r2,44(sp)
 40030d4:	d8c00517 	ldw	r3,20(sp)
 40030d8:	d9002217 	ldw	r4,136(sp)
 40030dc:	1907883a 	add	r3,r3,r4
 40030e0:	19800044 	addi	r6,r3,1
 40030e4:	d8c00c15 	stw	r3,48(sp)
 40030e8:	d9800615 	stw	r6,24(sp)
 40030ec:	0183a40e 	bge	zero,r6,4003f80 <_dtoa_r+0x11cc>
 40030f0:	d9800617 	ldw	r6,24(sp)
 40030f4:	3021883a 	mov	r16,r6
 40030f8:	e0001115 	stw	zero,68(fp)
 40030fc:	008005c4 	movi	r2,23
 4003100:	1184c92e 	bgeu	r2,r6,4004428 <_dtoa_r+0x1674>
 4003104:	00c00044 	movi	r3,1
 4003108:	00800104 	movi	r2,4
 400310c:	1085883a 	add	r2,r2,r2
 4003110:	11000504 	addi	r4,r2,20
 4003114:	180b883a 	mov	r5,r3
 4003118:	18c00044 	addi	r3,r3,1
 400311c:	313ffb2e 	bgeu	r6,r4,400310c <__alt_mem_SRAM+0xfbfe310c>
 4003120:	e1401115 	stw	r5,68(fp)
 4003124:	e009883a 	mov	r4,fp
 4003128:	40064500 	call	4006450 <_Balloc>
 400312c:	d8800715 	stw	r2,28(sp)
 4003130:	e0801015 	stw	r2,64(fp)
 4003134:	00800384 	movi	r2,14
 4003138:	1400f736 	bltu	r2,r16,4003518 <_dtoa_r+0x764>
 400313c:	8800f626 	beq	r17,zero,4003518 <_dtoa_r+0x764>
 4003140:	d9c00517 	ldw	r7,20(sp)
 4003144:	01c39a0e 	bge	zero,r7,4003fb0 <_dtoa_r+0x11fc>
 4003148:	388003cc 	andi	r2,r7,15
 400314c:	100490fa 	slli	r2,r2,3
 4003150:	382bd13a 	srai	r21,r7,4
 4003154:	00c10074 	movhi	r3,1025
 4003158:	18c31b04 	addi	r3,r3,3180
 400315c:	1885883a 	add	r2,r3,r2
 4003160:	a8c0040c 	andi	r3,r21,16
 4003164:	12400017 	ldw	r9,0(r2)
 4003168:	12000117 	ldw	r8,4(r2)
 400316c:	18037926 	beq	r3,zero,4003f54 <_dtoa_r+0x11a0>
 4003170:	00810074 	movhi	r2,1025
 4003174:	10831104 	addi	r2,r2,3140
 4003178:	11800817 	ldw	r6,32(r2)
 400317c:	11c00917 	ldw	r7,36(r2)
 4003180:	9009883a 	mov	r4,r18
 4003184:	980b883a 	mov	r5,r19
 4003188:	da001715 	stw	r8,92(sp)
 400318c:	da401615 	stw	r9,88(sp)
 4003190:	400b11c0 	call	400b11c <__divdf3>
 4003194:	da001717 	ldw	r8,92(sp)
 4003198:	da401617 	ldw	r9,88(sp)
 400319c:	ad4003cc 	andi	r21,r21,15
 40031a0:	040000c4 	movi	r16,3
 40031a4:	1023883a 	mov	r17,r2
 40031a8:	1829883a 	mov	r20,r3
 40031ac:	a8001126 	beq	r21,zero,40031f4 <_dtoa_r+0x440>
 40031b0:	05c10074 	movhi	r23,1025
 40031b4:	bdc31104 	addi	r23,r23,3140
 40031b8:	4805883a 	mov	r2,r9
 40031bc:	4007883a 	mov	r3,r8
 40031c0:	a980004c 	andi	r6,r21,1
 40031c4:	1009883a 	mov	r4,r2
 40031c8:	a82bd07a 	srai	r21,r21,1
 40031cc:	180b883a 	mov	r5,r3
 40031d0:	30000426 	beq	r6,zero,40031e4 <_dtoa_r+0x430>
 40031d4:	b9800017 	ldw	r6,0(r23)
 40031d8:	b9c00117 	ldw	r7,4(r23)
 40031dc:	84000044 	addi	r16,r16,1
 40031e0:	400bc5c0 	call	400bc5c <__muldf3>
 40031e4:	bdc00204 	addi	r23,r23,8
 40031e8:	a83ff51e 	bne	r21,zero,40031c0 <__alt_mem_SRAM+0xfbfe31c0>
 40031ec:	1013883a 	mov	r9,r2
 40031f0:	1811883a 	mov	r8,r3
 40031f4:	480d883a 	mov	r6,r9
 40031f8:	400f883a 	mov	r7,r8
 40031fc:	8809883a 	mov	r4,r17
 4003200:	a00b883a 	mov	r5,r20
 4003204:	400b11c0 	call	400b11c <__divdf3>
 4003208:	d8800f15 	stw	r2,60(sp)
 400320c:	d8c01015 	stw	r3,64(sp)
 4003210:	d8c00e17 	ldw	r3,56(sp)
 4003214:	18000626 	beq	r3,zero,4003230 <_dtoa_r+0x47c>
 4003218:	d9000f17 	ldw	r4,60(sp)
 400321c:	d9401017 	ldw	r5,64(sp)
 4003220:	000d883a 	mov	r6,zero
 4003224:	01cffc34 	movhi	r7,16368
 4003228:	400bb680 	call	400bb68 <__ledf2>
 400322c:	10040b16 	blt	r2,zero,400425c <_dtoa_r+0x14a8>
 4003230:	8009883a 	mov	r4,r16
 4003234:	400ccf00 	call	400ccf0 <__floatsidf>
 4003238:	d9800f17 	ldw	r6,60(sp)
 400323c:	d9c01017 	ldw	r7,64(sp)
 4003240:	1009883a 	mov	r4,r2
 4003244:	180b883a 	mov	r5,r3
 4003248:	400bc5c0 	call	400bc5c <__muldf3>
 400324c:	000d883a 	mov	r6,zero
 4003250:	01d00734 	movhi	r7,16412
 4003254:	1009883a 	mov	r4,r2
 4003258:	180b883a 	mov	r5,r3
 400325c:	400a8700 	call	400a870 <__adddf3>
 4003260:	1021883a 	mov	r16,r2
 4003264:	d8800617 	ldw	r2,24(sp)
 4003268:	047f3034 	movhi	r17,64704
 400326c:	1c63883a 	add	r17,r3,r17
 4003270:	10031826 	beq	r2,zero,4003ed4 <_dtoa_r+0x1120>
 4003274:	d8c00517 	ldw	r3,20(sp)
 4003278:	db000617 	ldw	r12,24(sp)
 400327c:	d8c01315 	stw	r3,76(sp)
 4003280:	d9000b17 	ldw	r4,44(sp)
 4003284:	20038f26 	beq	r4,zero,40040c4 <_dtoa_r+0x1310>
 4003288:	60bfffc4 	addi	r2,r12,-1
 400328c:	100490fa 	slli	r2,r2,3
 4003290:	00c10074 	movhi	r3,1025
 4003294:	18c31b04 	addi	r3,r3,3180
 4003298:	1885883a 	add	r2,r3,r2
 400329c:	11800017 	ldw	r6,0(r2)
 40032a0:	11c00117 	ldw	r7,4(r2)
 40032a4:	d8800717 	ldw	r2,28(sp)
 40032a8:	0009883a 	mov	r4,zero
 40032ac:	014ff834 	movhi	r5,16352
 40032b0:	db001615 	stw	r12,88(sp)
 40032b4:	15c00044 	addi	r23,r2,1
 40032b8:	400b11c0 	call	400b11c <__divdf3>
 40032bc:	800d883a 	mov	r6,r16
 40032c0:	880f883a 	mov	r7,r17
 40032c4:	1009883a 	mov	r4,r2
 40032c8:	180b883a 	mov	r5,r3
 40032cc:	400c3740 	call	400c374 <__subdf3>
 40032d0:	d9401017 	ldw	r5,64(sp)
 40032d4:	d9000f17 	ldw	r4,60(sp)
 40032d8:	102b883a 	mov	r21,r2
 40032dc:	d8c01215 	stw	r3,72(sp)
 40032e0:	400cc700 	call	400cc70 <__fixdfsi>
 40032e4:	1009883a 	mov	r4,r2
 40032e8:	1029883a 	mov	r20,r2
 40032ec:	400ccf00 	call	400ccf0 <__floatsidf>
 40032f0:	d9000f17 	ldw	r4,60(sp)
 40032f4:	d9401017 	ldw	r5,64(sp)
 40032f8:	100d883a 	mov	r6,r2
 40032fc:	180f883a 	mov	r7,r3
 4003300:	400c3740 	call	400c374 <__subdf3>
 4003304:	1823883a 	mov	r17,r3
 4003308:	d8c00717 	ldw	r3,28(sp)
 400330c:	d9401217 	ldw	r5,72(sp)
 4003310:	a2000c04 	addi	r8,r20,48
 4003314:	1021883a 	mov	r16,r2
 4003318:	1a000005 	stb	r8,0(r3)
 400331c:	800d883a 	mov	r6,r16
 4003320:	880f883a 	mov	r7,r17
 4003324:	a809883a 	mov	r4,r21
 4003328:	4029883a 	mov	r20,r8
 400332c:	400ba8c0 	call	400ba8c <__gedf2>
 4003330:	00841d16 	blt	zero,r2,40043a8 <_dtoa_r+0x15f4>
 4003334:	800d883a 	mov	r6,r16
 4003338:	880f883a 	mov	r7,r17
 400333c:	0009883a 	mov	r4,zero
 4003340:	014ffc34 	movhi	r5,16368
 4003344:	400c3740 	call	400c374 <__subdf3>
 4003348:	d9401217 	ldw	r5,72(sp)
 400334c:	100d883a 	mov	r6,r2
 4003350:	180f883a 	mov	r7,r3
 4003354:	a809883a 	mov	r4,r21
 4003358:	400ba8c0 	call	400ba8c <__gedf2>
 400335c:	db001617 	ldw	r12,88(sp)
 4003360:	00840e16 	blt	zero,r2,400439c <_dtoa_r+0x15e8>
 4003364:	00800044 	movi	r2,1
 4003368:	13006b0e 	bge	r2,r12,4003518 <_dtoa_r+0x764>
 400336c:	d9000717 	ldw	r4,28(sp)
 4003370:	dd800f15 	stw	r22,60(sp)
 4003374:	dcc01015 	stw	r19,64(sp)
 4003378:	2319883a 	add	r12,r4,r12
 400337c:	dcc01217 	ldw	r19,72(sp)
 4003380:	602d883a 	mov	r22,r12
 4003384:	dc801215 	stw	r18,72(sp)
 4003388:	b825883a 	mov	r18,r23
 400338c:	00000906 	br	40033b4 <_dtoa_r+0x600>
 4003390:	400c3740 	call	400c374 <__subdf3>
 4003394:	a80d883a 	mov	r6,r21
 4003398:	980f883a 	mov	r7,r19
 400339c:	1009883a 	mov	r4,r2
 40033a0:	180b883a 	mov	r5,r3
 40033a4:	400bb680 	call	400bb68 <__ledf2>
 40033a8:	1003e816 	blt	r2,zero,400434c <_dtoa_r+0x1598>
 40033ac:	b825883a 	mov	r18,r23
 40033b0:	bd83e926 	beq	r23,r22,4004358 <_dtoa_r+0x15a4>
 40033b4:	a809883a 	mov	r4,r21
 40033b8:	980b883a 	mov	r5,r19
 40033bc:	000d883a 	mov	r6,zero
 40033c0:	01d00934 	movhi	r7,16420
 40033c4:	400bc5c0 	call	400bc5c <__muldf3>
 40033c8:	000d883a 	mov	r6,zero
 40033cc:	01d00934 	movhi	r7,16420
 40033d0:	8009883a 	mov	r4,r16
 40033d4:	880b883a 	mov	r5,r17
 40033d8:	102b883a 	mov	r21,r2
 40033dc:	1827883a 	mov	r19,r3
 40033e0:	400bc5c0 	call	400bc5c <__muldf3>
 40033e4:	180b883a 	mov	r5,r3
 40033e8:	1009883a 	mov	r4,r2
 40033ec:	1821883a 	mov	r16,r3
 40033f0:	1023883a 	mov	r17,r2
 40033f4:	400cc700 	call	400cc70 <__fixdfsi>
 40033f8:	1009883a 	mov	r4,r2
 40033fc:	1029883a 	mov	r20,r2
 4003400:	400ccf00 	call	400ccf0 <__floatsidf>
 4003404:	8809883a 	mov	r4,r17
 4003408:	800b883a 	mov	r5,r16
 400340c:	100d883a 	mov	r6,r2
 4003410:	180f883a 	mov	r7,r3
 4003414:	400c3740 	call	400c374 <__subdf3>
 4003418:	a5000c04 	addi	r20,r20,48
 400341c:	a80d883a 	mov	r6,r21
 4003420:	980f883a 	mov	r7,r19
 4003424:	1009883a 	mov	r4,r2
 4003428:	180b883a 	mov	r5,r3
 400342c:	95000005 	stb	r20,0(r18)
 4003430:	1021883a 	mov	r16,r2
 4003434:	1823883a 	mov	r17,r3
 4003438:	400bb680 	call	400bb68 <__ledf2>
 400343c:	bdc00044 	addi	r23,r23,1
 4003440:	800d883a 	mov	r6,r16
 4003444:	880f883a 	mov	r7,r17
 4003448:	0009883a 	mov	r4,zero
 400344c:	014ffc34 	movhi	r5,16368
 4003450:	103fcf0e 	bge	r2,zero,4003390 <__alt_mem_SRAM+0xfbfe3390>
 4003454:	d8c01317 	ldw	r3,76(sp)
 4003458:	d8c00515 	stw	r3,20(sp)
 400345c:	d9400917 	ldw	r5,36(sp)
 4003460:	e009883a 	mov	r4,fp
 4003464:	40064f80 	call	40064f8 <_Bfree>
 4003468:	d9000517 	ldw	r4,20(sp)
 400346c:	d9802317 	ldw	r6,140(sp)
 4003470:	d9c02517 	ldw	r7,148(sp)
 4003474:	b8000005 	stb	zero,0(r23)
 4003478:	20800044 	addi	r2,r4,1
 400347c:	30800015 	stw	r2,0(r6)
 4003480:	3802aa26 	beq	r7,zero,4003f2c <_dtoa_r+0x1178>
 4003484:	3dc00015 	stw	r23,0(r7)
 4003488:	d8800717 	ldw	r2,28(sp)
 400348c:	003e7906 	br	4002e74 <__alt_mem_SRAM+0xfbfe2e74>
 4003490:	00800434 	movhi	r2,16
 4003494:	10bfffc4 	addi	r2,r2,-1
 4003498:	88a2703a 	and	r17,r17,r2
 400349c:	883e851e 	bne	r17,zero,4002eb4 <__alt_mem_SRAM+0xfbfe2eb4>
 40034a0:	00810074 	movhi	r2,1025
 40034a4:	1082fc04 	addi	r2,r2,3056
 40034a8:	003e8406 	br	4002ebc <__alt_mem_SRAM+0xfbfe2ebc>
 40034ac:	10c00204 	addi	r3,r2,8
 40034b0:	003e8706 	br	4002ed0 <__alt_mem_SRAM+0xfbfe2ed0>
 40034b4:	01400434 	movhi	r5,16
 40034b8:	297fffc4 	addi	r5,r5,-1
 40034bc:	994a703a 	and	r5,r19,r5
 40034c0:	9009883a 	mov	r4,r18
 40034c4:	843f0044 	addi	r16,r16,-1023
 40034c8:	294ffc34 	orhi	r5,r5,16368
 40034cc:	dd800217 	ldw	r22,8(sp)
 40034d0:	d8001115 	stw	zero,68(sp)
 40034d4:	003ea506 	br	4002f6c <__alt_mem_SRAM+0xfbfe2f6c>
 40034d8:	00810074 	movhi	r2,1025
 40034dc:	1082f304 	addi	r2,r2,3020
 40034e0:	003e6406 	br	4002e74 <__alt_mem_SRAM+0xfbfe2e74>
 40034e4:	e0001115 	stw	zero,68(fp)
 40034e8:	000b883a 	mov	r5,zero
 40034ec:	e009883a 	mov	r4,fp
 40034f0:	40064500 	call	4006450 <_Balloc>
 40034f4:	01bfffc4 	movi	r6,-1
 40034f8:	01c00044 	movi	r7,1
 40034fc:	d8800715 	stw	r2,28(sp)
 4003500:	d9800c15 	stw	r6,48(sp)
 4003504:	e0801015 	stw	r2,64(fp)
 4003508:	d8000315 	stw	zero,12(sp)
 400350c:	d9c00b15 	stw	r7,44(sp)
 4003510:	d9800615 	stw	r6,24(sp)
 4003514:	d8002215 	stw	zero,136(sp)
 4003518:	d8800117 	ldw	r2,4(sp)
 400351c:	10008916 	blt	r2,zero,4003744 <_dtoa_r+0x990>
 4003520:	d9000517 	ldw	r4,20(sp)
 4003524:	00c00384 	movi	r3,14
 4003528:	19008616 	blt	r3,r4,4003744 <_dtoa_r+0x990>
 400352c:	200490fa 	slli	r2,r4,3
 4003530:	00c10074 	movhi	r3,1025
 4003534:	d9802217 	ldw	r6,136(sp)
 4003538:	18c31b04 	addi	r3,r3,3180
 400353c:	1885883a 	add	r2,r3,r2
 4003540:	14000017 	ldw	r16,0(r2)
 4003544:	14400117 	ldw	r17,4(r2)
 4003548:	30016316 	blt	r6,zero,4003ad8 <_dtoa_r+0xd24>
 400354c:	800d883a 	mov	r6,r16
 4003550:	880f883a 	mov	r7,r17
 4003554:	9009883a 	mov	r4,r18
 4003558:	980b883a 	mov	r5,r19
 400355c:	400b11c0 	call	400b11c <__divdf3>
 4003560:	180b883a 	mov	r5,r3
 4003564:	1009883a 	mov	r4,r2
 4003568:	400cc700 	call	400cc70 <__fixdfsi>
 400356c:	1009883a 	mov	r4,r2
 4003570:	102b883a 	mov	r21,r2
 4003574:	400ccf00 	call	400ccf0 <__floatsidf>
 4003578:	800d883a 	mov	r6,r16
 400357c:	880f883a 	mov	r7,r17
 4003580:	1009883a 	mov	r4,r2
 4003584:	180b883a 	mov	r5,r3
 4003588:	400bc5c0 	call	400bc5c <__muldf3>
 400358c:	100d883a 	mov	r6,r2
 4003590:	180f883a 	mov	r7,r3
 4003594:	9009883a 	mov	r4,r18
 4003598:	980b883a 	mov	r5,r19
 400359c:	400c3740 	call	400c374 <__subdf3>
 40035a0:	d9c00717 	ldw	r7,28(sp)
 40035a4:	1009883a 	mov	r4,r2
 40035a8:	a8800c04 	addi	r2,r21,48
 40035ac:	38800005 	stb	r2,0(r7)
 40035b0:	3dc00044 	addi	r23,r7,1
 40035b4:	d9c00617 	ldw	r7,24(sp)
 40035b8:	01800044 	movi	r6,1
 40035bc:	180b883a 	mov	r5,r3
 40035c0:	2005883a 	mov	r2,r4
 40035c4:	39803826 	beq	r7,r6,40036a8 <_dtoa_r+0x8f4>
 40035c8:	000d883a 	mov	r6,zero
 40035cc:	01d00934 	movhi	r7,16420
 40035d0:	400bc5c0 	call	400bc5c <__muldf3>
 40035d4:	000d883a 	mov	r6,zero
 40035d8:	000f883a 	mov	r7,zero
 40035dc:	1009883a 	mov	r4,r2
 40035e0:	180b883a 	mov	r5,r3
 40035e4:	1025883a 	mov	r18,r2
 40035e8:	1827883a 	mov	r19,r3
 40035ec:	400ba040 	call	400ba04 <__eqdf2>
 40035f0:	103f9a26 	beq	r2,zero,400345c <__alt_mem_SRAM+0xfbfe345c>
 40035f4:	d9c00617 	ldw	r7,24(sp)
 40035f8:	d8c00717 	ldw	r3,28(sp)
 40035fc:	b829883a 	mov	r20,r23
 4003600:	38bfffc4 	addi	r2,r7,-1
 4003604:	18ad883a 	add	r22,r3,r2
 4003608:	00000a06 	br	4003634 <_dtoa_r+0x880>
 400360c:	400bc5c0 	call	400bc5c <__muldf3>
 4003610:	000d883a 	mov	r6,zero
 4003614:	000f883a 	mov	r7,zero
 4003618:	1009883a 	mov	r4,r2
 400361c:	180b883a 	mov	r5,r3
 4003620:	1025883a 	mov	r18,r2
 4003624:	1827883a 	mov	r19,r3
 4003628:	b829883a 	mov	r20,r23
 400362c:	400ba040 	call	400ba04 <__eqdf2>
 4003630:	103f8a26 	beq	r2,zero,400345c <__alt_mem_SRAM+0xfbfe345c>
 4003634:	800d883a 	mov	r6,r16
 4003638:	880f883a 	mov	r7,r17
 400363c:	9009883a 	mov	r4,r18
 4003640:	980b883a 	mov	r5,r19
 4003644:	400b11c0 	call	400b11c <__divdf3>
 4003648:	180b883a 	mov	r5,r3
 400364c:	1009883a 	mov	r4,r2
 4003650:	400cc700 	call	400cc70 <__fixdfsi>
 4003654:	1009883a 	mov	r4,r2
 4003658:	102b883a 	mov	r21,r2
 400365c:	400ccf00 	call	400ccf0 <__floatsidf>
 4003660:	800d883a 	mov	r6,r16
 4003664:	880f883a 	mov	r7,r17
 4003668:	1009883a 	mov	r4,r2
 400366c:	180b883a 	mov	r5,r3
 4003670:	400bc5c0 	call	400bc5c <__muldf3>
 4003674:	100d883a 	mov	r6,r2
 4003678:	180f883a 	mov	r7,r3
 400367c:	9009883a 	mov	r4,r18
 4003680:	980b883a 	mov	r5,r19
 4003684:	400c3740 	call	400c374 <__subdf3>
 4003688:	aa000c04 	addi	r8,r21,48
 400368c:	a2000005 	stb	r8,0(r20)
 4003690:	000d883a 	mov	r6,zero
 4003694:	01d00934 	movhi	r7,16420
 4003698:	1009883a 	mov	r4,r2
 400369c:	180b883a 	mov	r5,r3
 40036a0:	a5c00044 	addi	r23,r20,1
 40036a4:	b53fd91e 	bne	r22,r20,400360c <__alt_mem_SRAM+0xfbfe360c>
 40036a8:	100d883a 	mov	r6,r2
 40036ac:	180f883a 	mov	r7,r3
 40036b0:	1009883a 	mov	r4,r2
 40036b4:	180b883a 	mov	r5,r3
 40036b8:	400a8700 	call	400a870 <__adddf3>
 40036bc:	100d883a 	mov	r6,r2
 40036c0:	180f883a 	mov	r7,r3
 40036c4:	8009883a 	mov	r4,r16
 40036c8:	880b883a 	mov	r5,r17
 40036cc:	1027883a 	mov	r19,r2
 40036d0:	1825883a 	mov	r18,r3
 40036d4:	400bb680 	call	400bb68 <__ledf2>
 40036d8:	10000816 	blt	r2,zero,40036fc <_dtoa_r+0x948>
 40036dc:	980d883a 	mov	r6,r19
 40036e0:	900f883a 	mov	r7,r18
 40036e4:	8009883a 	mov	r4,r16
 40036e8:	880b883a 	mov	r5,r17
 40036ec:	400ba040 	call	400ba04 <__eqdf2>
 40036f0:	103f5a1e 	bne	r2,zero,400345c <__alt_mem_SRAM+0xfbfe345c>
 40036f4:	ad40004c 	andi	r21,r21,1
 40036f8:	a83f5826 	beq	r21,zero,400345c <__alt_mem_SRAM+0xfbfe345c>
 40036fc:	bd3fffc3 	ldbu	r20,-1(r23)
 4003700:	b8bfffc4 	addi	r2,r23,-1
 4003704:	1007883a 	mov	r3,r2
 4003708:	01400e44 	movi	r5,57
 400370c:	d9800717 	ldw	r6,28(sp)
 4003710:	00000506 	br	4003728 <_dtoa_r+0x974>
 4003714:	18ffffc4 	addi	r3,r3,-1
 4003718:	11824726 	beq	r2,r6,4004038 <_dtoa_r+0x1284>
 400371c:	1d000003 	ldbu	r20,0(r3)
 4003720:	102f883a 	mov	r23,r2
 4003724:	10bfffc4 	addi	r2,r2,-1
 4003728:	a1003fcc 	andi	r4,r20,255
 400372c:	2100201c 	xori	r4,r4,128
 4003730:	213fe004 	addi	r4,r4,-128
 4003734:	217ff726 	beq	r4,r5,4003714 <__alt_mem_SRAM+0xfbfe3714>
 4003738:	a2000044 	addi	r8,r20,1
 400373c:	12000005 	stb	r8,0(r2)
 4003740:	003f4606 	br	400345c <__alt_mem_SRAM+0xfbfe345c>
 4003744:	d9000b17 	ldw	r4,44(sp)
 4003748:	2000c826 	beq	r4,zero,4003a6c <_dtoa_r+0xcb8>
 400374c:	d9800317 	ldw	r6,12(sp)
 4003750:	00c00044 	movi	r3,1
 4003754:	1980f90e 	bge	r3,r6,4003b3c <_dtoa_r+0xd88>
 4003758:	d8800617 	ldw	r2,24(sp)
 400375c:	d8c00a17 	ldw	r3,40(sp)
 4003760:	157fffc4 	addi	r21,r2,-1
 4003764:	1d41f316 	blt	r3,r21,4003f34 <_dtoa_r+0x1180>
 4003768:	1d6bc83a 	sub	r21,r3,r21
 400376c:	d9c00617 	ldw	r7,24(sp)
 4003770:	3802aa16 	blt	r7,zero,400421c <_dtoa_r+0x1468>
 4003774:	dd000817 	ldw	r20,32(sp)
 4003778:	d8800617 	ldw	r2,24(sp)
 400377c:	d8c00817 	ldw	r3,32(sp)
 4003780:	01400044 	movi	r5,1
 4003784:	e009883a 	mov	r4,fp
 4003788:	1887883a 	add	r3,r3,r2
 400378c:	d8c00815 	stw	r3,32(sp)
 4003790:	b0ad883a 	add	r22,r22,r2
 4003794:	400685c0 	call	400685c <__i2b>
 4003798:	1023883a 	mov	r17,r2
 400379c:	a0000826 	beq	r20,zero,40037c0 <_dtoa_r+0xa0c>
 40037a0:	0580070e 	bge	zero,r22,40037c0 <_dtoa_r+0xa0c>
 40037a4:	a005883a 	mov	r2,r20
 40037a8:	b500b916 	blt	r22,r20,4003a90 <_dtoa_r+0xcdc>
 40037ac:	d9000817 	ldw	r4,32(sp)
 40037b0:	a0a9c83a 	sub	r20,r20,r2
 40037b4:	b0adc83a 	sub	r22,r22,r2
 40037b8:	2089c83a 	sub	r4,r4,r2
 40037bc:	d9000815 	stw	r4,32(sp)
 40037c0:	d9800a17 	ldw	r6,40(sp)
 40037c4:	0181810e 	bge	zero,r6,4003dcc <_dtoa_r+0x1018>
 40037c8:	d9c00b17 	ldw	r7,44(sp)
 40037cc:	3800b326 	beq	r7,zero,4003a9c <_dtoa_r+0xce8>
 40037d0:	a800b226 	beq	r21,zero,4003a9c <_dtoa_r+0xce8>
 40037d4:	880b883a 	mov	r5,r17
 40037d8:	a80d883a 	mov	r6,r21
 40037dc:	e009883a 	mov	r4,fp
 40037e0:	4006a900 	call	4006a90 <__pow5mult>
 40037e4:	d9800917 	ldw	r6,36(sp)
 40037e8:	100b883a 	mov	r5,r2
 40037ec:	e009883a 	mov	r4,fp
 40037f0:	1023883a 	mov	r17,r2
 40037f4:	40068980 	call	4006898 <__multiply>
 40037f8:	1021883a 	mov	r16,r2
 40037fc:	d8800a17 	ldw	r2,40(sp)
 4003800:	d9400917 	ldw	r5,36(sp)
 4003804:	e009883a 	mov	r4,fp
 4003808:	1545c83a 	sub	r2,r2,r21
 400380c:	d8800a15 	stw	r2,40(sp)
 4003810:	40064f80 	call	40064f8 <_Bfree>
 4003814:	d8c00a17 	ldw	r3,40(sp)
 4003818:	18009f1e 	bne	r3,zero,4003a98 <_dtoa_r+0xce4>
 400381c:	05c00044 	movi	r23,1
 4003820:	e009883a 	mov	r4,fp
 4003824:	b80b883a 	mov	r5,r23
 4003828:	400685c0 	call	400685c <__i2b>
 400382c:	d9000d17 	ldw	r4,52(sp)
 4003830:	102b883a 	mov	r21,r2
 4003834:	2000ce26 	beq	r4,zero,4003b70 <_dtoa_r+0xdbc>
 4003838:	200d883a 	mov	r6,r4
 400383c:	100b883a 	mov	r5,r2
 4003840:	e009883a 	mov	r4,fp
 4003844:	4006a900 	call	4006a90 <__pow5mult>
 4003848:	d9800317 	ldw	r6,12(sp)
 400384c:	102b883a 	mov	r21,r2
 4003850:	b981810e 	bge	r23,r6,4003e58 <_dtoa_r+0x10a4>
 4003854:	0027883a 	mov	r19,zero
 4003858:	a8800417 	ldw	r2,16(r21)
 400385c:	05c00804 	movi	r23,32
 4003860:	10800104 	addi	r2,r2,4
 4003864:	1085883a 	add	r2,r2,r2
 4003868:	1085883a 	add	r2,r2,r2
 400386c:	a885883a 	add	r2,r21,r2
 4003870:	11000017 	ldw	r4,0(r2)
 4003874:	40067440 	call	4006744 <__hi0bits>
 4003878:	b885c83a 	sub	r2,r23,r2
 400387c:	1585883a 	add	r2,r2,r22
 4003880:	108007cc 	andi	r2,r2,31
 4003884:	1000b326 	beq	r2,zero,4003b54 <_dtoa_r+0xda0>
 4003888:	00c00804 	movi	r3,32
 400388c:	1887c83a 	sub	r3,r3,r2
 4003890:	01000104 	movi	r4,4
 4003894:	20c2cd0e 	bge	r4,r3,40043cc <_dtoa_r+0x1618>
 4003898:	00c00704 	movi	r3,28
 400389c:	1885c83a 	sub	r2,r3,r2
 40038a0:	d8c00817 	ldw	r3,32(sp)
 40038a4:	a0a9883a 	add	r20,r20,r2
 40038a8:	b0ad883a 	add	r22,r22,r2
 40038ac:	1887883a 	add	r3,r3,r2
 40038b0:	d8c00815 	stw	r3,32(sp)
 40038b4:	d9800817 	ldw	r6,32(sp)
 40038b8:	0180040e 	bge	zero,r6,40038cc <_dtoa_r+0xb18>
 40038bc:	800b883a 	mov	r5,r16
 40038c0:	e009883a 	mov	r4,fp
 40038c4:	4006bd00 	call	4006bd0 <__lshift>
 40038c8:	1021883a 	mov	r16,r2
 40038cc:	0580050e 	bge	zero,r22,40038e4 <_dtoa_r+0xb30>
 40038d0:	a80b883a 	mov	r5,r21
 40038d4:	b00d883a 	mov	r6,r22
 40038d8:	e009883a 	mov	r4,fp
 40038dc:	4006bd00 	call	4006bd0 <__lshift>
 40038e0:	102b883a 	mov	r21,r2
 40038e4:	d9c00e17 	ldw	r7,56(sp)
 40038e8:	3801211e 	bne	r7,zero,4003d70 <_dtoa_r+0xfbc>
 40038ec:	d9800617 	ldw	r6,24(sp)
 40038f0:	0181380e 	bge	zero,r6,4003dd4 <_dtoa_r+0x1020>
 40038f4:	d8c00b17 	ldw	r3,44(sp)
 40038f8:	1800ab1e 	bne	r3,zero,4003ba8 <_dtoa_r+0xdf4>
 40038fc:	dc800717 	ldw	r18,28(sp)
 4003900:	dcc00617 	ldw	r19,24(sp)
 4003904:	9029883a 	mov	r20,r18
 4003908:	00000206 	br	4003914 <_dtoa_r+0xb60>
 400390c:	40065200 	call	4006520 <__multadd>
 4003910:	1021883a 	mov	r16,r2
 4003914:	a80b883a 	mov	r5,r21
 4003918:	8009883a 	mov	r4,r16
 400391c:	4002bb40 	call	4002bb4 <quorem>
 4003920:	10800c04 	addi	r2,r2,48
 4003924:	90800005 	stb	r2,0(r18)
 4003928:	94800044 	addi	r18,r18,1
 400392c:	9507c83a 	sub	r3,r18,r20
 4003930:	000f883a 	mov	r7,zero
 4003934:	01800284 	movi	r6,10
 4003938:	800b883a 	mov	r5,r16
 400393c:	e009883a 	mov	r4,fp
 4003940:	1cfff216 	blt	r3,r19,400390c <__alt_mem_SRAM+0xfbfe390c>
 4003944:	1011883a 	mov	r8,r2
 4003948:	d8800617 	ldw	r2,24(sp)
 400394c:	0082370e 	bge	zero,r2,400422c <_dtoa_r+0x1478>
 4003950:	d9000717 	ldw	r4,28(sp)
 4003954:	0025883a 	mov	r18,zero
 4003958:	20af883a 	add	r23,r4,r2
 400395c:	01800044 	movi	r6,1
 4003960:	800b883a 	mov	r5,r16
 4003964:	e009883a 	mov	r4,fp
 4003968:	da001715 	stw	r8,92(sp)
 400396c:	4006bd00 	call	4006bd0 <__lshift>
 4003970:	a80b883a 	mov	r5,r21
 4003974:	1009883a 	mov	r4,r2
 4003978:	d8800915 	stw	r2,36(sp)
 400397c:	4006d180 	call	4006d18 <__mcmp>
 4003980:	da001717 	ldw	r8,92(sp)
 4003984:	0081800e 	bge	zero,r2,4003f88 <_dtoa_r+0x11d4>
 4003988:	b93fffc3 	ldbu	r4,-1(r23)
 400398c:	b8bfffc4 	addi	r2,r23,-1
 4003990:	1007883a 	mov	r3,r2
 4003994:	01800e44 	movi	r6,57
 4003998:	d9c00717 	ldw	r7,28(sp)
 400399c:	00000506 	br	40039b4 <_dtoa_r+0xc00>
 40039a0:	18ffffc4 	addi	r3,r3,-1
 40039a4:	11c12326 	beq	r2,r7,4003e34 <_dtoa_r+0x1080>
 40039a8:	19000003 	ldbu	r4,0(r3)
 40039ac:	102f883a 	mov	r23,r2
 40039b0:	10bfffc4 	addi	r2,r2,-1
 40039b4:	21403fcc 	andi	r5,r4,255
 40039b8:	2940201c 	xori	r5,r5,128
 40039bc:	297fe004 	addi	r5,r5,-128
 40039c0:	29bff726 	beq	r5,r6,40039a0 <__alt_mem_SRAM+0xfbfe39a0>
 40039c4:	21000044 	addi	r4,r4,1
 40039c8:	11000005 	stb	r4,0(r2)
 40039cc:	a80b883a 	mov	r5,r21
 40039d0:	e009883a 	mov	r4,fp
 40039d4:	40064f80 	call	40064f8 <_Bfree>
 40039d8:	883ea026 	beq	r17,zero,400345c <__alt_mem_SRAM+0xfbfe345c>
 40039dc:	90000426 	beq	r18,zero,40039f0 <_dtoa_r+0xc3c>
 40039e0:	94400326 	beq	r18,r17,40039f0 <_dtoa_r+0xc3c>
 40039e4:	900b883a 	mov	r5,r18
 40039e8:	e009883a 	mov	r4,fp
 40039ec:	40064f80 	call	40064f8 <_Bfree>
 40039f0:	880b883a 	mov	r5,r17
 40039f4:	e009883a 	mov	r4,fp
 40039f8:	40064f80 	call	40064f8 <_Bfree>
 40039fc:	003e9706 	br	400345c <__alt_mem_SRAM+0xfbfe345c>
 4003a00:	01800044 	movi	r6,1
 4003a04:	d9800e15 	stw	r6,56(sp)
 4003a08:	003d9606 	br	4003064 <__alt_mem_SRAM+0xfbfe3064>
 4003a0c:	d8800817 	ldw	r2,32(sp)
 4003a10:	d8c00517 	ldw	r3,20(sp)
 4003a14:	d8000d15 	stw	zero,52(sp)
 4003a18:	10c5c83a 	sub	r2,r2,r3
 4003a1c:	00c9c83a 	sub	r4,zero,r3
 4003a20:	d8800815 	stw	r2,32(sp)
 4003a24:	d9000a15 	stw	r4,40(sp)
 4003a28:	003d9706 	br	4003088 <__alt_mem_SRAM+0xfbfe3088>
 4003a2c:	05adc83a 	sub	r22,zero,r22
 4003a30:	dd800815 	stw	r22,32(sp)
 4003a34:	002d883a 	mov	r22,zero
 4003a38:	003d8e06 	br	4003074 <__alt_mem_SRAM+0xfbfe3074>
 4003a3c:	d9000517 	ldw	r4,20(sp)
 4003a40:	400ccf00 	call	400ccf0 <__floatsidf>
 4003a44:	100d883a 	mov	r6,r2
 4003a48:	180f883a 	mov	r7,r3
 4003a4c:	a009883a 	mov	r4,r20
 4003a50:	880b883a 	mov	r5,r17
 4003a54:	400ba040 	call	400ba04 <__eqdf2>
 4003a58:	103d7126 	beq	r2,zero,4003020 <__alt_mem_SRAM+0xfbfe3020>
 4003a5c:	d9c00517 	ldw	r7,20(sp)
 4003a60:	39ffffc4 	addi	r7,r7,-1
 4003a64:	d9c00515 	stw	r7,20(sp)
 4003a68:	003d6d06 	br	4003020 <__alt_mem_SRAM+0xfbfe3020>
 4003a6c:	dd400a17 	ldw	r21,40(sp)
 4003a70:	dd000817 	ldw	r20,32(sp)
 4003a74:	0023883a 	mov	r17,zero
 4003a78:	003f4806 	br	400379c <__alt_mem_SRAM+0xfbfe379c>
 4003a7c:	10e3c83a 	sub	r17,r2,r3
 4003a80:	9448983a 	sll	r4,r18,r17
 4003a84:	003d3206 	br	4002f50 <__alt_mem_SRAM+0xfbfe2f50>
 4003a88:	d8000e15 	stw	zero,56(sp)
 4003a8c:	003d7506 	br	4003064 <__alt_mem_SRAM+0xfbfe3064>
 4003a90:	b005883a 	mov	r2,r22
 4003a94:	003f4506 	br	40037ac <__alt_mem_SRAM+0xfbfe37ac>
 4003a98:	dc000915 	stw	r16,36(sp)
 4003a9c:	d9800a17 	ldw	r6,40(sp)
 4003aa0:	d9400917 	ldw	r5,36(sp)
 4003aa4:	e009883a 	mov	r4,fp
 4003aa8:	4006a900 	call	4006a90 <__pow5mult>
 4003aac:	1021883a 	mov	r16,r2
 4003ab0:	003f5a06 	br	400381c <__alt_mem_SRAM+0xfbfe381c>
 4003ab4:	01c00044 	movi	r7,1
 4003ab8:	d9c00b15 	stw	r7,44(sp)
 4003abc:	d8802217 	ldw	r2,136(sp)
 4003ac0:	0081280e 	bge	zero,r2,4003f64 <_dtoa_r+0x11b0>
 4003ac4:	100d883a 	mov	r6,r2
 4003ac8:	1021883a 	mov	r16,r2
 4003acc:	d8800c15 	stw	r2,48(sp)
 4003ad0:	d8800615 	stw	r2,24(sp)
 4003ad4:	003d8806 	br	40030f8 <__alt_mem_SRAM+0xfbfe30f8>
 4003ad8:	d8800617 	ldw	r2,24(sp)
 4003adc:	00be9b16 	blt	zero,r2,400354c <__alt_mem_SRAM+0xfbfe354c>
 4003ae0:	10010f1e 	bne	r2,zero,4003f20 <_dtoa_r+0x116c>
 4003ae4:	880b883a 	mov	r5,r17
 4003ae8:	000d883a 	mov	r6,zero
 4003aec:	01d00534 	movhi	r7,16404
 4003af0:	8009883a 	mov	r4,r16
 4003af4:	400bc5c0 	call	400bc5c <__muldf3>
 4003af8:	900d883a 	mov	r6,r18
 4003afc:	980f883a 	mov	r7,r19
 4003b00:	1009883a 	mov	r4,r2
 4003b04:	180b883a 	mov	r5,r3
 4003b08:	400ba8c0 	call	400ba8c <__gedf2>
 4003b0c:	002b883a 	mov	r21,zero
 4003b10:	0023883a 	mov	r17,zero
 4003b14:	1000bf16 	blt	r2,zero,4003e14 <_dtoa_r+0x1060>
 4003b18:	d9802217 	ldw	r6,136(sp)
 4003b1c:	ddc00717 	ldw	r23,28(sp)
 4003b20:	018c303a 	nor	r6,zero,r6
 4003b24:	d9800515 	stw	r6,20(sp)
 4003b28:	a80b883a 	mov	r5,r21
 4003b2c:	e009883a 	mov	r4,fp
 4003b30:	40064f80 	call	40064f8 <_Bfree>
 4003b34:	883e4926 	beq	r17,zero,400345c <__alt_mem_SRAM+0xfbfe345c>
 4003b38:	003fad06 	br	40039f0 <__alt_mem_SRAM+0xfbfe39f0>
 4003b3c:	d9c01117 	ldw	r7,68(sp)
 4003b40:	3801bc26 	beq	r7,zero,4004234 <_dtoa_r+0x1480>
 4003b44:	10810cc4 	addi	r2,r2,1075
 4003b48:	dd400a17 	ldw	r21,40(sp)
 4003b4c:	dd000817 	ldw	r20,32(sp)
 4003b50:	003f0a06 	br	400377c <__alt_mem_SRAM+0xfbfe377c>
 4003b54:	00800704 	movi	r2,28
 4003b58:	d9000817 	ldw	r4,32(sp)
 4003b5c:	a0a9883a 	add	r20,r20,r2
 4003b60:	b0ad883a 	add	r22,r22,r2
 4003b64:	2089883a 	add	r4,r4,r2
 4003b68:	d9000815 	stw	r4,32(sp)
 4003b6c:	003f5106 	br	40038b4 <__alt_mem_SRAM+0xfbfe38b4>
 4003b70:	d8c00317 	ldw	r3,12(sp)
 4003b74:	b8c1fc0e 	bge	r23,r3,4004368 <_dtoa_r+0x15b4>
 4003b78:	0027883a 	mov	r19,zero
 4003b7c:	b805883a 	mov	r2,r23
 4003b80:	003f3e06 	br	400387c <__alt_mem_SRAM+0xfbfe387c>
 4003b84:	880b883a 	mov	r5,r17
 4003b88:	e009883a 	mov	r4,fp
 4003b8c:	000f883a 	mov	r7,zero
 4003b90:	01800284 	movi	r6,10
 4003b94:	40065200 	call	4006520 <__multadd>
 4003b98:	d9000c17 	ldw	r4,48(sp)
 4003b9c:	1023883a 	mov	r17,r2
 4003ba0:	0102040e 	bge	zero,r4,40043b4 <_dtoa_r+0x1600>
 4003ba4:	d9000615 	stw	r4,24(sp)
 4003ba8:	0500050e 	bge	zero,r20,4003bc0 <_dtoa_r+0xe0c>
 4003bac:	880b883a 	mov	r5,r17
 4003bb0:	a00d883a 	mov	r6,r20
 4003bb4:	e009883a 	mov	r4,fp
 4003bb8:	4006bd00 	call	4006bd0 <__lshift>
 4003bbc:	1023883a 	mov	r17,r2
 4003bc0:	9801241e 	bne	r19,zero,4004054 <_dtoa_r+0x12a0>
 4003bc4:	8829883a 	mov	r20,r17
 4003bc8:	d9000617 	ldw	r4,24(sp)
 4003bcc:	dcc00717 	ldw	r19,28(sp)
 4003bd0:	9480004c 	andi	r18,r18,1
 4003bd4:	20bfffc4 	addi	r2,r4,-1
 4003bd8:	9885883a 	add	r2,r19,r2
 4003bdc:	d8800415 	stw	r2,16(sp)
 4003be0:	dc800615 	stw	r18,24(sp)
 4003be4:	a80b883a 	mov	r5,r21
 4003be8:	8009883a 	mov	r4,r16
 4003bec:	4002bb40 	call	4002bb4 <quorem>
 4003bf0:	880b883a 	mov	r5,r17
 4003bf4:	8009883a 	mov	r4,r16
 4003bf8:	102f883a 	mov	r23,r2
 4003bfc:	4006d180 	call	4006d18 <__mcmp>
 4003c00:	a80b883a 	mov	r5,r21
 4003c04:	a00d883a 	mov	r6,r20
 4003c08:	e009883a 	mov	r4,fp
 4003c0c:	102d883a 	mov	r22,r2
 4003c10:	4006d780 	call	4006d78 <__mdiff>
 4003c14:	1007883a 	mov	r3,r2
 4003c18:	10800317 	ldw	r2,12(r2)
 4003c1c:	bc800c04 	addi	r18,r23,48
 4003c20:	180b883a 	mov	r5,r3
 4003c24:	10004e1e 	bne	r2,zero,4003d60 <_dtoa_r+0xfac>
 4003c28:	8009883a 	mov	r4,r16
 4003c2c:	d8c01615 	stw	r3,88(sp)
 4003c30:	4006d180 	call	4006d18 <__mcmp>
 4003c34:	d8c01617 	ldw	r3,88(sp)
 4003c38:	e009883a 	mov	r4,fp
 4003c3c:	d8801615 	stw	r2,88(sp)
 4003c40:	180b883a 	mov	r5,r3
 4003c44:	40064f80 	call	40064f8 <_Bfree>
 4003c48:	d8801617 	ldw	r2,88(sp)
 4003c4c:	1000041e 	bne	r2,zero,4003c60 <_dtoa_r+0xeac>
 4003c50:	d9800317 	ldw	r6,12(sp)
 4003c54:	3000021e 	bne	r6,zero,4003c60 <_dtoa_r+0xeac>
 4003c58:	d8c00617 	ldw	r3,24(sp)
 4003c5c:	18003726 	beq	r3,zero,4003d3c <_dtoa_r+0xf88>
 4003c60:	b0002016 	blt	r22,zero,4003ce4 <_dtoa_r+0xf30>
 4003c64:	b000041e 	bne	r22,zero,4003c78 <_dtoa_r+0xec4>
 4003c68:	d9000317 	ldw	r4,12(sp)
 4003c6c:	2000021e 	bne	r4,zero,4003c78 <_dtoa_r+0xec4>
 4003c70:	d8c00617 	ldw	r3,24(sp)
 4003c74:	18001b26 	beq	r3,zero,4003ce4 <_dtoa_r+0xf30>
 4003c78:	00810716 	blt	zero,r2,4004098 <_dtoa_r+0x12e4>
 4003c7c:	d8c00417 	ldw	r3,16(sp)
 4003c80:	9d800044 	addi	r22,r19,1
 4003c84:	9c800005 	stb	r18,0(r19)
 4003c88:	b02f883a 	mov	r23,r22
 4003c8c:	98c10626 	beq	r19,r3,40040a8 <_dtoa_r+0x12f4>
 4003c90:	800b883a 	mov	r5,r16
 4003c94:	000f883a 	mov	r7,zero
 4003c98:	01800284 	movi	r6,10
 4003c9c:	e009883a 	mov	r4,fp
 4003ca0:	40065200 	call	4006520 <__multadd>
 4003ca4:	1021883a 	mov	r16,r2
 4003ca8:	000f883a 	mov	r7,zero
 4003cac:	01800284 	movi	r6,10
 4003cb0:	880b883a 	mov	r5,r17
 4003cb4:	e009883a 	mov	r4,fp
 4003cb8:	8d002526 	beq	r17,r20,4003d50 <_dtoa_r+0xf9c>
 4003cbc:	40065200 	call	4006520 <__multadd>
 4003cc0:	a00b883a 	mov	r5,r20
 4003cc4:	000f883a 	mov	r7,zero
 4003cc8:	01800284 	movi	r6,10
 4003ccc:	e009883a 	mov	r4,fp
 4003cd0:	1023883a 	mov	r17,r2
 4003cd4:	40065200 	call	4006520 <__multadd>
 4003cd8:	1029883a 	mov	r20,r2
 4003cdc:	b027883a 	mov	r19,r22
 4003ce0:	003fc006 	br	4003be4 <__alt_mem_SRAM+0xfbfe3be4>
 4003ce4:	9011883a 	mov	r8,r18
 4003ce8:	00800e0e 	bge	zero,r2,4003d24 <_dtoa_r+0xf70>
 4003cec:	800b883a 	mov	r5,r16
 4003cf0:	01800044 	movi	r6,1
 4003cf4:	e009883a 	mov	r4,fp
 4003cf8:	da001715 	stw	r8,92(sp)
 4003cfc:	4006bd00 	call	4006bd0 <__lshift>
 4003d00:	a80b883a 	mov	r5,r21
 4003d04:	1009883a 	mov	r4,r2
 4003d08:	1021883a 	mov	r16,r2
 4003d0c:	4006d180 	call	4006d18 <__mcmp>
 4003d10:	da001717 	ldw	r8,92(sp)
 4003d14:	0081960e 	bge	zero,r2,4004370 <_dtoa_r+0x15bc>
 4003d18:	00800e44 	movi	r2,57
 4003d1c:	40817026 	beq	r8,r2,40042e0 <_dtoa_r+0x152c>
 4003d20:	ba000c44 	addi	r8,r23,49
 4003d24:	8825883a 	mov	r18,r17
 4003d28:	9dc00044 	addi	r23,r19,1
 4003d2c:	9a000005 	stb	r8,0(r19)
 4003d30:	a023883a 	mov	r17,r20
 4003d34:	dc000915 	stw	r16,36(sp)
 4003d38:	003f2406 	br	40039cc <__alt_mem_SRAM+0xfbfe39cc>
 4003d3c:	00800e44 	movi	r2,57
 4003d40:	9011883a 	mov	r8,r18
 4003d44:	90816626 	beq	r18,r2,40042e0 <_dtoa_r+0x152c>
 4003d48:	05bff516 	blt	zero,r22,4003d20 <__alt_mem_SRAM+0xfbfe3d20>
 4003d4c:	003ff506 	br	4003d24 <__alt_mem_SRAM+0xfbfe3d24>
 4003d50:	40065200 	call	4006520 <__multadd>
 4003d54:	1023883a 	mov	r17,r2
 4003d58:	1029883a 	mov	r20,r2
 4003d5c:	003fdf06 	br	4003cdc <__alt_mem_SRAM+0xfbfe3cdc>
 4003d60:	e009883a 	mov	r4,fp
 4003d64:	40064f80 	call	40064f8 <_Bfree>
 4003d68:	00800044 	movi	r2,1
 4003d6c:	003fbc06 	br	4003c60 <__alt_mem_SRAM+0xfbfe3c60>
 4003d70:	a80b883a 	mov	r5,r21
 4003d74:	8009883a 	mov	r4,r16
 4003d78:	4006d180 	call	4006d18 <__mcmp>
 4003d7c:	103edb0e 	bge	r2,zero,40038ec <__alt_mem_SRAM+0xfbfe38ec>
 4003d80:	800b883a 	mov	r5,r16
 4003d84:	000f883a 	mov	r7,zero
 4003d88:	01800284 	movi	r6,10
 4003d8c:	e009883a 	mov	r4,fp
 4003d90:	40065200 	call	4006520 <__multadd>
 4003d94:	1021883a 	mov	r16,r2
 4003d98:	d8800517 	ldw	r2,20(sp)
 4003d9c:	d8c00b17 	ldw	r3,44(sp)
 4003da0:	10bfffc4 	addi	r2,r2,-1
 4003da4:	d8800515 	stw	r2,20(sp)
 4003da8:	183f761e 	bne	r3,zero,4003b84 <__alt_mem_SRAM+0xfbfe3b84>
 4003dac:	d9000c17 	ldw	r4,48(sp)
 4003db0:	0101730e 	bge	zero,r4,4004380 <_dtoa_r+0x15cc>
 4003db4:	d9000615 	stw	r4,24(sp)
 4003db8:	003ed006 	br	40038fc <__alt_mem_SRAM+0xfbfe38fc>
 4003dbc:	00800084 	movi	r2,2
 4003dc0:	3081861e 	bne	r6,r2,40043dc <_dtoa_r+0x1628>
 4003dc4:	d8000b15 	stw	zero,44(sp)
 4003dc8:	003f3c06 	br	4003abc <__alt_mem_SRAM+0xfbfe3abc>
 4003dcc:	dc000917 	ldw	r16,36(sp)
 4003dd0:	003e9206 	br	400381c <__alt_mem_SRAM+0xfbfe381c>
 4003dd4:	d9c00317 	ldw	r7,12(sp)
 4003dd8:	00800084 	movi	r2,2
 4003ddc:	11fec50e 	bge	r2,r7,40038f4 <__alt_mem_SRAM+0xfbfe38f4>
 4003de0:	d9000617 	ldw	r4,24(sp)
 4003de4:	20013c1e 	bne	r4,zero,40042d8 <_dtoa_r+0x1524>
 4003de8:	a80b883a 	mov	r5,r21
 4003dec:	000f883a 	mov	r7,zero
 4003df0:	01800144 	movi	r6,5
 4003df4:	e009883a 	mov	r4,fp
 4003df8:	40065200 	call	4006520 <__multadd>
 4003dfc:	100b883a 	mov	r5,r2
 4003e00:	8009883a 	mov	r4,r16
 4003e04:	102b883a 	mov	r21,r2
 4003e08:	4006d180 	call	4006d18 <__mcmp>
 4003e0c:	dc000915 	stw	r16,36(sp)
 4003e10:	00bf410e 	bge	zero,r2,4003b18 <__alt_mem_SRAM+0xfbfe3b18>
 4003e14:	d9c00717 	ldw	r7,28(sp)
 4003e18:	00800c44 	movi	r2,49
 4003e1c:	38800005 	stb	r2,0(r7)
 4003e20:	d8800517 	ldw	r2,20(sp)
 4003e24:	3dc00044 	addi	r23,r7,1
 4003e28:	10800044 	addi	r2,r2,1
 4003e2c:	d8800515 	stw	r2,20(sp)
 4003e30:	003f3d06 	br	4003b28 <__alt_mem_SRAM+0xfbfe3b28>
 4003e34:	d9800517 	ldw	r6,20(sp)
 4003e38:	d9c00717 	ldw	r7,28(sp)
 4003e3c:	00800c44 	movi	r2,49
 4003e40:	31800044 	addi	r6,r6,1
 4003e44:	d9800515 	stw	r6,20(sp)
 4003e48:	38800005 	stb	r2,0(r7)
 4003e4c:	003edf06 	br	40039cc <__alt_mem_SRAM+0xfbfe39cc>
 4003e50:	d8000b15 	stw	zero,44(sp)
 4003e54:	003c9f06 	br	40030d4 <__alt_mem_SRAM+0xfbfe30d4>
 4003e58:	903e7e1e 	bne	r18,zero,4003854 <__alt_mem_SRAM+0xfbfe3854>
 4003e5c:	00800434 	movhi	r2,16
 4003e60:	10bfffc4 	addi	r2,r2,-1
 4003e64:	9884703a 	and	r2,r19,r2
 4003e68:	1000ea1e 	bne	r2,zero,4004214 <_dtoa_r+0x1460>
 4003e6c:	9cdffc2c 	andhi	r19,r19,32752
 4003e70:	9800e826 	beq	r19,zero,4004214 <_dtoa_r+0x1460>
 4003e74:	d9c00817 	ldw	r7,32(sp)
 4003e78:	b5800044 	addi	r22,r22,1
 4003e7c:	04c00044 	movi	r19,1
 4003e80:	39c00044 	addi	r7,r7,1
 4003e84:	d9c00815 	stw	r7,32(sp)
 4003e88:	d8800d17 	ldw	r2,52(sp)
 4003e8c:	103e721e 	bne	r2,zero,4003858 <__alt_mem_SRAM+0xfbfe3858>
 4003e90:	00800044 	movi	r2,1
 4003e94:	003e7906 	br	400387c <__alt_mem_SRAM+0xfbfe387c>
 4003e98:	8009883a 	mov	r4,r16
 4003e9c:	400ccf00 	call	400ccf0 <__floatsidf>
 4003ea0:	d9800f17 	ldw	r6,60(sp)
 4003ea4:	d9c01017 	ldw	r7,64(sp)
 4003ea8:	1009883a 	mov	r4,r2
 4003eac:	180b883a 	mov	r5,r3
 4003eb0:	400bc5c0 	call	400bc5c <__muldf3>
 4003eb4:	000d883a 	mov	r6,zero
 4003eb8:	01d00734 	movhi	r7,16412
 4003ebc:	1009883a 	mov	r4,r2
 4003ec0:	180b883a 	mov	r5,r3
 4003ec4:	400a8700 	call	400a870 <__adddf3>
 4003ec8:	047f3034 	movhi	r17,64704
 4003ecc:	1021883a 	mov	r16,r2
 4003ed0:	1c63883a 	add	r17,r3,r17
 4003ed4:	d9000f17 	ldw	r4,60(sp)
 4003ed8:	d9401017 	ldw	r5,64(sp)
 4003edc:	000d883a 	mov	r6,zero
 4003ee0:	01d00534 	movhi	r7,16404
 4003ee4:	400c3740 	call	400c374 <__subdf3>
 4003ee8:	800d883a 	mov	r6,r16
 4003eec:	880f883a 	mov	r7,r17
 4003ef0:	1009883a 	mov	r4,r2
 4003ef4:	180b883a 	mov	r5,r3
 4003ef8:	102b883a 	mov	r21,r2
 4003efc:	1829883a 	mov	r20,r3
 4003f00:	400ba8c0 	call	400ba8c <__gedf2>
 4003f04:	00806c16 	blt	zero,r2,40040b8 <_dtoa_r+0x1304>
 4003f08:	89e0003c 	xorhi	r7,r17,32768
 4003f0c:	800d883a 	mov	r6,r16
 4003f10:	a809883a 	mov	r4,r21
 4003f14:	a00b883a 	mov	r5,r20
 4003f18:	400bb680 	call	400bb68 <__ledf2>
 4003f1c:	103d7e0e 	bge	r2,zero,4003518 <__alt_mem_SRAM+0xfbfe3518>
 4003f20:	002b883a 	mov	r21,zero
 4003f24:	0023883a 	mov	r17,zero
 4003f28:	003efb06 	br	4003b18 <__alt_mem_SRAM+0xfbfe3b18>
 4003f2c:	d8800717 	ldw	r2,28(sp)
 4003f30:	003bd006 	br	4002e74 <__alt_mem_SRAM+0xfbfe2e74>
 4003f34:	d9000a17 	ldw	r4,40(sp)
 4003f38:	d9800d17 	ldw	r6,52(sp)
 4003f3c:	dd400a15 	stw	r21,40(sp)
 4003f40:	a905c83a 	sub	r2,r21,r4
 4003f44:	308d883a 	add	r6,r6,r2
 4003f48:	d9800d15 	stw	r6,52(sp)
 4003f4c:	002b883a 	mov	r21,zero
 4003f50:	003e0606 	br	400376c <__alt_mem_SRAM+0xfbfe376c>
 4003f54:	9023883a 	mov	r17,r18
 4003f58:	9829883a 	mov	r20,r19
 4003f5c:	04000084 	movi	r16,2
 4003f60:	003c9206 	br	40031ac <__alt_mem_SRAM+0xfbfe31ac>
 4003f64:	04000044 	movi	r16,1
 4003f68:	dc000c15 	stw	r16,48(sp)
 4003f6c:	dc000615 	stw	r16,24(sp)
 4003f70:	dc002215 	stw	r16,136(sp)
 4003f74:	e0001115 	stw	zero,68(fp)
 4003f78:	000b883a 	mov	r5,zero
 4003f7c:	003c6906 	br	4003124 <__alt_mem_SRAM+0xfbfe3124>
 4003f80:	3021883a 	mov	r16,r6
 4003f84:	003ffb06 	br	4003f74 <__alt_mem_SRAM+0xfbfe3f74>
 4003f88:	1000021e 	bne	r2,zero,4003f94 <_dtoa_r+0x11e0>
 4003f8c:	4200004c 	andi	r8,r8,1
 4003f90:	403e7d1e 	bne	r8,zero,4003988 <__alt_mem_SRAM+0xfbfe3988>
 4003f94:	01000c04 	movi	r4,48
 4003f98:	00000106 	br	4003fa0 <_dtoa_r+0x11ec>
 4003f9c:	102f883a 	mov	r23,r2
 4003fa0:	b8bfffc4 	addi	r2,r23,-1
 4003fa4:	10c00007 	ldb	r3,0(r2)
 4003fa8:	193ffc26 	beq	r3,r4,4003f9c <__alt_mem_SRAM+0xfbfe3f9c>
 4003fac:	003e8706 	br	40039cc <__alt_mem_SRAM+0xfbfe39cc>
 4003fb0:	d8800517 	ldw	r2,20(sp)
 4003fb4:	00a3c83a 	sub	r17,zero,r2
 4003fb8:	8800a426 	beq	r17,zero,400424c <_dtoa_r+0x1498>
 4003fbc:	888003cc 	andi	r2,r17,15
 4003fc0:	100490fa 	slli	r2,r2,3
 4003fc4:	00c10074 	movhi	r3,1025
 4003fc8:	18c31b04 	addi	r3,r3,3180
 4003fcc:	1885883a 	add	r2,r3,r2
 4003fd0:	11800017 	ldw	r6,0(r2)
 4003fd4:	11c00117 	ldw	r7,4(r2)
 4003fd8:	9009883a 	mov	r4,r18
 4003fdc:	980b883a 	mov	r5,r19
 4003fe0:	8823d13a 	srai	r17,r17,4
 4003fe4:	400bc5c0 	call	400bc5c <__muldf3>
 4003fe8:	d8800f15 	stw	r2,60(sp)
 4003fec:	d8c01015 	stw	r3,64(sp)
 4003ff0:	8800e826 	beq	r17,zero,4004394 <_dtoa_r+0x15e0>
 4003ff4:	05010074 	movhi	r20,1025
 4003ff8:	a5031104 	addi	r20,r20,3140
 4003ffc:	04000084 	movi	r16,2
 4004000:	8980004c 	andi	r6,r17,1
 4004004:	1009883a 	mov	r4,r2
 4004008:	8823d07a 	srai	r17,r17,1
 400400c:	180b883a 	mov	r5,r3
 4004010:	30000426 	beq	r6,zero,4004024 <_dtoa_r+0x1270>
 4004014:	a1800017 	ldw	r6,0(r20)
 4004018:	a1c00117 	ldw	r7,4(r20)
 400401c:	84000044 	addi	r16,r16,1
 4004020:	400bc5c0 	call	400bc5c <__muldf3>
 4004024:	a5000204 	addi	r20,r20,8
 4004028:	883ff51e 	bne	r17,zero,4004000 <__alt_mem_SRAM+0xfbfe4000>
 400402c:	d8800f15 	stw	r2,60(sp)
 4004030:	d8c01015 	stw	r3,64(sp)
 4004034:	003c7606 	br	4003210 <__alt_mem_SRAM+0xfbfe3210>
 4004038:	00c00c04 	movi	r3,48
 400403c:	10c00005 	stb	r3,0(r2)
 4004040:	d8c00517 	ldw	r3,20(sp)
 4004044:	bd3fffc3 	ldbu	r20,-1(r23)
 4004048:	18c00044 	addi	r3,r3,1
 400404c:	d8c00515 	stw	r3,20(sp)
 4004050:	003db906 	br	4003738 <__alt_mem_SRAM+0xfbfe3738>
 4004054:	89400117 	ldw	r5,4(r17)
 4004058:	e009883a 	mov	r4,fp
 400405c:	40064500 	call	4006450 <_Balloc>
 4004060:	89800417 	ldw	r6,16(r17)
 4004064:	89400304 	addi	r5,r17,12
 4004068:	11000304 	addi	r4,r2,12
 400406c:	31800084 	addi	r6,r6,2
 4004070:	318d883a 	add	r6,r6,r6
 4004074:	318d883a 	add	r6,r6,r6
 4004078:	1027883a 	mov	r19,r2
 400407c:	40060840 	call	4006084 <memcpy>
 4004080:	01800044 	movi	r6,1
 4004084:	980b883a 	mov	r5,r19
 4004088:	e009883a 	mov	r4,fp
 400408c:	4006bd00 	call	4006bd0 <__lshift>
 4004090:	1029883a 	mov	r20,r2
 4004094:	003ecc06 	br	4003bc8 <__alt_mem_SRAM+0xfbfe3bc8>
 4004098:	00800e44 	movi	r2,57
 400409c:	90809026 	beq	r18,r2,40042e0 <_dtoa_r+0x152c>
 40040a0:	92000044 	addi	r8,r18,1
 40040a4:	003f1f06 	br	4003d24 <__alt_mem_SRAM+0xfbfe3d24>
 40040a8:	9011883a 	mov	r8,r18
 40040ac:	8825883a 	mov	r18,r17
 40040b0:	a023883a 	mov	r17,r20
 40040b4:	003e2906 	br	400395c <__alt_mem_SRAM+0xfbfe395c>
 40040b8:	002b883a 	mov	r21,zero
 40040bc:	0023883a 	mov	r17,zero
 40040c0:	003f5406 	br	4003e14 <__alt_mem_SRAM+0xfbfe3e14>
 40040c4:	61bfffc4 	addi	r6,r12,-1
 40040c8:	300490fa 	slli	r2,r6,3
 40040cc:	00c10074 	movhi	r3,1025
 40040d0:	18c31b04 	addi	r3,r3,3180
 40040d4:	1885883a 	add	r2,r3,r2
 40040d8:	11000017 	ldw	r4,0(r2)
 40040dc:	11400117 	ldw	r5,4(r2)
 40040e0:	d8800717 	ldw	r2,28(sp)
 40040e4:	880f883a 	mov	r7,r17
 40040e8:	d9801215 	stw	r6,72(sp)
 40040ec:	800d883a 	mov	r6,r16
 40040f0:	db001615 	stw	r12,88(sp)
 40040f4:	15c00044 	addi	r23,r2,1
 40040f8:	400bc5c0 	call	400bc5c <__muldf3>
 40040fc:	d9401017 	ldw	r5,64(sp)
 4004100:	d9000f17 	ldw	r4,60(sp)
 4004104:	d8c01515 	stw	r3,84(sp)
 4004108:	d8801415 	stw	r2,80(sp)
 400410c:	400cc700 	call	400cc70 <__fixdfsi>
 4004110:	1009883a 	mov	r4,r2
 4004114:	1021883a 	mov	r16,r2
 4004118:	400ccf00 	call	400ccf0 <__floatsidf>
 400411c:	d9000f17 	ldw	r4,60(sp)
 4004120:	d9401017 	ldw	r5,64(sp)
 4004124:	100d883a 	mov	r6,r2
 4004128:	180f883a 	mov	r7,r3
 400412c:	400c3740 	call	400c374 <__subdf3>
 4004130:	1829883a 	mov	r20,r3
 4004134:	d8c00717 	ldw	r3,28(sp)
 4004138:	84000c04 	addi	r16,r16,48
 400413c:	1023883a 	mov	r17,r2
 4004140:	1c000005 	stb	r16,0(r3)
 4004144:	db001617 	ldw	r12,88(sp)
 4004148:	00800044 	movi	r2,1
 400414c:	60802226 	beq	r12,r2,40041d8 <_dtoa_r+0x1424>
 4004150:	d9c00717 	ldw	r7,28(sp)
 4004154:	8805883a 	mov	r2,r17
 4004158:	b82b883a 	mov	r21,r23
 400415c:	3b19883a 	add	r12,r7,r12
 4004160:	6023883a 	mov	r17,r12
 4004164:	a007883a 	mov	r3,r20
 4004168:	dc800f15 	stw	r18,60(sp)
 400416c:	000d883a 	mov	r6,zero
 4004170:	01d00934 	movhi	r7,16420
 4004174:	1009883a 	mov	r4,r2
 4004178:	180b883a 	mov	r5,r3
 400417c:	400bc5c0 	call	400bc5c <__muldf3>
 4004180:	180b883a 	mov	r5,r3
 4004184:	1009883a 	mov	r4,r2
 4004188:	1829883a 	mov	r20,r3
 400418c:	1025883a 	mov	r18,r2
 4004190:	400cc700 	call	400cc70 <__fixdfsi>
 4004194:	1009883a 	mov	r4,r2
 4004198:	1021883a 	mov	r16,r2
 400419c:	400ccf00 	call	400ccf0 <__floatsidf>
 40041a0:	100d883a 	mov	r6,r2
 40041a4:	180f883a 	mov	r7,r3
 40041a8:	9009883a 	mov	r4,r18
 40041ac:	a00b883a 	mov	r5,r20
 40041b0:	84000c04 	addi	r16,r16,48
 40041b4:	400c3740 	call	400c374 <__subdf3>
 40041b8:	ad400044 	addi	r21,r21,1
 40041bc:	ac3fffc5 	stb	r16,-1(r21)
 40041c0:	ac7fea1e 	bne	r21,r17,400416c <__alt_mem_SRAM+0xfbfe416c>
 40041c4:	1023883a 	mov	r17,r2
 40041c8:	d8801217 	ldw	r2,72(sp)
 40041cc:	dc800f17 	ldw	r18,60(sp)
 40041d0:	1829883a 	mov	r20,r3
 40041d4:	b8af883a 	add	r23,r23,r2
 40041d8:	d9001417 	ldw	r4,80(sp)
 40041dc:	d9401517 	ldw	r5,84(sp)
 40041e0:	000d883a 	mov	r6,zero
 40041e4:	01cff834 	movhi	r7,16352
 40041e8:	400a8700 	call	400a870 <__adddf3>
 40041ec:	880d883a 	mov	r6,r17
 40041f0:	a00f883a 	mov	r7,r20
 40041f4:	1009883a 	mov	r4,r2
 40041f8:	180b883a 	mov	r5,r3
 40041fc:	400bb680 	call	400bb68 <__ledf2>
 4004200:	10003e0e 	bge	r2,zero,40042fc <_dtoa_r+0x1548>
 4004204:	d9001317 	ldw	r4,76(sp)
 4004208:	bd3fffc3 	ldbu	r20,-1(r23)
 400420c:	d9000515 	stw	r4,20(sp)
 4004210:	003d3b06 	br	4003700 <__alt_mem_SRAM+0xfbfe3700>
 4004214:	0027883a 	mov	r19,zero
 4004218:	003f1b06 	br	4003e88 <__alt_mem_SRAM+0xfbfe3e88>
 400421c:	d8800817 	ldw	r2,32(sp)
 4004220:	11e9c83a 	sub	r20,r2,r7
 4004224:	0005883a 	mov	r2,zero
 4004228:	003d5406 	br	400377c <__alt_mem_SRAM+0xfbfe377c>
 400422c:	00800044 	movi	r2,1
 4004230:	003dc706 	br	4003950 <__alt_mem_SRAM+0xfbfe3950>
 4004234:	d8c00217 	ldw	r3,8(sp)
 4004238:	00800d84 	movi	r2,54
 400423c:	dd400a17 	ldw	r21,40(sp)
 4004240:	10c5c83a 	sub	r2,r2,r3
 4004244:	dd000817 	ldw	r20,32(sp)
 4004248:	003d4c06 	br	400377c <__alt_mem_SRAM+0xfbfe377c>
 400424c:	dc800f15 	stw	r18,60(sp)
 4004250:	dcc01015 	stw	r19,64(sp)
 4004254:	04000084 	movi	r16,2
 4004258:	003bed06 	br	4003210 <__alt_mem_SRAM+0xfbfe3210>
 400425c:	d9000617 	ldw	r4,24(sp)
 4004260:	203f0d26 	beq	r4,zero,4003e98 <__alt_mem_SRAM+0xfbfe3e98>
 4004264:	d9800c17 	ldw	r6,48(sp)
 4004268:	01bcab0e 	bge	zero,r6,4003518 <__alt_mem_SRAM+0xfbfe3518>
 400426c:	d9401017 	ldw	r5,64(sp)
 4004270:	d9000f17 	ldw	r4,60(sp)
 4004274:	000d883a 	mov	r6,zero
 4004278:	01d00934 	movhi	r7,16420
 400427c:	400bc5c0 	call	400bc5c <__muldf3>
 4004280:	81000044 	addi	r4,r16,1
 4004284:	d8800f15 	stw	r2,60(sp)
 4004288:	d8c01015 	stw	r3,64(sp)
 400428c:	400ccf00 	call	400ccf0 <__floatsidf>
 4004290:	d9800f17 	ldw	r6,60(sp)
 4004294:	d9c01017 	ldw	r7,64(sp)
 4004298:	1009883a 	mov	r4,r2
 400429c:	180b883a 	mov	r5,r3
 40042a0:	400bc5c0 	call	400bc5c <__muldf3>
 40042a4:	01d00734 	movhi	r7,16412
 40042a8:	000d883a 	mov	r6,zero
 40042ac:	1009883a 	mov	r4,r2
 40042b0:	180b883a 	mov	r5,r3
 40042b4:	400a8700 	call	400a870 <__adddf3>
 40042b8:	d9c00517 	ldw	r7,20(sp)
 40042bc:	047f3034 	movhi	r17,64704
 40042c0:	1021883a 	mov	r16,r2
 40042c4:	39ffffc4 	addi	r7,r7,-1
 40042c8:	d9c01315 	stw	r7,76(sp)
 40042cc:	1c63883a 	add	r17,r3,r17
 40042d0:	db000c17 	ldw	r12,48(sp)
 40042d4:	003bea06 	br	4003280 <__alt_mem_SRAM+0xfbfe3280>
 40042d8:	dc000915 	stw	r16,36(sp)
 40042dc:	003e0e06 	br	4003b18 <__alt_mem_SRAM+0xfbfe3b18>
 40042e0:	01000e44 	movi	r4,57
 40042e4:	8825883a 	mov	r18,r17
 40042e8:	9dc00044 	addi	r23,r19,1
 40042ec:	99000005 	stb	r4,0(r19)
 40042f0:	a023883a 	mov	r17,r20
 40042f4:	dc000915 	stw	r16,36(sp)
 40042f8:	003da406 	br	400398c <__alt_mem_SRAM+0xfbfe398c>
 40042fc:	d9801417 	ldw	r6,80(sp)
 4004300:	d9c01517 	ldw	r7,84(sp)
 4004304:	0009883a 	mov	r4,zero
 4004308:	014ff834 	movhi	r5,16352
 400430c:	400c3740 	call	400c374 <__subdf3>
 4004310:	880d883a 	mov	r6,r17
 4004314:	a00f883a 	mov	r7,r20
 4004318:	1009883a 	mov	r4,r2
 400431c:	180b883a 	mov	r5,r3
 4004320:	400ba8c0 	call	400ba8c <__gedf2>
 4004324:	00bc7c0e 	bge	zero,r2,4003518 <__alt_mem_SRAM+0xfbfe3518>
 4004328:	01000c04 	movi	r4,48
 400432c:	00000106 	br	4004334 <_dtoa_r+0x1580>
 4004330:	102f883a 	mov	r23,r2
 4004334:	b8bfffc4 	addi	r2,r23,-1
 4004338:	10c00007 	ldb	r3,0(r2)
 400433c:	193ffc26 	beq	r3,r4,4004330 <__alt_mem_SRAM+0xfbfe4330>
 4004340:	d9801317 	ldw	r6,76(sp)
 4004344:	d9800515 	stw	r6,20(sp)
 4004348:	003c4406 	br	400345c <__alt_mem_SRAM+0xfbfe345c>
 400434c:	d9801317 	ldw	r6,76(sp)
 4004350:	d9800515 	stw	r6,20(sp)
 4004354:	003cea06 	br	4003700 <__alt_mem_SRAM+0xfbfe3700>
 4004358:	dd800f17 	ldw	r22,60(sp)
 400435c:	dcc01017 	ldw	r19,64(sp)
 4004360:	dc801217 	ldw	r18,72(sp)
 4004364:	003c6c06 	br	4003518 <__alt_mem_SRAM+0xfbfe3518>
 4004368:	903e031e 	bne	r18,zero,4003b78 <__alt_mem_SRAM+0xfbfe3b78>
 400436c:	003ebb06 	br	4003e5c <__alt_mem_SRAM+0xfbfe3e5c>
 4004370:	103e6c1e 	bne	r2,zero,4003d24 <__alt_mem_SRAM+0xfbfe3d24>
 4004374:	4080004c 	andi	r2,r8,1
 4004378:	103e6a26 	beq	r2,zero,4003d24 <__alt_mem_SRAM+0xfbfe3d24>
 400437c:	003e6606 	br	4003d18 <__alt_mem_SRAM+0xfbfe3d18>
 4004380:	d8c00317 	ldw	r3,12(sp)
 4004384:	00800084 	movi	r2,2
 4004388:	10c02916 	blt	r2,r3,4004430 <_dtoa_r+0x167c>
 400438c:	d9000c17 	ldw	r4,48(sp)
 4004390:	003e8806 	br	4003db4 <__alt_mem_SRAM+0xfbfe3db4>
 4004394:	04000084 	movi	r16,2
 4004398:	003b9d06 	br	4003210 <__alt_mem_SRAM+0xfbfe3210>
 400439c:	d9001317 	ldw	r4,76(sp)
 40043a0:	d9000515 	stw	r4,20(sp)
 40043a4:	003cd606 	br	4003700 <__alt_mem_SRAM+0xfbfe3700>
 40043a8:	d8801317 	ldw	r2,76(sp)
 40043ac:	d8800515 	stw	r2,20(sp)
 40043b0:	003c2a06 	br	400345c <__alt_mem_SRAM+0xfbfe345c>
 40043b4:	d9800317 	ldw	r6,12(sp)
 40043b8:	00800084 	movi	r2,2
 40043bc:	11801516 	blt	r2,r6,4004414 <_dtoa_r+0x1660>
 40043c0:	d9c00c17 	ldw	r7,48(sp)
 40043c4:	d9c00615 	stw	r7,24(sp)
 40043c8:	003df706 	br	4003ba8 <__alt_mem_SRAM+0xfbfe3ba8>
 40043cc:	193d3926 	beq	r3,r4,40038b4 <__alt_mem_SRAM+0xfbfe38b4>
 40043d0:	00c00f04 	movi	r3,60
 40043d4:	1885c83a 	sub	r2,r3,r2
 40043d8:	003ddf06 	br	4003b58 <__alt_mem_SRAM+0xfbfe3b58>
 40043dc:	e009883a 	mov	r4,fp
 40043e0:	e0001115 	stw	zero,68(fp)
 40043e4:	000b883a 	mov	r5,zero
 40043e8:	40064500 	call	4006450 <_Balloc>
 40043ec:	d8800715 	stw	r2,28(sp)
 40043f0:	d8c00717 	ldw	r3,28(sp)
 40043f4:	00bfffc4 	movi	r2,-1
 40043f8:	01000044 	movi	r4,1
 40043fc:	d8800c15 	stw	r2,48(sp)
 4004400:	e0c01015 	stw	r3,64(fp)
 4004404:	d9000b15 	stw	r4,44(sp)
 4004408:	d8800615 	stw	r2,24(sp)
 400440c:	d8002215 	stw	zero,136(sp)
 4004410:	003c4106 	br	4003518 <__alt_mem_SRAM+0xfbfe3518>
 4004414:	d8c00c17 	ldw	r3,48(sp)
 4004418:	d8c00615 	stw	r3,24(sp)
 400441c:	003e7006 	br	4003de0 <__alt_mem_SRAM+0xfbfe3de0>
 4004420:	04400044 	movi	r17,1
 4004424:	003b2006 	br	40030a8 <__alt_mem_SRAM+0xfbfe30a8>
 4004428:	000b883a 	mov	r5,zero
 400442c:	003b3d06 	br	4003124 <__alt_mem_SRAM+0xfbfe3124>
 4004430:	d8800c17 	ldw	r2,48(sp)
 4004434:	d8800615 	stw	r2,24(sp)
 4004438:	003e6906 	br	4003de0 <__alt_mem_SRAM+0xfbfe3de0>

0400443c <__sflush_r>:
 400443c:	2880030b 	ldhu	r2,12(r5)
 4004440:	defffb04 	addi	sp,sp,-20
 4004444:	dcc00315 	stw	r19,12(sp)
 4004448:	dc400115 	stw	r17,4(sp)
 400444c:	dfc00415 	stw	ra,16(sp)
 4004450:	dc800215 	stw	r18,8(sp)
 4004454:	dc000015 	stw	r16,0(sp)
 4004458:	10c0020c 	andi	r3,r2,8
 400445c:	2823883a 	mov	r17,r5
 4004460:	2027883a 	mov	r19,r4
 4004464:	1800311e 	bne	r3,zero,400452c <__sflush_r+0xf0>
 4004468:	28c00117 	ldw	r3,4(r5)
 400446c:	10820014 	ori	r2,r2,2048
 4004470:	2880030d 	sth	r2,12(r5)
 4004474:	00c04b0e 	bge	zero,r3,40045a4 <__sflush_r+0x168>
 4004478:	8a000a17 	ldw	r8,40(r17)
 400447c:	40002326 	beq	r8,zero,400450c <__sflush_r+0xd0>
 4004480:	9c000017 	ldw	r16,0(r19)
 4004484:	10c4000c 	andi	r3,r2,4096
 4004488:	98000015 	stw	zero,0(r19)
 400448c:	18004826 	beq	r3,zero,40045b0 <__sflush_r+0x174>
 4004490:	89801417 	ldw	r6,80(r17)
 4004494:	10c0010c 	andi	r3,r2,4
 4004498:	18000626 	beq	r3,zero,40044b4 <__sflush_r+0x78>
 400449c:	88c00117 	ldw	r3,4(r17)
 40044a0:	88800c17 	ldw	r2,48(r17)
 40044a4:	30cdc83a 	sub	r6,r6,r3
 40044a8:	10000226 	beq	r2,zero,40044b4 <__sflush_r+0x78>
 40044ac:	88800f17 	ldw	r2,60(r17)
 40044b0:	308dc83a 	sub	r6,r6,r2
 40044b4:	89400717 	ldw	r5,28(r17)
 40044b8:	000f883a 	mov	r7,zero
 40044bc:	9809883a 	mov	r4,r19
 40044c0:	403ee83a 	callr	r8
 40044c4:	00ffffc4 	movi	r3,-1
 40044c8:	10c04426 	beq	r2,r3,40045dc <__sflush_r+0x1a0>
 40044cc:	88c0030b 	ldhu	r3,12(r17)
 40044d0:	89000417 	ldw	r4,16(r17)
 40044d4:	88000115 	stw	zero,4(r17)
 40044d8:	197dffcc 	andi	r5,r3,63487
 40044dc:	8940030d 	sth	r5,12(r17)
 40044e0:	89000015 	stw	r4,0(r17)
 40044e4:	18c4000c 	andi	r3,r3,4096
 40044e8:	18002c1e 	bne	r3,zero,400459c <__sflush_r+0x160>
 40044ec:	89400c17 	ldw	r5,48(r17)
 40044f0:	9c000015 	stw	r16,0(r19)
 40044f4:	28000526 	beq	r5,zero,400450c <__sflush_r+0xd0>
 40044f8:	88801004 	addi	r2,r17,64
 40044fc:	28800226 	beq	r5,r2,4004508 <__sflush_r+0xcc>
 4004500:	9809883a 	mov	r4,r19
 4004504:	4004ba80 	call	4004ba8 <_free_r>
 4004508:	88000c15 	stw	zero,48(r17)
 400450c:	0005883a 	mov	r2,zero
 4004510:	dfc00417 	ldw	ra,16(sp)
 4004514:	dcc00317 	ldw	r19,12(sp)
 4004518:	dc800217 	ldw	r18,8(sp)
 400451c:	dc400117 	ldw	r17,4(sp)
 4004520:	dc000017 	ldw	r16,0(sp)
 4004524:	dec00504 	addi	sp,sp,20
 4004528:	f800283a 	ret
 400452c:	2c800417 	ldw	r18,16(r5)
 4004530:	903ff626 	beq	r18,zero,400450c <__alt_mem_SRAM+0xfbfe450c>
 4004534:	2c000017 	ldw	r16,0(r5)
 4004538:	108000cc 	andi	r2,r2,3
 400453c:	2c800015 	stw	r18,0(r5)
 4004540:	84a1c83a 	sub	r16,r16,r18
 4004544:	1000131e 	bne	r2,zero,4004594 <__sflush_r+0x158>
 4004548:	28800517 	ldw	r2,20(r5)
 400454c:	88800215 	stw	r2,8(r17)
 4004550:	04000316 	blt	zero,r16,4004560 <__sflush_r+0x124>
 4004554:	003fed06 	br	400450c <__alt_mem_SRAM+0xfbfe450c>
 4004558:	90a5883a 	add	r18,r18,r2
 400455c:	043feb0e 	bge	zero,r16,400450c <__alt_mem_SRAM+0xfbfe450c>
 4004560:	88800917 	ldw	r2,36(r17)
 4004564:	89400717 	ldw	r5,28(r17)
 4004568:	800f883a 	mov	r7,r16
 400456c:	900d883a 	mov	r6,r18
 4004570:	9809883a 	mov	r4,r19
 4004574:	103ee83a 	callr	r2
 4004578:	80a1c83a 	sub	r16,r16,r2
 400457c:	00bff616 	blt	zero,r2,4004558 <__alt_mem_SRAM+0xfbfe4558>
 4004580:	88c0030b 	ldhu	r3,12(r17)
 4004584:	00bfffc4 	movi	r2,-1
 4004588:	18c01014 	ori	r3,r3,64
 400458c:	88c0030d 	sth	r3,12(r17)
 4004590:	003fdf06 	br	4004510 <__alt_mem_SRAM+0xfbfe4510>
 4004594:	0005883a 	mov	r2,zero
 4004598:	003fec06 	br	400454c <__alt_mem_SRAM+0xfbfe454c>
 400459c:	88801415 	stw	r2,80(r17)
 40045a0:	003fd206 	br	40044ec <__alt_mem_SRAM+0xfbfe44ec>
 40045a4:	28c00f17 	ldw	r3,60(r5)
 40045a8:	00ffb316 	blt	zero,r3,4004478 <__alt_mem_SRAM+0xfbfe4478>
 40045ac:	003fd706 	br	400450c <__alt_mem_SRAM+0xfbfe450c>
 40045b0:	89400717 	ldw	r5,28(r17)
 40045b4:	000d883a 	mov	r6,zero
 40045b8:	01c00044 	movi	r7,1
 40045bc:	9809883a 	mov	r4,r19
 40045c0:	403ee83a 	callr	r8
 40045c4:	100d883a 	mov	r6,r2
 40045c8:	00bfffc4 	movi	r2,-1
 40045cc:	30801426 	beq	r6,r2,4004620 <__sflush_r+0x1e4>
 40045d0:	8880030b 	ldhu	r2,12(r17)
 40045d4:	8a000a17 	ldw	r8,40(r17)
 40045d8:	003fae06 	br	4004494 <__alt_mem_SRAM+0xfbfe4494>
 40045dc:	98c00017 	ldw	r3,0(r19)
 40045e0:	183fba26 	beq	r3,zero,40044cc <__alt_mem_SRAM+0xfbfe44cc>
 40045e4:	01000744 	movi	r4,29
 40045e8:	19000626 	beq	r3,r4,4004604 <__sflush_r+0x1c8>
 40045ec:	01000584 	movi	r4,22
 40045f0:	19000426 	beq	r3,r4,4004604 <__sflush_r+0x1c8>
 40045f4:	88c0030b 	ldhu	r3,12(r17)
 40045f8:	18c01014 	ori	r3,r3,64
 40045fc:	88c0030d 	sth	r3,12(r17)
 4004600:	003fc306 	br	4004510 <__alt_mem_SRAM+0xfbfe4510>
 4004604:	8880030b 	ldhu	r2,12(r17)
 4004608:	88c00417 	ldw	r3,16(r17)
 400460c:	88000115 	stw	zero,4(r17)
 4004610:	10bdffcc 	andi	r2,r2,63487
 4004614:	8880030d 	sth	r2,12(r17)
 4004618:	88c00015 	stw	r3,0(r17)
 400461c:	003fb306 	br	40044ec <__alt_mem_SRAM+0xfbfe44ec>
 4004620:	98800017 	ldw	r2,0(r19)
 4004624:	103fea26 	beq	r2,zero,40045d0 <__alt_mem_SRAM+0xfbfe45d0>
 4004628:	00c00744 	movi	r3,29
 400462c:	10c00226 	beq	r2,r3,4004638 <__sflush_r+0x1fc>
 4004630:	00c00584 	movi	r3,22
 4004634:	10c0031e 	bne	r2,r3,4004644 <__sflush_r+0x208>
 4004638:	9c000015 	stw	r16,0(r19)
 400463c:	0005883a 	mov	r2,zero
 4004640:	003fb306 	br	4004510 <__alt_mem_SRAM+0xfbfe4510>
 4004644:	88c0030b 	ldhu	r3,12(r17)
 4004648:	3005883a 	mov	r2,r6
 400464c:	18c01014 	ori	r3,r3,64
 4004650:	88c0030d 	sth	r3,12(r17)
 4004654:	003fae06 	br	4004510 <__alt_mem_SRAM+0xfbfe4510>

04004658 <_fflush_r>:
 4004658:	defffd04 	addi	sp,sp,-12
 400465c:	dc000115 	stw	r16,4(sp)
 4004660:	dfc00215 	stw	ra,8(sp)
 4004664:	2021883a 	mov	r16,r4
 4004668:	20000226 	beq	r4,zero,4004674 <_fflush_r+0x1c>
 400466c:	20800e17 	ldw	r2,56(r4)
 4004670:	10000c26 	beq	r2,zero,40046a4 <_fflush_r+0x4c>
 4004674:	2880030f 	ldh	r2,12(r5)
 4004678:	1000051e 	bne	r2,zero,4004690 <_fflush_r+0x38>
 400467c:	0005883a 	mov	r2,zero
 4004680:	dfc00217 	ldw	ra,8(sp)
 4004684:	dc000117 	ldw	r16,4(sp)
 4004688:	dec00304 	addi	sp,sp,12
 400468c:	f800283a 	ret
 4004690:	8009883a 	mov	r4,r16
 4004694:	dfc00217 	ldw	ra,8(sp)
 4004698:	dc000117 	ldw	r16,4(sp)
 400469c:	dec00304 	addi	sp,sp,12
 40046a0:	400443c1 	jmpi	400443c <__sflush_r>
 40046a4:	d9400015 	stw	r5,0(sp)
 40046a8:	4004a340 	call	4004a34 <__sinit>
 40046ac:	d9400017 	ldw	r5,0(sp)
 40046b0:	003ff006 	br	4004674 <__alt_mem_SRAM+0xfbfe4674>

040046b4 <fflush>:
 40046b4:	20000526 	beq	r4,zero,40046cc <fflush+0x18>
 40046b8:	00810074 	movhi	r2,1025
 40046bc:	108a9904 	addi	r2,r2,10852
 40046c0:	200b883a 	mov	r5,r4
 40046c4:	11000017 	ldw	r4,0(r2)
 40046c8:	40046581 	jmpi	4004658 <_fflush_r>
 40046cc:	00810074 	movhi	r2,1025
 40046d0:	108a9804 	addi	r2,r2,10848
 40046d4:	11000017 	ldw	r4,0(r2)
 40046d8:	01410034 	movhi	r5,1024
 40046dc:	29519604 	addi	r5,r5,18008
 40046e0:	40054381 	jmpi	4005438 <_fwalk_reent>

040046e4 <__fp_unlock>:
 40046e4:	0005883a 	mov	r2,zero
 40046e8:	f800283a 	ret

040046ec <_cleanup_r>:
 40046ec:	01410074 	movhi	r5,1025
 40046f0:	29651404 	addi	r5,r5,-27568
 40046f4:	40054381 	jmpi	4005438 <_fwalk_reent>

040046f8 <__sinit.part.1>:
 40046f8:	defff704 	addi	sp,sp,-36
 40046fc:	00c10034 	movhi	r3,1024
 4004700:	dfc00815 	stw	ra,32(sp)
 4004704:	ddc00715 	stw	r23,28(sp)
 4004708:	dd800615 	stw	r22,24(sp)
 400470c:	dd400515 	stw	r21,20(sp)
 4004710:	dd000415 	stw	r20,16(sp)
 4004714:	dcc00315 	stw	r19,12(sp)
 4004718:	dc800215 	stw	r18,8(sp)
 400471c:	dc400115 	stw	r17,4(sp)
 4004720:	dc000015 	stw	r16,0(sp)
 4004724:	18d1bb04 	addi	r3,r3,18156
 4004728:	24000117 	ldw	r16,4(r4)
 400472c:	20c00f15 	stw	r3,60(r4)
 4004730:	2080bb04 	addi	r2,r4,748
 4004734:	00c000c4 	movi	r3,3
 4004738:	20c0b915 	stw	r3,740(r4)
 400473c:	2080ba15 	stw	r2,744(r4)
 4004740:	2000b815 	stw	zero,736(r4)
 4004744:	05c00204 	movi	r23,8
 4004748:	00800104 	movi	r2,4
 400474c:	2025883a 	mov	r18,r4
 4004750:	b80d883a 	mov	r6,r23
 4004754:	81001704 	addi	r4,r16,92
 4004758:	000b883a 	mov	r5,zero
 400475c:	80000015 	stw	zero,0(r16)
 4004760:	80000115 	stw	zero,4(r16)
 4004764:	80000215 	stw	zero,8(r16)
 4004768:	8080030d 	sth	r2,12(r16)
 400476c:	80001915 	stw	zero,100(r16)
 4004770:	8000038d 	sth	zero,14(r16)
 4004774:	80000415 	stw	zero,16(r16)
 4004778:	80000515 	stw	zero,20(r16)
 400477c:	80000615 	stw	zero,24(r16)
 4004780:	40063280 	call	4006328 <memset>
 4004784:	05810034 	movhi	r22,1024
 4004788:	94400217 	ldw	r17,8(r18)
 400478c:	05410034 	movhi	r21,1024
 4004790:	05010034 	movhi	r20,1024
 4004794:	04c10034 	movhi	r19,1024
 4004798:	b59e9e04 	addi	r22,r22,31352
 400479c:	ad5eb504 	addi	r21,r21,31444
 40047a0:	a51ed404 	addi	r20,r20,31568
 40047a4:	9cdeeb04 	addi	r19,r19,31660
 40047a8:	85800815 	stw	r22,32(r16)
 40047ac:	85400915 	stw	r21,36(r16)
 40047b0:	85000a15 	stw	r20,40(r16)
 40047b4:	84c00b15 	stw	r19,44(r16)
 40047b8:	84000715 	stw	r16,28(r16)
 40047bc:	00800284 	movi	r2,10
 40047c0:	8880030d 	sth	r2,12(r17)
 40047c4:	00800044 	movi	r2,1
 40047c8:	b80d883a 	mov	r6,r23
 40047cc:	89001704 	addi	r4,r17,92
 40047d0:	000b883a 	mov	r5,zero
 40047d4:	88000015 	stw	zero,0(r17)
 40047d8:	88000115 	stw	zero,4(r17)
 40047dc:	88000215 	stw	zero,8(r17)
 40047e0:	88001915 	stw	zero,100(r17)
 40047e4:	8880038d 	sth	r2,14(r17)
 40047e8:	88000415 	stw	zero,16(r17)
 40047ec:	88000515 	stw	zero,20(r17)
 40047f0:	88000615 	stw	zero,24(r17)
 40047f4:	40063280 	call	4006328 <memset>
 40047f8:	94000317 	ldw	r16,12(r18)
 40047fc:	00800484 	movi	r2,18
 4004800:	8c400715 	stw	r17,28(r17)
 4004804:	8d800815 	stw	r22,32(r17)
 4004808:	8d400915 	stw	r21,36(r17)
 400480c:	8d000a15 	stw	r20,40(r17)
 4004810:	8cc00b15 	stw	r19,44(r17)
 4004814:	8080030d 	sth	r2,12(r16)
 4004818:	00800084 	movi	r2,2
 400481c:	80000015 	stw	zero,0(r16)
 4004820:	80000115 	stw	zero,4(r16)
 4004824:	80000215 	stw	zero,8(r16)
 4004828:	80001915 	stw	zero,100(r16)
 400482c:	8080038d 	sth	r2,14(r16)
 4004830:	80000415 	stw	zero,16(r16)
 4004834:	80000515 	stw	zero,20(r16)
 4004838:	80000615 	stw	zero,24(r16)
 400483c:	b80d883a 	mov	r6,r23
 4004840:	000b883a 	mov	r5,zero
 4004844:	81001704 	addi	r4,r16,92
 4004848:	40063280 	call	4006328 <memset>
 400484c:	00800044 	movi	r2,1
 4004850:	84000715 	stw	r16,28(r16)
 4004854:	85800815 	stw	r22,32(r16)
 4004858:	85400915 	stw	r21,36(r16)
 400485c:	85000a15 	stw	r20,40(r16)
 4004860:	84c00b15 	stw	r19,44(r16)
 4004864:	90800e15 	stw	r2,56(r18)
 4004868:	dfc00817 	ldw	ra,32(sp)
 400486c:	ddc00717 	ldw	r23,28(sp)
 4004870:	dd800617 	ldw	r22,24(sp)
 4004874:	dd400517 	ldw	r21,20(sp)
 4004878:	dd000417 	ldw	r20,16(sp)
 400487c:	dcc00317 	ldw	r19,12(sp)
 4004880:	dc800217 	ldw	r18,8(sp)
 4004884:	dc400117 	ldw	r17,4(sp)
 4004888:	dc000017 	ldw	r16,0(sp)
 400488c:	dec00904 	addi	sp,sp,36
 4004890:	f800283a 	ret

04004894 <__fp_lock>:
 4004894:	0005883a 	mov	r2,zero
 4004898:	f800283a 	ret

0400489c <__sfmoreglue>:
 400489c:	defffc04 	addi	sp,sp,-16
 40048a0:	dc400115 	stw	r17,4(sp)
 40048a4:	2c7fffc4 	addi	r17,r5,-1
 40048a8:	8c401a24 	muli	r17,r17,104
 40048ac:	dc800215 	stw	r18,8(sp)
 40048b0:	2825883a 	mov	r18,r5
 40048b4:	89401d04 	addi	r5,r17,116
 40048b8:	dc000015 	stw	r16,0(sp)
 40048bc:	dfc00315 	stw	ra,12(sp)
 40048c0:	40057940 	call	4005794 <_malloc_r>
 40048c4:	1021883a 	mov	r16,r2
 40048c8:	10000726 	beq	r2,zero,40048e8 <__sfmoreglue+0x4c>
 40048cc:	11000304 	addi	r4,r2,12
 40048d0:	10000015 	stw	zero,0(r2)
 40048d4:	14800115 	stw	r18,4(r2)
 40048d8:	11000215 	stw	r4,8(r2)
 40048dc:	89801a04 	addi	r6,r17,104
 40048e0:	000b883a 	mov	r5,zero
 40048e4:	40063280 	call	4006328 <memset>
 40048e8:	8005883a 	mov	r2,r16
 40048ec:	dfc00317 	ldw	ra,12(sp)
 40048f0:	dc800217 	ldw	r18,8(sp)
 40048f4:	dc400117 	ldw	r17,4(sp)
 40048f8:	dc000017 	ldw	r16,0(sp)
 40048fc:	dec00404 	addi	sp,sp,16
 4004900:	f800283a 	ret

04004904 <__sfp>:
 4004904:	defffb04 	addi	sp,sp,-20
 4004908:	dc000015 	stw	r16,0(sp)
 400490c:	04010074 	movhi	r16,1025
 4004910:	840a9804 	addi	r16,r16,10848
 4004914:	dcc00315 	stw	r19,12(sp)
 4004918:	2027883a 	mov	r19,r4
 400491c:	81000017 	ldw	r4,0(r16)
 4004920:	dfc00415 	stw	ra,16(sp)
 4004924:	dc800215 	stw	r18,8(sp)
 4004928:	20800e17 	ldw	r2,56(r4)
 400492c:	dc400115 	stw	r17,4(sp)
 4004930:	1000021e 	bne	r2,zero,400493c <__sfp+0x38>
 4004934:	40046f80 	call	40046f8 <__sinit.part.1>
 4004938:	81000017 	ldw	r4,0(r16)
 400493c:	2480b804 	addi	r18,r4,736
 4004940:	047fffc4 	movi	r17,-1
 4004944:	91000117 	ldw	r4,4(r18)
 4004948:	94000217 	ldw	r16,8(r18)
 400494c:	213fffc4 	addi	r4,r4,-1
 4004950:	20000a16 	blt	r4,zero,400497c <__sfp+0x78>
 4004954:	8080030f 	ldh	r2,12(r16)
 4004958:	10000c26 	beq	r2,zero,400498c <__sfp+0x88>
 400495c:	80c01d04 	addi	r3,r16,116
 4004960:	00000206 	br	400496c <__sfp+0x68>
 4004964:	18bfe60f 	ldh	r2,-104(r3)
 4004968:	10000826 	beq	r2,zero,400498c <__sfp+0x88>
 400496c:	213fffc4 	addi	r4,r4,-1
 4004970:	1c3ffd04 	addi	r16,r3,-12
 4004974:	18c01a04 	addi	r3,r3,104
 4004978:	247ffa1e 	bne	r4,r17,4004964 <__alt_mem_SRAM+0xfbfe4964>
 400497c:	90800017 	ldw	r2,0(r18)
 4004980:	10001d26 	beq	r2,zero,40049f8 <__sfp+0xf4>
 4004984:	1025883a 	mov	r18,r2
 4004988:	003fee06 	br	4004944 <__alt_mem_SRAM+0xfbfe4944>
 400498c:	00bfffc4 	movi	r2,-1
 4004990:	8080038d 	sth	r2,14(r16)
 4004994:	00800044 	movi	r2,1
 4004998:	8080030d 	sth	r2,12(r16)
 400499c:	80001915 	stw	zero,100(r16)
 40049a0:	80000015 	stw	zero,0(r16)
 40049a4:	80000215 	stw	zero,8(r16)
 40049a8:	80000115 	stw	zero,4(r16)
 40049ac:	80000415 	stw	zero,16(r16)
 40049b0:	80000515 	stw	zero,20(r16)
 40049b4:	80000615 	stw	zero,24(r16)
 40049b8:	01800204 	movi	r6,8
 40049bc:	000b883a 	mov	r5,zero
 40049c0:	81001704 	addi	r4,r16,92
 40049c4:	40063280 	call	4006328 <memset>
 40049c8:	8005883a 	mov	r2,r16
 40049cc:	80000c15 	stw	zero,48(r16)
 40049d0:	80000d15 	stw	zero,52(r16)
 40049d4:	80001115 	stw	zero,68(r16)
 40049d8:	80001215 	stw	zero,72(r16)
 40049dc:	dfc00417 	ldw	ra,16(sp)
 40049e0:	dcc00317 	ldw	r19,12(sp)
 40049e4:	dc800217 	ldw	r18,8(sp)
 40049e8:	dc400117 	ldw	r17,4(sp)
 40049ec:	dc000017 	ldw	r16,0(sp)
 40049f0:	dec00504 	addi	sp,sp,20
 40049f4:	f800283a 	ret
 40049f8:	01400104 	movi	r5,4
 40049fc:	9809883a 	mov	r4,r19
 4004a00:	400489c0 	call	400489c <__sfmoreglue>
 4004a04:	90800015 	stw	r2,0(r18)
 4004a08:	103fde1e 	bne	r2,zero,4004984 <__alt_mem_SRAM+0xfbfe4984>
 4004a0c:	00800304 	movi	r2,12
 4004a10:	98800015 	stw	r2,0(r19)
 4004a14:	0005883a 	mov	r2,zero
 4004a18:	003ff006 	br	40049dc <__alt_mem_SRAM+0xfbfe49dc>

04004a1c <_cleanup>:
 4004a1c:	00810074 	movhi	r2,1025
 4004a20:	108a9804 	addi	r2,r2,10848
 4004a24:	11000017 	ldw	r4,0(r2)
 4004a28:	01410074 	movhi	r5,1025
 4004a2c:	29651404 	addi	r5,r5,-27568
 4004a30:	40054381 	jmpi	4005438 <_fwalk_reent>

04004a34 <__sinit>:
 4004a34:	20800e17 	ldw	r2,56(r4)
 4004a38:	10000126 	beq	r2,zero,4004a40 <__sinit+0xc>
 4004a3c:	f800283a 	ret
 4004a40:	40046f81 	jmpi	40046f8 <__sinit.part.1>

04004a44 <__sfp_lock_acquire>:
 4004a44:	f800283a 	ret

04004a48 <__sfp_lock_release>:
 4004a48:	f800283a 	ret

04004a4c <__sinit_lock_acquire>:
 4004a4c:	f800283a 	ret

04004a50 <__sinit_lock_release>:
 4004a50:	f800283a 	ret

04004a54 <__fp_lock_all>:
 4004a54:	00810074 	movhi	r2,1025
 4004a58:	108a9904 	addi	r2,r2,10852
 4004a5c:	11000017 	ldw	r4,0(r2)
 4004a60:	01410034 	movhi	r5,1024
 4004a64:	29522504 	addi	r5,r5,18580
 4004a68:	40053741 	jmpi	4005374 <_fwalk>

04004a6c <__fp_unlock_all>:
 4004a6c:	00810074 	movhi	r2,1025
 4004a70:	108a9904 	addi	r2,r2,10852
 4004a74:	11000017 	ldw	r4,0(r2)
 4004a78:	01410034 	movhi	r5,1024
 4004a7c:	2951b904 	addi	r5,r5,18148
 4004a80:	40053741 	jmpi	4005374 <_fwalk>

04004a84 <_malloc_trim_r>:
 4004a84:	defffb04 	addi	sp,sp,-20
 4004a88:	dcc00315 	stw	r19,12(sp)
 4004a8c:	04c10074 	movhi	r19,1025
 4004a90:	dc800215 	stw	r18,8(sp)
 4004a94:	dc400115 	stw	r17,4(sp)
 4004a98:	dc000015 	stw	r16,0(sp)
 4004a9c:	dfc00415 	stw	ra,16(sp)
 4004aa0:	2821883a 	mov	r16,r5
 4004aa4:	9cc4ed04 	addi	r19,r19,5044
 4004aa8:	2025883a 	mov	r18,r4
 4004aac:	400d6f40 	call	400d6f4 <__malloc_lock>
 4004ab0:	98800217 	ldw	r2,8(r19)
 4004ab4:	14400117 	ldw	r17,4(r2)
 4004ab8:	00bfff04 	movi	r2,-4
 4004abc:	88a2703a 	and	r17,r17,r2
 4004ac0:	8c21c83a 	sub	r16,r17,r16
 4004ac4:	8403fbc4 	addi	r16,r16,4079
 4004ac8:	8020d33a 	srli	r16,r16,12
 4004acc:	0083ffc4 	movi	r2,4095
 4004ad0:	843fffc4 	addi	r16,r16,-1
 4004ad4:	8020933a 	slli	r16,r16,12
 4004ad8:	1400060e 	bge	r2,r16,4004af4 <_malloc_trim_r+0x70>
 4004adc:	000b883a 	mov	r5,zero
 4004ae0:	9009883a 	mov	r4,r18
 4004ae4:	4007a240 	call	4007a24 <_sbrk_r>
 4004ae8:	98c00217 	ldw	r3,8(r19)
 4004aec:	1c47883a 	add	r3,r3,r17
 4004af0:	10c00a26 	beq	r2,r3,4004b1c <_malloc_trim_r+0x98>
 4004af4:	9009883a 	mov	r4,r18
 4004af8:	400d7180 	call	400d718 <__malloc_unlock>
 4004afc:	0005883a 	mov	r2,zero
 4004b00:	dfc00417 	ldw	ra,16(sp)
 4004b04:	dcc00317 	ldw	r19,12(sp)
 4004b08:	dc800217 	ldw	r18,8(sp)
 4004b0c:	dc400117 	ldw	r17,4(sp)
 4004b10:	dc000017 	ldw	r16,0(sp)
 4004b14:	dec00504 	addi	sp,sp,20
 4004b18:	f800283a 	ret
 4004b1c:	040bc83a 	sub	r5,zero,r16
 4004b20:	9009883a 	mov	r4,r18
 4004b24:	4007a240 	call	4007a24 <_sbrk_r>
 4004b28:	00ffffc4 	movi	r3,-1
 4004b2c:	10c00d26 	beq	r2,r3,4004b64 <_malloc_trim_r+0xe0>
 4004b30:	00c10074 	movhi	r3,1025
 4004b34:	18d1a604 	addi	r3,r3,18072
 4004b38:	18800017 	ldw	r2,0(r3)
 4004b3c:	99000217 	ldw	r4,8(r19)
 4004b40:	8c23c83a 	sub	r17,r17,r16
 4004b44:	8c400054 	ori	r17,r17,1
 4004b48:	1421c83a 	sub	r16,r2,r16
 4004b4c:	24400115 	stw	r17,4(r4)
 4004b50:	9009883a 	mov	r4,r18
 4004b54:	1c000015 	stw	r16,0(r3)
 4004b58:	400d7180 	call	400d718 <__malloc_unlock>
 4004b5c:	00800044 	movi	r2,1
 4004b60:	003fe706 	br	4004b00 <__alt_mem_SRAM+0xfbfe4b00>
 4004b64:	000b883a 	mov	r5,zero
 4004b68:	9009883a 	mov	r4,r18
 4004b6c:	4007a240 	call	4007a24 <_sbrk_r>
 4004b70:	99000217 	ldw	r4,8(r19)
 4004b74:	014003c4 	movi	r5,15
 4004b78:	1107c83a 	sub	r3,r2,r4
 4004b7c:	28ffdd0e 	bge	r5,r3,4004af4 <__alt_mem_SRAM+0xfbfe4af4>
 4004b80:	01410074 	movhi	r5,1025
 4004b84:	294a9b04 	addi	r5,r5,10860
 4004b88:	29400017 	ldw	r5,0(r5)
 4004b8c:	18c00054 	ori	r3,r3,1
 4004b90:	20c00115 	stw	r3,4(r4)
 4004b94:	00c10074 	movhi	r3,1025
 4004b98:	1145c83a 	sub	r2,r2,r5
 4004b9c:	18d1a604 	addi	r3,r3,18072
 4004ba0:	18800015 	stw	r2,0(r3)
 4004ba4:	003fd306 	br	4004af4 <__alt_mem_SRAM+0xfbfe4af4>

04004ba8 <_free_r>:
 4004ba8:	28004126 	beq	r5,zero,4004cb0 <_free_r+0x108>
 4004bac:	defffd04 	addi	sp,sp,-12
 4004bb0:	dc400115 	stw	r17,4(sp)
 4004bb4:	dc000015 	stw	r16,0(sp)
 4004bb8:	2023883a 	mov	r17,r4
 4004bbc:	2821883a 	mov	r16,r5
 4004bc0:	dfc00215 	stw	ra,8(sp)
 4004bc4:	400d6f40 	call	400d6f4 <__malloc_lock>
 4004bc8:	81ffff17 	ldw	r7,-4(r16)
 4004bcc:	00bfff84 	movi	r2,-2
 4004bd0:	01010074 	movhi	r4,1025
 4004bd4:	81bffe04 	addi	r6,r16,-8
 4004bd8:	3884703a 	and	r2,r7,r2
 4004bdc:	2104ed04 	addi	r4,r4,5044
 4004be0:	308b883a 	add	r5,r6,r2
 4004be4:	2a400117 	ldw	r9,4(r5)
 4004be8:	22000217 	ldw	r8,8(r4)
 4004bec:	00ffff04 	movi	r3,-4
 4004bf0:	48c6703a 	and	r3,r9,r3
 4004bf4:	2a005726 	beq	r5,r8,4004d54 <_free_r+0x1ac>
 4004bf8:	28c00115 	stw	r3,4(r5)
 4004bfc:	39c0004c 	andi	r7,r7,1
 4004c00:	3800091e 	bne	r7,zero,4004c28 <_free_r+0x80>
 4004c04:	823ffe17 	ldw	r8,-8(r16)
 4004c08:	22400204 	addi	r9,r4,8
 4004c0c:	320dc83a 	sub	r6,r6,r8
 4004c10:	31c00217 	ldw	r7,8(r6)
 4004c14:	1205883a 	add	r2,r2,r8
 4004c18:	3a406526 	beq	r7,r9,4004db0 <_free_r+0x208>
 4004c1c:	32000317 	ldw	r8,12(r6)
 4004c20:	3a000315 	stw	r8,12(r7)
 4004c24:	41c00215 	stw	r7,8(r8)
 4004c28:	28cf883a 	add	r7,r5,r3
 4004c2c:	39c00117 	ldw	r7,4(r7)
 4004c30:	39c0004c 	andi	r7,r7,1
 4004c34:	38003a26 	beq	r7,zero,4004d20 <_free_r+0x178>
 4004c38:	10c00054 	ori	r3,r2,1
 4004c3c:	30c00115 	stw	r3,4(r6)
 4004c40:	3087883a 	add	r3,r6,r2
 4004c44:	18800015 	stw	r2,0(r3)
 4004c48:	00c07fc4 	movi	r3,511
 4004c4c:	18801936 	bltu	r3,r2,4004cb4 <_free_r+0x10c>
 4004c50:	1004d0fa 	srli	r2,r2,3
 4004c54:	01c00044 	movi	r7,1
 4004c58:	21400117 	ldw	r5,4(r4)
 4004c5c:	10c00044 	addi	r3,r2,1
 4004c60:	18c7883a 	add	r3,r3,r3
 4004c64:	1005d0ba 	srai	r2,r2,2
 4004c68:	18c7883a 	add	r3,r3,r3
 4004c6c:	18c7883a 	add	r3,r3,r3
 4004c70:	1907883a 	add	r3,r3,r4
 4004c74:	3884983a 	sll	r2,r7,r2
 4004c78:	19c00017 	ldw	r7,0(r3)
 4004c7c:	1a3ffe04 	addi	r8,r3,-8
 4004c80:	1144b03a 	or	r2,r2,r5
 4004c84:	32000315 	stw	r8,12(r6)
 4004c88:	31c00215 	stw	r7,8(r6)
 4004c8c:	20800115 	stw	r2,4(r4)
 4004c90:	19800015 	stw	r6,0(r3)
 4004c94:	39800315 	stw	r6,12(r7)
 4004c98:	8809883a 	mov	r4,r17
 4004c9c:	dfc00217 	ldw	ra,8(sp)
 4004ca0:	dc400117 	ldw	r17,4(sp)
 4004ca4:	dc000017 	ldw	r16,0(sp)
 4004ca8:	dec00304 	addi	sp,sp,12
 4004cac:	400d7181 	jmpi	400d718 <__malloc_unlock>
 4004cb0:	f800283a 	ret
 4004cb4:	100ad27a 	srli	r5,r2,9
 4004cb8:	00c00104 	movi	r3,4
 4004cbc:	19404a36 	bltu	r3,r5,4004de8 <_free_r+0x240>
 4004cc0:	100ad1ba 	srli	r5,r2,6
 4004cc4:	28c00e44 	addi	r3,r5,57
 4004cc8:	18c7883a 	add	r3,r3,r3
 4004ccc:	29400e04 	addi	r5,r5,56
 4004cd0:	18c7883a 	add	r3,r3,r3
 4004cd4:	18c7883a 	add	r3,r3,r3
 4004cd8:	1909883a 	add	r4,r3,r4
 4004cdc:	20c00017 	ldw	r3,0(r4)
 4004ce0:	01c10074 	movhi	r7,1025
 4004ce4:	213ffe04 	addi	r4,r4,-8
 4004ce8:	39c4ed04 	addi	r7,r7,5044
 4004cec:	20c04426 	beq	r4,r3,4004e00 <_free_r+0x258>
 4004cf0:	01ffff04 	movi	r7,-4
 4004cf4:	19400117 	ldw	r5,4(r3)
 4004cf8:	29ca703a 	and	r5,r5,r7
 4004cfc:	1140022e 	bgeu	r2,r5,4004d08 <_free_r+0x160>
 4004d00:	18c00217 	ldw	r3,8(r3)
 4004d04:	20fffb1e 	bne	r4,r3,4004cf4 <__alt_mem_SRAM+0xfbfe4cf4>
 4004d08:	19000317 	ldw	r4,12(r3)
 4004d0c:	31000315 	stw	r4,12(r6)
 4004d10:	30c00215 	stw	r3,8(r6)
 4004d14:	21800215 	stw	r6,8(r4)
 4004d18:	19800315 	stw	r6,12(r3)
 4004d1c:	003fde06 	br	4004c98 <__alt_mem_SRAM+0xfbfe4c98>
 4004d20:	29c00217 	ldw	r7,8(r5)
 4004d24:	10c5883a 	add	r2,r2,r3
 4004d28:	00c10074 	movhi	r3,1025
 4004d2c:	18c4ef04 	addi	r3,r3,5052
 4004d30:	38c03b26 	beq	r7,r3,4004e20 <_free_r+0x278>
 4004d34:	2a000317 	ldw	r8,12(r5)
 4004d38:	11400054 	ori	r5,r2,1
 4004d3c:	3087883a 	add	r3,r6,r2
 4004d40:	3a000315 	stw	r8,12(r7)
 4004d44:	41c00215 	stw	r7,8(r8)
 4004d48:	31400115 	stw	r5,4(r6)
 4004d4c:	18800015 	stw	r2,0(r3)
 4004d50:	003fbd06 	br	4004c48 <__alt_mem_SRAM+0xfbfe4c48>
 4004d54:	39c0004c 	andi	r7,r7,1
 4004d58:	10c5883a 	add	r2,r2,r3
 4004d5c:	3800071e 	bne	r7,zero,4004d7c <_free_r+0x1d4>
 4004d60:	81fffe17 	ldw	r7,-8(r16)
 4004d64:	31cdc83a 	sub	r6,r6,r7
 4004d68:	30c00317 	ldw	r3,12(r6)
 4004d6c:	31400217 	ldw	r5,8(r6)
 4004d70:	11c5883a 	add	r2,r2,r7
 4004d74:	28c00315 	stw	r3,12(r5)
 4004d78:	19400215 	stw	r5,8(r3)
 4004d7c:	10c00054 	ori	r3,r2,1
 4004d80:	30c00115 	stw	r3,4(r6)
 4004d84:	00c10074 	movhi	r3,1025
 4004d88:	18ca9c04 	addi	r3,r3,10864
 4004d8c:	18c00017 	ldw	r3,0(r3)
 4004d90:	21800215 	stw	r6,8(r4)
 4004d94:	10ffc036 	bltu	r2,r3,4004c98 <__alt_mem_SRAM+0xfbfe4c98>
 4004d98:	00810074 	movhi	r2,1025
 4004d9c:	10919d04 	addi	r2,r2,18036
 4004da0:	11400017 	ldw	r5,0(r2)
 4004da4:	8809883a 	mov	r4,r17
 4004da8:	4004a840 	call	4004a84 <_malloc_trim_r>
 4004dac:	003fba06 	br	4004c98 <__alt_mem_SRAM+0xfbfe4c98>
 4004db0:	28c9883a 	add	r4,r5,r3
 4004db4:	21000117 	ldw	r4,4(r4)
 4004db8:	2100004c 	andi	r4,r4,1
 4004dbc:	2000391e 	bne	r4,zero,4004ea4 <_free_r+0x2fc>
 4004dc0:	29c00217 	ldw	r7,8(r5)
 4004dc4:	29000317 	ldw	r4,12(r5)
 4004dc8:	1885883a 	add	r2,r3,r2
 4004dcc:	10c00054 	ori	r3,r2,1
 4004dd0:	39000315 	stw	r4,12(r7)
 4004dd4:	21c00215 	stw	r7,8(r4)
 4004dd8:	30c00115 	stw	r3,4(r6)
 4004ddc:	308d883a 	add	r6,r6,r2
 4004de0:	30800015 	stw	r2,0(r6)
 4004de4:	003fac06 	br	4004c98 <__alt_mem_SRAM+0xfbfe4c98>
 4004de8:	00c00504 	movi	r3,20
 4004dec:	19401536 	bltu	r3,r5,4004e44 <_free_r+0x29c>
 4004df0:	28c01704 	addi	r3,r5,92
 4004df4:	18c7883a 	add	r3,r3,r3
 4004df8:	294016c4 	addi	r5,r5,91
 4004dfc:	003fb406 	br	4004cd0 <__alt_mem_SRAM+0xfbfe4cd0>
 4004e00:	280bd0ba 	srai	r5,r5,2
 4004e04:	00c00044 	movi	r3,1
 4004e08:	38800117 	ldw	r2,4(r7)
 4004e0c:	194a983a 	sll	r5,r3,r5
 4004e10:	2007883a 	mov	r3,r4
 4004e14:	2884b03a 	or	r2,r5,r2
 4004e18:	38800115 	stw	r2,4(r7)
 4004e1c:	003fbb06 	br	4004d0c <__alt_mem_SRAM+0xfbfe4d0c>
 4004e20:	21800515 	stw	r6,20(r4)
 4004e24:	21800415 	stw	r6,16(r4)
 4004e28:	10c00054 	ori	r3,r2,1
 4004e2c:	31c00315 	stw	r7,12(r6)
 4004e30:	31c00215 	stw	r7,8(r6)
 4004e34:	30c00115 	stw	r3,4(r6)
 4004e38:	308d883a 	add	r6,r6,r2
 4004e3c:	30800015 	stw	r2,0(r6)
 4004e40:	003f9506 	br	4004c98 <__alt_mem_SRAM+0xfbfe4c98>
 4004e44:	00c01504 	movi	r3,84
 4004e48:	19400536 	bltu	r3,r5,4004e60 <_free_r+0x2b8>
 4004e4c:	100ad33a 	srli	r5,r2,12
 4004e50:	28c01bc4 	addi	r3,r5,111
 4004e54:	18c7883a 	add	r3,r3,r3
 4004e58:	29401b84 	addi	r5,r5,110
 4004e5c:	003f9c06 	br	4004cd0 <__alt_mem_SRAM+0xfbfe4cd0>
 4004e60:	00c05504 	movi	r3,340
 4004e64:	19400536 	bltu	r3,r5,4004e7c <_free_r+0x2d4>
 4004e68:	100ad3fa 	srli	r5,r2,15
 4004e6c:	28c01e04 	addi	r3,r5,120
 4004e70:	18c7883a 	add	r3,r3,r3
 4004e74:	29401dc4 	addi	r5,r5,119
 4004e78:	003f9506 	br	4004cd0 <__alt_mem_SRAM+0xfbfe4cd0>
 4004e7c:	00c15504 	movi	r3,1364
 4004e80:	19400536 	bltu	r3,r5,4004e98 <_free_r+0x2f0>
 4004e84:	100ad4ba 	srli	r5,r2,18
 4004e88:	28c01f44 	addi	r3,r5,125
 4004e8c:	18c7883a 	add	r3,r3,r3
 4004e90:	29401f04 	addi	r5,r5,124
 4004e94:	003f8e06 	br	4004cd0 <__alt_mem_SRAM+0xfbfe4cd0>
 4004e98:	00c03f84 	movi	r3,254
 4004e9c:	01401f84 	movi	r5,126
 4004ea0:	003f8b06 	br	4004cd0 <__alt_mem_SRAM+0xfbfe4cd0>
 4004ea4:	10c00054 	ori	r3,r2,1
 4004ea8:	30c00115 	stw	r3,4(r6)
 4004eac:	308d883a 	add	r6,r6,r2
 4004eb0:	30800015 	stw	r2,0(r6)
 4004eb4:	003f7806 	br	4004c98 <__alt_mem_SRAM+0xfbfe4c98>

04004eb8 <__sfvwrite_r>:
 4004eb8:	30800217 	ldw	r2,8(r6)
 4004ebc:	10006726 	beq	r2,zero,400505c <__sfvwrite_r+0x1a4>
 4004ec0:	28c0030b 	ldhu	r3,12(r5)
 4004ec4:	defff404 	addi	sp,sp,-48
 4004ec8:	dd400715 	stw	r21,28(sp)
 4004ecc:	dd000615 	stw	r20,24(sp)
 4004ed0:	dc000215 	stw	r16,8(sp)
 4004ed4:	dfc00b15 	stw	ra,44(sp)
 4004ed8:	df000a15 	stw	fp,40(sp)
 4004edc:	ddc00915 	stw	r23,36(sp)
 4004ee0:	dd800815 	stw	r22,32(sp)
 4004ee4:	dcc00515 	stw	r19,20(sp)
 4004ee8:	dc800415 	stw	r18,16(sp)
 4004eec:	dc400315 	stw	r17,12(sp)
 4004ef0:	1880020c 	andi	r2,r3,8
 4004ef4:	2821883a 	mov	r16,r5
 4004ef8:	202b883a 	mov	r21,r4
 4004efc:	3029883a 	mov	r20,r6
 4004f00:	10002726 	beq	r2,zero,4004fa0 <__sfvwrite_r+0xe8>
 4004f04:	28800417 	ldw	r2,16(r5)
 4004f08:	10002526 	beq	r2,zero,4004fa0 <__sfvwrite_r+0xe8>
 4004f0c:	1880008c 	andi	r2,r3,2
 4004f10:	a4400017 	ldw	r17,0(r20)
 4004f14:	10002a26 	beq	r2,zero,4004fc0 <__sfvwrite_r+0x108>
 4004f18:	05a00034 	movhi	r22,32768
 4004f1c:	0027883a 	mov	r19,zero
 4004f20:	0025883a 	mov	r18,zero
 4004f24:	b5bf0004 	addi	r22,r22,-1024
 4004f28:	980d883a 	mov	r6,r19
 4004f2c:	a809883a 	mov	r4,r21
 4004f30:	90004626 	beq	r18,zero,400504c <__sfvwrite_r+0x194>
 4004f34:	900f883a 	mov	r7,r18
 4004f38:	b480022e 	bgeu	r22,r18,4004f44 <__sfvwrite_r+0x8c>
 4004f3c:	01e00034 	movhi	r7,32768
 4004f40:	39ff0004 	addi	r7,r7,-1024
 4004f44:	80800917 	ldw	r2,36(r16)
 4004f48:	81400717 	ldw	r5,28(r16)
 4004f4c:	103ee83a 	callr	r2
 4004f50:	0080570e 	bge	zero,r2,40050b0 <__sfvwrite_r+0x1f8>
 4004f54:	a0c00217 	ldw	r3,8(r20)
 4004f58:	98a7883a 	add	r19,r19,r2
 4004f5c:	90a5c83a 	sub	r18,r18,r2
 4004f60:	1885c83a 	sub	r2,r3,r2
 4004f64:	a0800215 	stw	r2,8(r20)
 4004f68:	103fef1e 	bne	r2,zero,4004f28 <__alt_mem_SRAM+0xfbfe4f28>
 4004f6c:	0005883a 	mov	r2,zero
 4004f70:	dfc00b17 	ldw	ra,44(sp)
 4004f74:	df000a17 	ldw	fp,40(sp)
 4004f78:	ddc00917 	ldw	r23,36(sp)
 4004f7c:	dd800817 	ldw	r22,32(sp)
 4004f80:	dd400717 	ldw	r21,28(sp)
 4004f84:	dd000617 	ldw	r20,24(sp)
 4004f88:	dcc00517 	ldw	r19,20(sp)
 4004f8c:	dc800417 	ldw	r18,16(sp)
 4004f90:	dc400317 	ldw	r17,12(sp)
 4004f94:	dc000217 	ldw	r16,8(sp)
 4004f98:	dec00c04 	addi	sp,sp,48
 4004f9c:	f800283a 	ret
 4004fa0:	800b883a 	mov	r5,r16
 4004fa4:	a809883a 	mov	r4,r21
 4004fa8:	4002a600 	call	4002a60 <__swsetup_r>
 4004fac:	1000eb1e 	bne	r2,zero,400535c <__sfvwrite_r+0x4a4>
 4004fb0:	80c0030b 	ldhu	r3,12(r16)
 4004fb4:	a4400017 	ldw	r17,0(r20)
 4004fb8:	1880008c 	andi	r2,r3,2
 4004fbc:	103fd61e 	bne	r2,zero,4004f18 <__alt_mem_SRAM+0xfbfe4f18>
 4004fc0:	1880004c 	andi	r2,r3,1
 4004fc4:	10003f1e 	bne	r2,zero,40050c4 <__sfvwrite_r+0x20c>
 4004fc8:	0039883a 	mov	fp,zero
 4004fcc:	0025883a 	mov	r18,zero
 4004fd0:	90001a26 	beq	r18,zero,400503c <__sfvwrite_r+0x184>
 4004fd4:	1880800c 	andi	r2,r3,512
 4004fd8:	84c00217 	ldw	r19,8(r16)
 4004fdc:	10002126 	beq	r2,zero,4005064 <__sfvwrite_r+0x1ac>
 4004fe0:	982f883a 	mov	r23,r19
 4004fe4:	94c09336 	bltu	r18,r19,4005234 <__sfvwrite_r+0x37c>
 4004fe8:	1881200c 	andi	r2,r3,1152
 4004fec:	10009e1e 	bne	r2,zero,4005268 <__sfvwrite_r+0x3b0>
 4004ff0:	81000017 	ldw	r4,0(r16)
 4004ff4:	b80d883a 	mov	r6,r23
 4004ff8:	e00b883a 	mov	r5,fp
 4004ffc:	40061cc0 	call	40061cc <memmove>
 4005000:	80c00217 	ldw	r3,8(r16)
 4005004:	81000017 	ldw	r4,0(r16)
 4005008:	9005883a 	mov	r2,r18
 400500c:	1ce7c83a 	sub	r19,r3,r19
 4005010:	25cf883a 	add	r7,r4,r23
 4005014:	84c00215 	stw	r19,8(r16)
 4005018:	81c00015 	stw	r7,0(r16)
 400501c:	a0c00217 	ldw	r3,8(r20)
 4005020:	e0b9883a 	add	fp,fp,r2
 4005024:	90a5c83a 	sub	r18,r18,r2
 4005028:	18a7c83a 	sub	r19,r3,r2
 400502c:	a4c00215 	stw	r19,8(r20)
 4005030:	983fce26 	beq	r19,zero,4004f6c <__alt_mem_SRAM+0xfbfe4f6c>
 4005034:	80c0030b 	ldhu	r3,12(r16)
 4005038:	903fe61e 	bne	r18,zero,4004fd4 <__alt_mem_SRAM+0xfbfe4fd4>
 400503c:	8f000017 	ldw	fp,0(r17)
 4005040:	8c800117 	ldw	r18,4(r17)
 4005044:	8c400204 	addi	r17,r17,8
 4005048:	003fe106 	br	4004fd0 <__alt_mem_SRAM+0xfbfe4fd0>
 400504c:	8cc00017 	ldw	r19,0(r17)
 4005050:	8c800117 	ldw	r18,4(r17)
 4005054:	8c400204 	addi	r17,r17,8
 4005058:	003fb306 	br	4004f28 <__alt_mem_SRAM+0xfbfe4f28>
 400505c:	0005883a 	mov	r2,zero
 4005060:	f800283a 	ret
 4005064:	81000017 	ldw	r4,0(r16)
 4005068:	80800417 	ldw	r2,16(r16)
 400506c:	11005736 	bltu	r2,r4,40051cc <__sfvwrite_r+0x314>
 4005070:	85c00517 	ldw	r23,20(r16)
 4005074:	95c05536 	bltu	r18,r23,40051cc <__sfvwrite_r+0x314>
 4005078:	00a00034 	movhi	r2,32768
 400507c:	10bfffc4 	addi	r2,r2,-1
 4005080:	9009883a 	mov	r4,r18
 4005084:	1480012e 	bgeu	r2,r18,400508c <__sfvwrite_r+0x1d4>
 4005088:	1009883a 	mov	r4,r2
 400508c:	b80b883a 	mov	r5,r23
 4005090:	400a6bc0 	call	400a6bc <__divsi3>
 4005094:	15cf383a 	mul	r7,r2,r23
 4005098:	81400717 	ldw	r5,28(r16)
 400509c:	80800917 	ldw	r2,36(r16)
 40050a0:	e00d883a 	mov	r6,fp
 40050a4:	a809883a 	mov	r4,r21
 40050a8:	103ee83a 	callr	r2
 40050ac:	00bfdb16 	blt	zero,r2,400501c <__alt_mem_SRAM+0xfbfe501c>
 40050b0:	8080030b 	ldhu	r2,12(r16)
 40050b4:	10801014 	ori	r2,r2,64
 40050b8:	8080030d 	sth	r2,12(r16)
 40050bc:	00bfffc4 	movi	r2,-1
 40050c0:	003fab06 	br	4004f70 <__alt_mem_SRAM+0xfbfe4f70>
 40050c4:	0027883a 	mov	r19,zero
 40050c8:	0011883a 	mov	r8,zero
 40050cc:	0039883a 	mov	fp,zero
 40050d0:	0025883a 	mov	r18,zero
 40050d4:	90001f26 	beq	r18,zero,4005154 <__sfvwrite_r+0x29c>
 40050d8:	40005a26 	beq	r8,zero,4005244 <__sfvwrite_r+0x38c>
 40050dc:	982d883a 	mov	r22,r19
 40050e0:	94c0012e 	bgeu	r18,r19,40050e8 <__sfvwrite_r+0x230>
 40050e4:	902d883a 	mov	r22,r18
 40050e8:	81000017 	ldw	r4,0(r16)
 40050ec:	80800417 	ldw	r2,16(r16)
 40050f0:	b02f883a 	mov	r23,r22
 40050f4:	81c00517 	ldw	r7,20(r16)
 40050f8:	1100032e 	bgeu	r2,r4,4005108 <__sfvwrite_r+0x250>
 40050fc:	80c00217 	ldw	r3,8(r16)
 4005100:	38c7883a 	add	r3,r7,r3
 4005104:	1d801816 	blt	r3,r22,4005168 <__sfvwrite_r+0x2b0>
 4005108:	b1c03e16 	blt	r22,r7,4005204 <__sfvwrite_r+0x34c>
 400510c:	80800917 	ldw	r2,36(r16)
 4005110:	81400717 	ldw	r5,28(r16)
 4005114:	e00d883a 	mov	r6,fp
 4005118:	da000115 	stw	r8,4(sp)
 400511c:	a809883a 	mov	r4,r21
 4005120:	103ee83a 	callr	r2
 4005124:	102f883a 	mov	r23,r2
 4005128:	da000117 	ldw	r8,4(sp)
 400512c:	00bfe00e 	bge	zero,r2,40050b0 <__alt_mem_SRAM+0xfbfe50b0>
 4005130:	9de7c83a 	sub	r19,r19,r23
 4005134:	98001f26 	beq	r19,zero,40051b4 <__sfvwrite_r+0x2fc>
 4005138:	a0800217 	ldw	r2,8(r20)
 400513c:	e5f9883a 	add	fp,fp,r23
 4005140:	95e5c83a 	sub	r18,r18,r23
 4005144:	15efc83a 	sub	r23,r2,r23
 4005148:	a5c00215 	stw	r23,8(r20)
 400514c:	b83f8726 	beq	r23,zero,4004f6c <__alt_mem_SRAM+0xfbfe4f6c>
 4005150:	903fe11e 	bne	r18,zero,40050d8 <__alt_mem_SRAM+0xfbfe50d8>
 4005154:	8f000017 	ldw	fp,0(r17)
 4005158:	8c800117 	ldw	r18,4(r17)
 400515c:	0011883a 	mov	r8,zero
 4005160:	8c400204 	addi	r17,r17,8
 4005164:	003fdb06 	br	40050d4 <__alt_mem_SRAM+0xfbfe50d4>
 4005168:	180d883a 	mov	r6,r3
 400516c:	e00b883a 	mov	r5,fp
 4005170:	da000115 	stw	r8,4(sp)
 4005174:	d8c00015 	stw	r3,0(sp)
 4005178:	40061cc0 	call	40061cc <memmove>
 400517c:	d8c00017 	ldw	r3,0(sp)
 4005180:	80800017 	ldw	r2,0(r16)
 4005184:	800b883a 	mov	r5,r16
 4005188:	a809883a 	mov	r4,r21
 400518c:	10c5883a 	add	r2,r2,r3
 4005190:	80800015 	stw	r2,0(r16)
 4005194:	d8c00015 	stw	r3,0(sp)
 4005198:	40046580 	call	4004658 <_fflush_r>
 400519c:	d8c00017 	ldw	r3,0(sp)
 40051a0:	da000117 	ldw	r8,4(sp)
 40051a4:	103fc21e 	bne	r2,zero,40050b0 <__alt_mem_SRAM+0xfbfe50b0>
 40051a8:	182f883a 	mov	r23,r3
 40051ac:	9de7c83a 	sub	r19,r19,r23
 40051b0:	983fe11e 	bne	r19,zero,4005138 <__alt_mem_SRAM+0xfbfe5138>
 40051b4:	800b883a 	mov	r5,r16
 40051b8:	a809883a 	mov	r4,r21
 40051bc:	40046580 	call	4004658 <_fflush_r>
 40051c0:	103fbb1e 	bne	r2,zero,40050b0 <__alt_mem_SRAM+0xfbfe50b0>
 40051c4:	0011883a 	mov	r8,zero
 40051c8:	003fdb06 	br	4005138 <__alt_mem_SRAM+0xfbfe5138>
 40051cc:	94c0012e 	bgeu	r18,r19,40051d4 <__sfvwrite_r+0x31c>
 40051d0:	9027883a 	mov	r19,r18
 40051d4:	980d883a 	mov	r6,r19
 40051d8:	e00b883a 	mov	r5,fp
 40051dc:	40061cc0 	call	40061cc <memmove>
 40051e0:	80800217 	ldw	r2,8(r16)
 40051e4:	80c00017 	ldw	r3,0(r16)
 40051e8:	14c5c83a 	sub	r2,r2,r19
 40051ec:	1cc7883a 	add	r3,r3,r19
 40051f0:	80800215 	stw	r2,8(r16)
 40051f4:	80c00015 	stw	r3,0(r16)
 40051f8:	10004326 	beq	r2,zero,4005308 <__sfvwrite_r+0x450>
 40051fc:	9805883a 	mov	r2,r19
 4005200:	003f8606 	br	400501c <__alt_mem_SRAM+0xfbfe501c>
 4005204:	b00d883a 	mov	r6,r22
 4005208:	e00b883a 	mov	r5,fp
 400520c:	da000115 	stw	r8,4(sp)
 4005210:	40061cc0 	call	40061cc <memmove>
 4005214:	80800217 	ldw	r2,8(r16)
 4005218:	80c00017 	ldw	r3,0(r16)
 400521c:	da000117 	ldw	r8,4(sp)
 4005220:	1585c83a 	sub	r2,r2,r22
 4005224:	1dad883a 	add	r22,r3,r22
 4005228:	80800215 	stw	r2,8(r16)
 400522c:	85800015 	stw	r22,0(r16)
 4005230:	003fbf06 	br	4005130 <__alt_mem_SRAM+0xfbfe5130>
 4005234:	81000017 	ldw	r4,0(r16)
 4005238:	9027883a 	mov	r19,r18
 400523c:	902f883a 	mov	r23,r18
 4005240:	003f6c06 	br	4004ff4 <__alt_mem_SRAM+0xfbfe4ff4>
 4005244:	900d883a 	mov	r6,r18
 4005248:	01400284 	movi	r5,10
 400524c:	e009883a 	mov	r4,fp
 4005250:	4005fa00 	call	4005fa0 <memchr>
 4005254:	10003e26 	beq	r2,zero,4005350 <__sfvwrite_r+0x498>
 4005258:	10800044 	addi	r2,r2,1
 400525c:	1727c83a 	sub	r19,r2,fp
 4005260:	02000044 	movi	r8,1
 4005264:	003f9d06 	br	40050dc <__alt_mem_SRAM+0xfbfe50dc>
 4005268:	80800517 	ldw	r2,20(r16)
 400526c:	81400417 	ldw	r5,16(r16)
 4005270:	81c00017 	ldw	r7,0(r16)
 4005274:	10a7883a 	add	r19,r2,r2
 4005278:	9885883a 	add	r2,r19,r2
 400527c:	1026d7fa 	srli	r19,r2,31
 4005280:	396dc83a 	sub	r22,r7,r5
 4005284:	b1000044 	addi	r4,r22,1
 4005288:	9885883a 	add	r2,r19,r2
 400528c:	1027d07a 	srai	r19,r2,1
 4005290:	2485883a 	add	r2,r4,r18
 4005294:	980d883a 	mov	r6,r19
 4005298:	9880022e 	bgeu	r19,r2,40052a4 <__sfvwrite_r+0x3ec>
 400529c:	1027883a 	mov	r19,r2
 40052a0:	100d883a 	mov	r6,r2
 40052a4:	18c1000c 	andi	r3,r3,1024
 40052a8:	18001c26 	beq	r3,zero,400531c <__sfvwrite_r+0x464>
 40052ac:	300b883a 	mov	r5,r6
 40052b0:	a809883a 	mov	r4,r21
 40052b4:	40057940 	call	4005794 <_malloc_r>
 40052b8:	102f883a 	mov	r23,r2
 40052bc:	10002926 	beq	r2,zero,4005364 <__sfvwrite_r+0x4ac>
 40052c0:	81400417 	ldw	r5,16(r16)
 40052c4:	b00d883a 	mov	r6,r22
 40052c8:	1009883a 	mov	r4,r2
 40052cc:	40060840 	call	4006084 <memcpy>
 40052d0:	8080030b 	ldhu	r2,12(r16)
 40052d4:	00fedfc4 	movi	r3,-1153
 40052d8:	10c4703a 	and	r2,r2,r3
 40052dc:	10802014 	ori	r2,r2,128
 40052e0:	8080030d 	sth	r2,12(r16)
 40052e4:	bd89883a 	add	r4,r23,r22
 40052e8:	9d8fc83a 	sub	r7,r19,r22
 40052ec:	85c00415 	stw	r23,16(r16)
 40052f0:	84c00515 	stw	r19,20(r16)
 40052f4:	81000015 	stw	r4,0(r16)
 40052f8:	9027883a 	mov	r19,r18
 40052fc:	81c00215 	stw	r7,8(r16)
 4005300:	902f883a 	mov	r23,r18
 4005304:	003f3b06 	br	4004ff4 <__alt_mem_SRAM+0xfbfe4ff4>
 4005308:	800b883a 	mov	r5,r16
 400530c:	a809883a 	mov	r4,r21
 4005310:	40046580 	call	4004658 <_fflush_r>
 4005314:	103fb926 	beq	r2,zero,40051fc <__alt_mem_SRAM+0xfbfe51fc>
 4005318:	003f6506 	br	40050b0 <__alt_mem_SRAM+0xfbfe50b0>
 400531c:	a809883a 	mov	r4,r21
 4005320:	400744c0 	call	400744c <_realloc_r>
 4005324:	102f883a 	mov	r23,r2
 4005328:	103fee1e 	bne	r2,zero,40052e4 <__alt_mem_SRAM+0xfbfe52e4>
 400532c:	81400417 	ldw	r5,16(r16)
 4005330:	a809883a 	mov	r4,r21
 4005334:	4004ba80 	call	4004ba8 <_free_r>
 4005338:	8080030b 	ldhu	r2,12(r16)
 400533c:	00ffdfc4 	movi	r3,-129
 4005340:	1884703a 	and	r2,r3,r2
 4005344:	00c00304 	movi	r3,12
 4005348:	a8c00015 	stw	r3,0(r21)
 400534c:	003f5906 	br	40050b4 <__alt_mem_SRAM+0xfbfe50b4>
 4005350:	94c00044 	addi	r19,r18,1
 4005354:	02000044 	movi	r8,1
 4005358:	003f6006 	br	40050dc <__alt_mem_SRAM+0xfbfe50dc>
 400535c:	00bfffc4 	movi	r2,-1
 4005360:	003f0306 	br	4004f70 <__alt_mem_SRAM+0xfbfe4f70>
 4005364:	00800304 	movi	r2,12
 4005368:	a8800015 	stw	r2,0(r21)
 400536c:	8080030b 	ldhu	r2,12(r16)
 4005370:	003f5006 	br	40050b4 <__alt_mem_SRAM+0xfbfe50b4>

04005374 <_fwalk>:
 4005374:	defff704 	addi	sp,sp,-36
 4005378:	dd000415 	stw	r20,16(sp)
 400537c:	dfc00815 	stw	ra,32(sp)
 4005380:	ddc00715 	stw	r23,28(sp)
 4005384:	dd800615 	stw	r22,24(sp)
 4005388:	dd400515 	stw	r21,20(sp)
 400538c:	dcc00315 	stw	r19,12(sp)
 4005390:	dc800215 	stw	r18,8(sp)
 4005394:	dc400115 	stw	r17,4(sp)
 4005398:	dc000015 	stw	r16,0(sp)
 400539c:	2500b804 	addi	r20,r4,736
 40053a0:	a0002326 	beq	r20,zero,4005430 <_fwalk+0xbc>
 40053a4:	282b883a 	mov	r21,r5
 40053a8:	002f883a 	mov	r23,zero
 40053ac:	05800044 	movi	r22,1
 40053b0:	04ffffc4 	movi	r19,-1
 40053b4:	a4400117 	ldw	r17,4(r20)
 40053b8:	a4800217 	ldw	r18,8(r20)
 40053bc:	8c7fffc4 	addi	r17,r17,-1
 40053c0:	88000d16 	blt	r17,zero,40053f8 <_fwalk+0x84>
 40053c4:	94000304 	addi	r16,r18,12
 40053c8:	94800384 	addi	r18,r18,14
 40053cc:	8080000b 	ldhu	r2,0(r16)
 40053d0:	8c7fffc4 	addi	r17,r17,-1
 40053d4:	813ffd04 	addi	r4,r16,-12
 40053d8:	b080042e 	bgeu	r22,r2,40053ec <_fwalk+0x78>
 40053dc:	9080000f 	ldh	r2,0(r18)
 40053e0:	14c00226 	beq	r2,r19,40053ec <_fwalk+0x78>
 40053e4:	a83ee83a 	callr	r21
 40053e8:	b8aeb03a 	or	r23,r23,r2
 40053ec:	84001a04 	addi	r16,r16,104
 40053f0:	94801a04 	addi	r18,r18,104
 40053f4:	8cfff51e 	bne	r17,r19,40053cc <__alt_mem_SRAM+0xfbfe53cc>
 40053f8:	a5000017 	ldw	r20,0(r20)
 40053fc:	a03fed1e 	bne	r20,zero,40053b4 <__alt_mem_SRAM+0xfbfe53b4>
 4005400:	b805883a 	mov	r2,r23
 4005404:	dfc00817 	ldw	ra,32(sp)
 4005408:	ddc00717 	ldw	r23,28(sp)
 400540c:	dd800617 	ldw	r22,24(sp)
 4005410:	dd400517 	ldw	r21,20(sp)
 4005414:	dd000417 	ldw	r20,16(sp)
 4005418:	dcc00317 	ldw	r19,12(sp)
 400541c:	dc800217 	ldw	r18,8(sp)
 4005420:	dc400117 	ldw	r17,4(sp)
 4005424:	dc000017 	ldw	r16,0(sp)
 4005428:	dec00904 	addi	sp,sp,36
 400542c:	f800283a 	ret
 4005430:	002f883a 	mov	r23,zero
 4005434:	003ff206 	br	4005400 <__alt_mem_SRAM+0xfbfe5400>

04005438 <_fwalk_reent>:
 4005438:	defff704 	addi	sp,sp,-36
 400543c:	dd000415 	stw	r20,16(sp)
 4005440:	dfc00815 	stw	ra,32(sp)
 4005444:	ddc00715 	stw	r23,28(sp)
 4005448:	dd800615 	stw	r22,24(sp)
 400544c:	dd400515 	stw	r21,20(sp)
 4005450:	dcc00315 	stw	r19,12(sp)
 4005454:	dc800215 	stw	r18,8(sp)
 4005458:	dc400115 	stw	r17,4(sp)
 400545c:	dc000015 	stw	r16,0(sp)
 4005460:	2500b804 	addi	r20,r4,736
 4005464:	a0002326 	beq	r20,zero,40054f4 <_fwalk_reent+0xbc>
 4005468:	282b883a 	mov	r21,r5
 400546c:	2027883a 	mov	r19,r4
 4005470:	002f883a 	mov	r23,zero
 4005474:	05800044 	movi	r22,1
 4005478:	04bfffc4 	movi	r18,-1
 400547c:	a4400117 	ldw	r17,4(r20)
 4005480:	a4000217 	ldw	r16,8(r20)
 4005484:	8c7fffc4 	addi	r17,r17,-1
 4005488:	88000c16 	blt	r17,zero,40054bc <_fwalk_reent+0x84>
 400548c:	84000304 	addi	r16,r16,12
 4005490:	8080000b 	ldhu	r2,0(r16)
 4005494:	8c7fffc4 	addi	r17,r17,-1
 4005498:	817ffd04 	addi	r5,r16,-12
 400549c:	b080052e 	bgeu	r22,r2,40054b4 <_fwalk_reent+0x7c>
 40054a0:	8080008f 	ldh	r2,2(r16)
 40054a4:	9809883a 	mov	r4,r19
 40054a8:	14800226 	beq	r2,r18,40054b4 <_fwalk_reent+0x7c>
 40054ac:	a83ee83a 	callr	r21
 40054b0:	b8aeb03a 	or	r23,r23,r2
 40054b4:	84001a04 	addi	r16,r16,104
 40054b8:	8cbff51e 	bne	r17,r18,4005490 <__alt_mem_SRAM+0xfbfe5490>
 40054bc:	a5000017 	ldw	r20,0(r20)
 40054c0:	a03fee1e 	bne	r20,zero,400547c <__alt_mem_SRAM+0xfbfe547c>
 40054c4:	b805883a 	mov	r2,r23
 40054c8:	dfc00817 	ldw	ra,32(sp)
 40054cc:	ddc00717 	ldw	r23,28(sp)
 40054d0:	dd800617 	ldw	r22,24(sp)
 40054d4:	dd400517 	ldw	r21,20(sp)
 40054d8:	dd000417 	ldw	r20,16(sp)
 40054dc:	dcc00317 	ldw	r19,12(sp)
 40054e0:	dc800217 	ldw	r18,8(sp)
 40054e4:	dc400117 	ldw	r17,4(sp)
 40054e8:	dc000017 	ldw	r16,0(sp)
 40054ec:	dec00904 	addi	sp,sp,36
 40054f0:	f800283a 	ret
 40054f4:	002f883a 	mov	r23,zero
 40054f8:	003ff206 	br	40054c4 <__alt_mem_SRAM+0xfbfe54c4>

040054fc <_setlocale_r>:
 40054fc:	30001b26 	beq	r6,zero,400556c <_setlocale_r+0x70>
 4005500:	01410074 	movhi	r5,1025
 4005504:	defffe04 	addi	sp,sp,-8
 4005508:	29430104 	addi	r5,r5,3076
 400550c:	3009883a 	mov	r4,r6
 4005510:	dc000015 	stw	r16,0(sp)
 4005514:	dfc00115 	stw	ra,4(sp)
 4005518:	3021883a 	mov	r16,r6
 400551c:	4007bb40 	call	4007bb4 <strcmp>
 4005520:	1000061e 	bne	r2,zero,400553c <_setlocale_r+0x40>
 4005524:	00810074 	movhi	r2,1025
 4005528:	10830004 	addi	r2,r2,3072
 400552c:	dfc00117 	ldw	ra,4(sp)
 4005530:	dc000017 	ldw	r16,0(sp)
 4005534:	dec00204 	addi	sp,sp,8
 4005538:	f800283a 	ret
 400553c:	01410074 	movhi	r5,1025
 4005540:	29430004 	addi	r5,r5,3072
 4005544:	8009883a 	mov	r4,r16
 4005548:	4007bb40 	call	4007bb4 <strcmp>
 400554c:	103ff526 	beq	r2,zero,4005524 <__alt_mem_SRAM+0xfbfe5524>
 4005550:	01410074 	movhi	r5,1025
 4005554:	2942eb04 	addi	r5,r5,2988
 4005558:	8009883a 	mov	r4,r16
 400555c:	4007bb40 	call	4007bb4 <strcmp>
 4005560:	103ff026 	beq	r2,zero,4005524 <__alt_mem_SRAM+0xfbfe5524>
 4005564:	0005883a 	mov	r2,zero
 4005568:	003ff006 	br	400552c <__alt_mem_SRAM+0xfbfe552c>
 400556c:	00810074 	movhi	r2,1025
